0001   0000                 DEVICE ZXSPECTRUM128
0002   0000             
0003   0000                 include "../module.inc"
0001+  0000             ;romAddr        = 0
0002+  0000             ;screenAddr     = 4000h
0003+  0000             ;cacheAddr      = 5B00h
0004+  0000             
0005+  0000             irqTableAddr      = 5F00h
0006+  0000             irqAddr           = 6060h
0007+  0000             stackBeginAddr    = 6001h
0008+  0000             stackEndAddr      = 605Fh
0009+  0000             baseAddr          = 6063h
0010+  0000             moduleLoadAddr    = 7000h
0011+  0000             moverAddr         = 8000h
0012+  0000             
0013+  0000             gEnd = baseAddr
0014+  0000             
0015+  0000             ; Функции
0016+  0000             gDrawText         = gEnd
0017+  0000             gEnd = gEnd + 3
0018+  0000             gDrawTextCenter   = gEnd
0019+  0000             gEnd = gEnd + 3
0020+  0000             gDrawTextEx       = gEnd
0021+  0000             gEnd = gEnd + 3
0022+  0000             gClearScreen      = gEnd
0023+  0000             gEnd = gEnd + 3
0024+  0000             gDrawImage        = gEnd
0025+  0000             gEnd = gEnd + 3
0026+  0000             gMeasureText      = gEnd
0027+  0000             gEnd = gEnd + 3
0028+  0000             gCalcCoords       = gEnd
0029+  0000             gEnd = gEnd + 3
0030+  0000             gDrawCharSub      = gEnd
0031+  0000             gEnd = gEnd + 3
0032+  0000             gExec             = gEnd
0033+  0000             gEnd = gEnd + 3
0034+  0000             gLoadFile         = gEnd
0035+  0000             gEnd = gEnd + 3
0036+  0000             gFarCall          = gEnd
0037+  0000             gEnd = gEnd + 3
0038+  0000             gIrqHandler       = gEnd
0039+  0000             gEnd = gEnd + 3
0040+  0000             gDrawPanel        = gEnd
0041+  0000             gEnd = gEnd + 3
0042+  0000             gBeginDraw        = gEnd
0043+  0000             gEnd = gEnd + 3
0044+  0000             gEndDraw          = gEnd
0045+  0000             gEnd = gEnd + 3
0046+  0000             gCopyVideoPage    = gEnd
0047+  0000             gEnd = gEnd + 3
0048+  0000             gPanelRedraw      = gEnd
0049+  0000             gEnd = gEnd + 3
0050+  0000             gStringBuffer     = gEnd
0051+  0000             gStringBufferSize = 32
0052+  0000             gEnd = gEnd + gStringBufferSize
0053+  0000             
0054+  0000             ; Переменные
0055+  0000             gFrame            = gEnd
0056+  0000             gEnd = gEnd + 1
0057+  0000             gVideoPage        = gEnd
0058+  0000             gEnd = gEnd + 1
0059+  0000             gSystemPage       = gEnd
0060+  0000             gEnd = gEnd + 1
0061+  0000             gKeyTrigger       = gEnd
0062+  0000             gEnd = gEnd + 1
0063+  0000             gKeyPressed       = gEnd
0064+  0000             gEnd = gEnd + 1
0065+  0000             gPlayerMoney      = gEnd
0066+  0000             gEnd = gEnd + 2
0067+  0000             gPlayerLut        = gEnd
0068+  0000             playerLutMax = 12
0069+  0000             gEnd = gEnd + 2 * playerLutMax
0070+  0000             gPlayerLutCount   = gEnd
0071+  0000             gEnd = gEnd + 1
0072+  0000             gPlayerItems      = gEnd
0073+  0000             playerItemsMax = 5
0074+  0000             gEnd = gEnd + playerItemsMax
0075+  0000             gPlayerItemsCount = gEnd
0076+  0000             gEnd = gEnd + 1
0077+  0000             gPanelChangedA    = gEnd
0078+  0000             gEnd = gEnd + 1
0079+  0000             gPanelChangedB    = gEnd
0080+  0000             gEnd = gEnd + 1
0081+  0000             
0082+  0000             ; Другие модули
0083+  0000             gPanelgraphPage = 6
0084+  0000             gPanelgraph = 0C003h
0085+  0000             gPanelX = 0
0086+  0000             gPanelY = 20
0087+  0000             
0004   0000             
0005   0000                 org moduleLoadAddr
0006   7000             
0007   7000             begin: 
0008   7000 C3 B0 70        jp main
0009   7003             
0001   7003                 ; 3 const int playerLutMax = 12;
0002   7003                 ; 5 const int KEY_UP = 1;
0003   7003                 ; 6 const int KEY_DOWN = 2;
0004   7003                 ; 7 const int KEY_LEFT = 4;
0005   7003                 ; 8 const int KEY_RIGHT = 8;
0006   7003                 ; 9 const int KEY_FIRE = 16;
0007   7003                 ; 11 const int PORT_7FFD_SECOND_VIDEO_PAGE = 8;
0008   7003                 ; 13 const int screenAddr1 = 0x4000;
0009   7003                 ; 14 const int screenAddr2 = 0xC000;
0010   7003                 ; 15 const int screenWidth = 256;
0011   7003                 ; 16 const int screenHeight = 192;
0012   7003                 ; 17 const int screenBwSize = screenWidth / 8 * screenHeight;
0013   7003                 ; 18 const int screenAttrSize = screenWidth / 8 * screenHeight / 8;
0014   7003                 ; 19 const int screenAttrAddr1 = screenAddr1 + screenBwSize;
0015   7003                 ; 20 const int screenAttrAddr2 = screenAddr2 + screenBwSize;
0016   7003                 ; 21 const int screenEndAddr1 = screenAttrAddr1 + screenAttrSize;
0017   7003                 ; 22 const int screenEndAddr2 = screenAttrAddr2 + screenAttrSize;
0018   7003                 ; 23 const int cacheAddr1 = screenEndAddr1;
0019   7003                 ; 24 const int cacheAddr2 = screenEndAddr2;
0020   7003                 ; 25 const int unusedTailCode = 0xFE;
0021   7003                 ; 26 const int viewWidth = 32;
0022   7003                 ; 27 const int viewHeight = 20;
0023   7003                 ; 28 const int cityRoadY = 13;
0024   7003                 ; 29 const int mapWidth = 256;
0025   7003                 ; 31 const int npc_timer           = 0;
0026   7003                 ; 32 const int npc_flags           = 1;
0027   7003                 ; 33 const int npc_flags_direction = 0x01;
0028   7003                 ; 34 const int npc_flags_type      = 0x02;
0029   7003                 ; 35 const int npc_step            = 2;
0030   7003                 ; 36 const int npc_position        = 3;
0031   7003                 ; 37 const int npc_sizeof          = 4;
0032   7003                 ; 39 const int npc_maxCount = 16;
0033   7003                 ; 40 const int npc_defaultSpeed = 7;
0034   7003                 ; 42 uint8_t cityPlayerX = 0;
0035   7003 00          cityPlayerX db 0
0036   7004                 ; 43 uint8_t cityScrollX = 0;
0037   7004 00          cityScrollX db 0
0038   7005                 ; 44 uint8_t cityPlayerDirection = 0;
0039   7005 00          cityPlayerDirection db 0
0040   7006                 ; 45 uint16_t cityPlayerSprite = &city1s_0;
0041   7006 00 AF       cityPlayerSprite dw city1s_0
0042   7008                 ; 46 uint8_t processedFrames = 0;
0043   7008 00          processedFrames db 0
0044   7009                 ; 47 //uint8_t startFrame;
0045   7009                 ; 48 uint8_t npcCount = npc_maxCount;
0046   7009 10          npcCount db 16
0047   700A                 ; 49 uint8_t npc[npc_sizeof * npc_maxCount];
0048   700A 00          npc ds 64
0049   704A                 ; 51 void swapMaps()
0050   704A             swapMaps: 
0051   704A                 ; 52 {
0052   704A                 ; 53 // Загрузка города
0053   704A                 ; 54 hl = &city1Tails;
0054   704A 21 00 75        ld   hl, city1Tails
0055   704D                 ; 55 de = &city1bTails;
0056   704D 11 00 92        ld   de, city1bTails
0057   7050                 ; 56 bc = [9 * 256 + 256 * 20];
0058   7050 01 00 1D        ld   bc, 7424
0059   7053                 ; 57 do
0060   7053             l2000: 
0061   7053                 ; 58 {
0062   7053                 ; 59 a = *de;
0063   7053 1A              ld   a, (de)
0064   7054                 ; 60 ex(a, a);
0065   7054 08              ex   af, af
0066   7055                 ; 61 a = *hl;
0067   7055 7E              ld   a, (hl)
0068   7056                 ; 62 *de = a;
0069   7056 12              ld   (de), a
0070   7057                 ; 63 ex(a, a);
0071   7057 08              ex   af, af
0072   7058                 ; 64 *hl = a;
0073   7058 77              ld   (hl), a
0074   7059                 ; 65 hl++;
0075   7059 23              inc  hl
0076   705A                 ; 66 de++;
0077   705A 13              inc  de
0078   705B                 ; 67 bc--;
0079   705B 0B              dec  bc
0080   705C                 ; 68 } while(flag_nz (a = b) |= c);
0081   705C 78              ld   a, b
0082   705D B1              or   c
0083   705E C2 53 70        jp   nz, l2000
0084   7061             l2001: 
0085   7061                 ; 69 }
0086   7061 C9              ret
0087   7062                 ; 71 void cityFullRedraw()
0088   7062             cityFullRedraw: 
0089   7062                 ; 72 {
0090   7062                 ; 73 cityInvalidate(hl = cacheAddr1);
0091   7062 21 00 5B        ld   hl, 23296
0092   7065 CD F1 70        call cityInvalidate
0093   7068                 ; 74 //*[cacheAddr1 + screenAttrSize] = a = 0;
0094   7068                 ; 75 cityInvalidate(hl = cacheAddr2);
0095   7068 21 00 DB        ld   hl, 56064
0096   706B CD F1 70        call cityInvalidate
0097   706E                 ; 76 //*[cacheAddr2 + screenAttrSize] = a = 0;
0098   706E                 ; 77 gPanelChangedA = a = 0xFF;
0099   706E 3E FF           ld   a, 255
0100   7070 32 DC 60        ld   (gPanelChangedA), a
0101   7073                 ; 78 gPanelChangedB = a;
0102   7073 32 DD 60        ld   (gPanelChangedB), a
0103   7076                 ; 79 }
0104   7076 C9              ret
0105   7077                 ; 81 void newGame()
0106   7077             newGame: 
0107   7077                 ; 82 {
0108   7077                 ; 83 gPlayerMoney = hl = 10;
0109   7077 21 0A 00        ld   hl, 10
0110   707A 22 BB 60        ld   (gPlayerMoney), hl
0111   707D                 ; 84 gPlayerItemsCount = a = 2;
0112   707D 3E 02           ld   a, 2
0113   707F 32 DB 60        ld   (gPlayerItemsCount), a
0114   7082                 ; 85 *[&gPlayerItems] = a = 0;
0115   7082 3E 00           ld   a, 0
0116   7084 32 D6 60        ld   (gPlayerItems), a
0117   7087                 ; 86 *[&gPlayerItems + 1] = a = 1;
0118   7087 3E 01           ld   a, 1
0119   7089 32 D7 60        ld   ((gPlayerItems) + (1)), a
0120   708C                 ; 88 gPlayerLutCount = a = 3;
0121   708C 3E 03           ld   a, 3
0122   708E 32 D5 60        ld   (gPlayerLutCount), a
0123   7091                 ; 89 *[&gPlayerLut + 0] = a = 0;
0124   7091 3E 00           ld   a, 0
0125   7093 32 BD 60        ld   ((gPlayerLut) + (0)), a
0126   7096                 ; 90 *[&gPlayerLut + playerLutMax + 0] = a = 5;
0127   7096 3E 05           ld   a, 5
0128   7098 32 C9 60        ld   ((gPlayerLut) + (12)), a
0129   709B                 ; 91 *[&gPlayerLut + 1] = a = 1;
0130   709B 3E 01           ld   a, 1
0131   709D 32 BE 60        ld   ((gPlayerLut) + (1)), a
0132   70A0                 ; 92 *[&gPlayerLut + playerLutMax + 1] = a = 10;
0133   70A0 3E 0A           ld   a, 10
0134   70A2 32 CA 60        ld   ((gPlayerLut) + (13)), a
0135   70A5                 ; 93 *[&gPlayerLut + 2] = a = 2;
0136   70A5 3E 02           ld   a, 2
0137   70A7 32 BF 60        ld   ((gPlayerLut) + (2)), a
0138   70AA                 ; 94 *[&gPlayerLut + playerLutMax + 2] = a = 15;
0139   70AA 3E 0F           ld   a, 15
0140   70AC 32 CB 60        ld   ((gPlayerLut) + (14)), a
0141   70AF                 ; 95 }
0142   70AF C9              ret
0143   70B0                 ; 97 void main()
0144   70B0             main: 
0145   70B0                 ; 98 {
0146   70B0                 ; 99 newGame();
0147   70B0 CD 77 70        call newGame
0148   70B3                 ; 101 gPanelChangedA = a = 0xFF;
0149   70B3 3E FF           ld   a, 255
0150   70B5 32 DC 60        ld   (gPanelChangedA), a
0151   70B8                 ; 102 gPanelChangedB = a;
0152   70B8 32 DD 60        ld   (gPanelChangedB), a
0153   70BB                 ; 104 cityPlayerX = a = [mapWidth / 2];
0154   70BB 3E 80           ld   a, 128
0155   70BD 32 03 70        ld   (cityPlayerX), a
0156   70C0                 ; 105 cityScrollX = (a -= [viewWidth / 2]);
0157   70C0 D6 10           sub  16
0158   70C2 32 04 70        ld   (cityScrollX), a
0159   70C5                 ; 107 // Перерисовать панель    
0160   70C5                 ; 108 gDrawPanel();
0161   70C5 CD 87 60        call gDrawPanel
0162   70C8                 ; 110 // Инициализация NPC
0163   70C8                 ; 111 initNpc();
0164   70C8 CD FC 70        call initNpc
0165   70CB                 ; 113 //swapMaps();
0166   70CB                 ; 115 // Инициализация кеша
0167   70CB                 ; 116 cityFullRedraw();
0168   70CB CD 62 70        call cityFullRedraw
0169   70CE                 ; 118 // Перерисовать
0170   70CE                 ; 119 while()
0171   70CE             l2002: 
0172   70CE                 ; 120 {
0173   70CE                 ; 121 gBeginDraw();
0174   70CE CD 8A 60        call gBeginDraw
0175   70D1                 ; 122 cityDraw();
0176   70D1 CD 91 72        call cityDraw
0177   70D4                 ; 123 gEndDraw();
0178   70D4 CD 8D 60        call gEndDraw
0179   70D7                 ; 125 while ((a = gFrame) != *(hl = &processedFrames))
0180   70D7             l2004: 
0181   70D7 3A B6 60        ld   a, (gFrame)
0182   70DA 21 08 70        ld   hl, processedFrames
0183   70DD BE              cp   (hl)
0184   70DE CA ED 70        jp   z, l2005
0185   70E1                 ; 126 {
0186   70E1                 ; 127 *hl = a;
0187   70E1 77              ld   (hl), a
0188   70E2                 ; 128 a &= 3;
0189   70E2 E6 03           and  3
0190   70E4                 ; 129 if (flag_z) processPlayer();
0191   70E4 CC BC 71        call z, processPlayer
0192   70E7                 ; 130 processNpc();
0193   70E7 CD 2B 71        call processNpc
0194   70EA                 ; 131 }
0195   70EA C3 D7 70        jp   l2004
0196   70ED             l2005: 
0197   70ED                 ; 132 }
0198   70ED C3 CE 70        jp   l2002
0199   70F0             l2003: 
0200   70F0                 ; 133 }
0201   70F0 C9              ret
0202   70F1                 ; 135 void cityInvalidate(hl)
0203   70F1             cityInvalidate: 
0204   70F1                 ; 136 {
0205   70F1                 ; 137 d = h; e = l; de++;
0206   70F1 54              ld   d, h
0207   70F2 5D              ld   e, l
0208   70F3 13              inc  de
0209   70F4                 ; 138 *hl = unusedTailCode;
0210   70F4 36 FE           ld   (hl), 254
0211   70F6                 ; 139 bc = [viewWidth * viewHeight - 1];
0212   70F6 01 7F 02        ld   bc, 639
0213   70F9                 ; 140 ldir();
0214   70F9 ED B0           ldir
0215   70FB                 ; 141 }
0216   70FB C9              ret
0217   70FC                 ; 143 //----------------------------------------------------------------------------------------------------------------------
0218   70FC                 ; 144 // Инициализация жителей
0219   70FC                 ; 146 void initNpc()
0220   70FC             initNpc: 
0221   70FC                 ; 147 {
0222   70FC                 ; 148 ix = &npc;
0223   70FC DD 21 0A 70     ld   ix, npc
0224   7100                 ; 149 de = npc_sizeof;
0225   7100 11 04 00        ld   de, 4
0226   7103                 ; 150 b = a = npcCount; // Счетчик цикла
0227   7103 3A 09 70        ld   a, (npcCount)
0228   7106 47              ld   b, a
0229   7107                 ; 151 do
0230   7107             l2006: 
0231   7107                 ; 152 {
0232   7107                 ; 153 a = b;
0233   7107 78              ld   a, b
0234   7108                 ; 154 while (a >= npc_defaultSpeed) a -= npc_defaultSpeed;
0235   7108             l2008: 
0236   7108 FE 07           cp   7
0237   710A DA 12 71        jp   c, l2009
0238   710D D6 07           sub  7
0239   710F C3 08 71        jp   l2008
0240   7112             l2009: 
0241   7112                 ; 155 a += 1;
0242   7112 C6 01           add  1
0243   7114                 ; 156 ix[npc_timer] = a; // Фаза таймера
0244   7114 DD 77 00        ld   (ix + 0), a
0245   7117                 ; 158 ix[npc_step] = 0;
0246   7117 DD 36 02 00     ld   (ix + 2), 0
0247   711B                 ; 159 rand();
0248   711B CD 55 74        call rand
0249   711E                 ; 160 ix[npc_position] = a;
0250   711E DD 77 03        ld   (ix + 3), a
0251   7121                 ; 161 ix[npc_flags] = (a &= [npc_flags_direction | npc_flags_type]);
0252   7121 E6 03           and  3
0253   7123 DD 77 01        ld   (ix + 1), a
0254   7126                 ; 162 ix += de;
0255   7126 DD 19           add  ix, de
0256   7128                 ; 163 } while(--b);
0257   7128 10 DD           djnz l2006
0258   712A             l2007: 
0259   712A                 ; 164 }
0260   712A C9              ret
0261   712B                 ; 166 //----------------------------------------------------------------------------------------------------------------------
0262   712B                 ; 167 // Перемещение и анимация жителей.
0263   712B                 ; 169 void processNpc()
0264   712B             processNpc: 
0265   712B                 ; 170 {
0266   712B                 ; 171 de = npc_sizeof;
0267   712B 11 04 00        ld   de, 4
0268   712E                 ; 172 hl = &npc;
0269   712E 21 0A 70        ld   hl, npc
0270   7131                 ; 173 b = a = npcCount;
0271   7131 3A 09 70        ld   a, (npcCount)
0272   7134 47              ld   b, a
0273   7135                 ; 174 do
0274   7135             l2010: 
0275   7135                 ; 175 {
0276   7135                 ; 176 if (flag_z --*hl) // Скорость
0277   7135 35              dec  (hl)
0278   7136                 ; 177 {
0279   7136 C2 82 71        jp   nz, l2012
0280   7139                 ; 178 rand();
0281   7139 CD 55 74        call rand
0282   713C                 ; 179 if (flag_z a--) // Внезапная остановка
0283   713C 3D              dec  a
0284   713D                 ; 180 {
0285   713D C2 48 71        jp   nz, l2013
0286   7140                 ; 181 //! Не полушаге не останавливать
0287   7140                 ; 182 push(hl);
0288   7140 E5              push hl
0289   7141                 ; 183 pop(ix);
0290   7141 DD E1           pop  ix
0291   7143                 ; 184 //a = ix[npc_spriteType];
0292   7143                 ; 185 //if (a == 1)
0293   7143                 ; 186 //{
0294   7143                 ; 187 *hl = 255;
0295   7143 36 FF           ld   (hl), 255
0296   7145                 ; 188 goto continue1;
0297   7145 C3 82 71        jp   continue1
0298   7148                 ; 189 //}
0299   7148                 ; 190 }
0300   7148                 ; 192 // У всех разная скорость
0301   7148                 ; 193 *hl = (((a = b) &= 7) += npc_defaultSpeed);
0302   7148             l2013: 
0303   7148 78              ld   a, b
0304   7149 E6 07           and  7
0305   714B C6 07           add  7
0306   714D 77              ld   (hl), a
0307   714E                 ; 195 if (flag_z a--) // Внезапный поворот
0308   714E 3D              dec  a
0309   714F                 ; 196 {
0310   714F C2 58 71        jp   nz, l2014
0311   7152                 ; 197 hl++;
0312   7152 23              inc  hl
0313   7153                 ; 198 a = *hl;
0314   7153 7E              ld   a, (hl)
0315   7154                 ; 199 a ^= npc_flags_direction;
0316   7154 EE 01           xor  1
0317   7156                 ; 200 *hl = a;
0318   7156 77              ld   (hl), a
0319   7157                 ; 201 hl--;
0320   7157 2B              dec  hl
0321   7158                 ; 202 }
0322   7158                 ; 204 hl++;
0323   7158             l2014: 
0324   7158 23              inc  hl
0325   7159                 ; 205 if (*hl & npc_flags_direction) // Направление
0326   7159 CB 46           bit  0, (hl)
0327   715B                 ; 206 {
0328   715B CA 6F 71        jp   z, l2015
0329   715E                 ; 207 hl++;
0330   715E 23              inc  hl
0331   715F                 ; 208 a = *hl;
0332   715F 7E              ld   a, (hl)
0333   7160                 ; 209 a++;
0334   7160 3C              inc  a
0335   7161                 ; 210 if (a >= 4) { a = 0; hl++; ++*hl; hl--; }
0336   7161 FE 04           cp   4
0337   7163 DA 6B 71        jp   c, l2016
0338   7166 3E 00           ld   a, 0
0339   7168 23              inc  hl
0340   7169 34              inc  (hl)
0341   716A 2B              dec  hl
0342   716B                 ; 211 *hl = a;
0343   716B             l2016: 
0344   716B 77              ld   (hl), a
0345   716C                 ; 212 }
0346   716C                 ; 213 else
0347   716C C3 7D 71        jp   l2017
0348   716F             l2015: 
0349   716F                 ; 214 {
0350   716F                 ; 215 hl++;
0351   716F 23              inc  hl
0352   7170                 ; 216 a = *hl;
0353   7170 7E              ld   a, (hl)
0354   7171                 ; 217 a++;
0355   7171 3C              inc  a
0356   7172                 ; 218 if (a >= 4) { a = 0; hl++; --*hl; hl--; }
0357   7172 FE 04           cp   4
0358   7174 DA 7C 71        jp   c, l2018
0359   7177 3E 00           ld   a, 0
0360   7179 23              inc  hl
0361   717A 35              dec  (hl)
0362   717B 2B              dec  hl
0363   717C                 ; 219 *hl = a;
0364   717C             l2018: 
0365   717C 77              ld   (hl), a
0366   717D                 ; 220 }
0367   717D             l2017: 
0368   717D                 ; 221 hl++; hl++;
0369   717D 23              inc  hl
0370   717E 23              inc  hl
0371   717F                 ; 222 }
0372   717F                 ; 223 else
0373   717F C3 83 71        jp   l2019
0374   7182             l2012: 
0375   7182                 ; 224 {
0376   7182                 ; 225 continue1:
0377   7182             continue1: 
0378   7182                 ; 226 hl += de; // Следующий NPC
0379   7182 19              add  hl, de
0380   7183                 ; 227 }
0381   7183             l2019: 
0382   7183                 ; 228 } while(flag_nz --b);
0383   7183 05              dec  b
0384   7184 C2 35 71        jp   nz, l2010
0385   7187             l2011: 
0386   7187                 ; 229 }
0387   7187 C9              ret
0388   7188                 ; 231 //----------------------------------------------------------------------------------------------------------------------
0389   7188                 ; 232 // Вход: hl - должно указывать на npc_position
0390   7188                 ; 233 // Выход: hl - адрес спрайта
0391   7188                 ; 234 // Портит: a
0392   7188                 ; 236 // const int npc_timer      = 0;
0393   7188                 ; 237 // const int npc_direction  = 1;
0394   7188                 ; 238 // const int npc_step       = 2;
0395   7188                 ; 239 // const int npc_position   = 3;
0396   7188                 ; 240 // const int npc_sprite_l   = 4;
0397   7188                 ; 241 // const int npc_sprite_h   = 5;
0398   7188                 ; 242 // const int npc_sizeof     = 6;
0399   7188                 ; 244 void getNpcSprite(hl)
0400   7188             getNpcSprite: 
0401   7188                 ; 245 {
0402   7188                 ; 246 // Вычисление номера спрайта
0403   7188                 ; 247 hl--;
0404   7188 2B              dec  hl
0405   7189                 ; 248 hl--;
0406   7189 2B              dec  hl
0407   718A                 ; 249 a = *hl; // npc_direction + npc_type
0408   718A 7E              ld   a, (hl)
0409   718B                 ; 250 a += a;
0410   718B 87              add  a
0411   718C                 ; 251 a += a;
0412   718C 87              add  a
0413   718D                 ; 252 hl++;
0414   718D 23              inc  hl
0415   718E                 ; 253 a += *hl; // npc_step
0416   718E 86              add  (hl)
0417   718F                 ; 255 // Получение элемента массива
0418   718F                 ; 256 l = ((a += a) += &sprite_citizen);
0419   718F 87              add  a
0420   7190 C6 9C           add  sprite_citizen
0421   7192 6F              ld   l, a
0422   7193                 ; 257 h = ((a +@= [&sprite_citizen >> 8]) -= l);
0423   7193 CE 71           adc  (sprite_citizen) >> (8)
0424   7195 95              sub  l
0425   7196 67              ld   h, a
0426   7197                 ; 258 a = *hl; hl++; h = *hl; l = a;
0427   7197 7E              ld   a, (hl)
0428   7198 23              inc  hl
0429   7199 66              ld   h, (hl)
0430   719A 6F              ld   l, a
0431   719B                 ; 259 }
0432   719B C9              ret
0433   719C                 ; 261 uint16_t sprite_citizen[16] =
0434   719C                 ; 262 {
0435   719C                 ; 263 &city1s_15, &city1s_16, &city1s_17, &city1s_14,
0436   719C                 ; 264 &city1s_21, &city1s_20, &city1s_19, &city1s_18,
0437   719C                 ; 266 &city1s_9,  &city1s_8,  &city1s_7,  &city1s_6,
0438   719C                 ; 267 &city1s_10, &city1s_11, &city1s_12, &city1s_13
0439   719C                 ; 268 };
0440   719C             sprite_citizen: 
0441   719C 6E B3           dw city1s_15
0442   719E 00 B4           dw city1s_16
0443   71A0 49 B4           dw city1s_17
0444   71A2 49 B3           dw city1s_14
0445   71A4 92 B5           dw city1s_21
0446   71A6 49 B5           dw city1s_20
0447   71A8 00 B5           dw city1s_19
0448   71AA 92 B4           dw city1s_18
0449   71AC 92 B1           dw city1s_9
0450   71AE 49 B1           dw city1s_8
0451   71B0 00 B1           dw city1s_7
0452   71B2 92 B0           dw city1s_6
0453   71B4 00 B2           dw city1s_10
0454   71B6 25 B2           dw city1s_11
0455   71B8 6E B2           dw city1s_12
0456   71BA 00 B3           dw city1s_13
0457   71BC                 ; 270 //----------------------------------------------------------------------------------------------------------------------
0458   71BC                 ; 271 // Управление игроком и анимация игрока.
0459   71BC                 ; 273 const int sprite_raistlin_left       = &city1s_0;
0460   71BC                 ; 274 const int sprite_raistlin_left_step  = &city1s_1;
0461   71BC                 ; 275 const int sprite_raistlin_right      = &city1s_3;
0462   71BC                 ; 276 const int sprite_raistlin_right_step = &city1s_4;
0463   71BC                 ; 278 void processPlayer()
0464   71BC             processPlayer: 
0465   71BC                 ; 279 {
0466   71BC                 ; 280 if (*(hl = &gKeyTrigger) & KEY_FIRE)
0467   71BC 21 B9 60        ld   hl, gKeyTrigger
0468   71BF CB 66           bit  4, (hl)
0469   71C1                 ; 281 {
0470   71C1 CA 03 72        jp   z, l2020
0471   71C4                 ; 282 *hl = 0;
0472   71C4 36 00           ld   (hl), 0
0473   71C6                 ; 283 // На двух видеостраницах должно быть идентичное изображение, причем активной должна быть вторая видеостраница
0474   71C6                 ; 284 hl = &gVideoPage;
0475   71C6 21 B7 60        ld   hl, gVideoPage
0476   71C9                 ; 285 while ((a = *hl) & 1);
0477   71C9             l2021: 
0478   71C9 7E              ld   a, (hl)
0479   71CA CB 47           bit  0, a
0480   71CC CA D2 71        jp   z, l2022
0481   71CF C3 C9 71        jp   l2021
0482   71D2             l2022: 
0483   71D2                 ; 286 if (flag_z a & 8)
0484   71D2 CB 5F           bit  3, a
0485   71D4                 ; 287 {
0486   71D4 C2 EC 71        jp   nz, l2023
0487   71D7                 ; 288 gBeginDraw();
0488   71D7 CD 8A 60        call gBeginDraw
0489   71DA                 ; 289 cityDraw();
0490   71DA CD 91 72        call cityDraw
0491   71DD                 ; 290 gEndDraw();
0492   71DD CD 8D 60        call gEndDraw
0493   71E0                 ; 291 hl = &gVideoPage;
0494   71E0 21 B7 60        ld   hl, gVideoPage
0495   71E3                 ; 292 while ((a = *hl) & 1);
0496   71E3             l2024: 
0497   71E3 7E              ld   a, (hl)
0498   71E4 CB 47           bit  0, a
0499   71E6 CA EC 71        jp   z, l2025
0500   71E9 C3 E3 71        jp   l2024
0501   71EC             l2025: 
0502   71EC                 ; 293 }
0503   71EC                 ; 295 // Переход к магазину
0504   71EC                 ; 296 gFarCall(iyl = 6, ix = 0xC000);
0505   71EC             l2023: 
0506   71EC FD 2E 06        ld   iyl, 6
0507   71EF DD 21 00 C0     ld   ix, 49152
0508   71F3 CD 81 60        call gFarCall
0509   71F6                 ; 298 // Перерисовать всё
0510   71F6                 ; 299 cityInvalidate(hl = cacheAddr1);
0511   71F6 21 00 5B        ld   hl, 23296
0512   71F9 CD F1 70        call cityInvalidate
0513   71FC                 ; 300 cityInvalidate(hl = cacheAddr2);
0514   71FC 21 00 DB        ld   hl, 56064
0515   71FF CD F1 70        call cityInvalidate
0516   7202                 ; 301 return;
0517   7202 C9              ret
0518   7203                 ; 302 }
0519   7203                 ; 304 b = a = gKeyPressed;
0520   7203             l2020: 
0521   7203 3A BA 60        ld   a, (gKeyPressed)
0522   7206 47              ld   b, a
0523   7207                 ; 305 c = a = cityPlayerDirection;
0524   7207 3A 05 70        ld   a, (cityPlayerDirection)
0525   720A 4F              ld   c, a
0526   720B                 ; 306 a = cityPlayerX;
0527   720B 3A 03 70        ld   a, (cityPlayerX)
0528   720E                 ; 307 if (b & KEY_LEFT)
0529   720E CB 50           bit  2, b
0530   7210                 ; 308 {
0531   7210 CA 49 72        jp   z, l2026
0532   7213                 ; 309 if (c & 1)
0533   7213 CB 41           bit  0, c
0534   7215                 ; 310 {            
0535   7215 CA 20 72        jp   z, l2027
0536   7218                 ; 311 cityPlayerDirection = (a ^= a);
0537   7218 AF              xor  a
0538   7219 32 05 70        ld   (cityPlayerDirection), a
0539   721C                 ; 312 c = a;
0540   721C 4F              ld   c, a
0541   721D                 ; 313 }
0542   721D                 ; 314 else
0543   721D C3 46 72        jp   l2028
0544   7220             l2027: 
0545   7220                 ; 315 {
0546   7220                 ; 316 a -= 1;
0547   7220 D6 01           sub  1
0548   7222                 ; 317 if (flag_nc)
0549   7222                 ; 318 {
0550   7222 DA 46 72        jp   c, l2029
0551   7225                 ; 319 cityPlayerX = a;
0552   7225 32 03 70        ld   (cityPlayerX), a
0553   7228                 ; 321 // Прокрутка экрана
0554   7228                 ; 322 a -= [viewWidth / 2]; if (flag_nc) if (a < [mapWidth - viewWidth / 2 * 2 + 1]) { cityScrollX = a; } //! Почему нельзя без {} ?
0555   7228 D6 10           sub  16
0556   722A DA 35 72        jp   c, l2030
0557   722D FE E1           cp   225
0558   722F D2 35 72        jp   nc, l2031
0559   7232 32 04 70        ld   (cityScrollX), a
0560   7235                 ; 324 hl = sprite_raistlin_left;
0561   7235             l2031: 
0562   7235             l2030: 
0563   7235 21 00 AF        ld   hl, city1s_0
0564   7238                 ; 325 if ((a = cityPlayerSprite) == l) hl = sprite_raistlin_left_step;
0565   7238 3A 06 70        ld   a, (cityPlayerSprite)
0566   723B BD              cp   l
0567   723C C2 42 72        jp   nz, l2032
0568   723F 21 25 AF        ld   hl, city1s_1
0569   7242                 ; 326 cityPlayerSprite = hl;
0570   7242             l2032: 
0571   7242 22 06 70        ld   (cityPlayerSprite), hl
0572   7245                 ; 327 return;
0573   7245 C9              ret
0574   7246                 ; 328 }
0575   7246                 ; 329 }
0576   7246             l2029: 
0577   7246             l2028: 
0578   7246                 ; 330 }
0579   7246                 ; 331 else if (b & KEY_RIGHT)
0580   7246 C3 82 72        jp   l2033
0581   7249             l2026: 
0582   7249 CB 58           bit  3, b
0583   724B                 ; 332 {
0584   724B CA 82 72        jp   z, l2034
0585   724E                 ; 333 if (flag_z c & 1)
0586   724E CB 41           bit  0, c
0587   7250                 ; 334 {
0588   7250 C2 5C 72        jp   nz, l2035
0589   7253                 ; 335 cityPlayerDirection = (a = 1);
0590   7253 3E 01           ld   a, 1
0591   7255 32 05 70        ld   (cityPlayerDirection), a
0592   7258                 ; 336 c = a;
0593   7258 4F              ld   c, a
0594   7259                 ; 337 }
0595   7259                 ; 338 else
0596   7259 C3 82 72        jp   l2036
0597   725C             l2035: 
0598   725C                 ; 339 {
0599   725C                 ; 340 a += 1;
0600   725C C6 01           add  1
0601   725E                 ; 341 if (flag_nc)
0602   725E                 ; 342 {
0603   725E DA 82 72        jp   c, l2037
0604   7261                 ; 343 cityPlayerX = a;
0605   7261 32 03 70        ld   (cityPlayerX), a
0606   7264                 ; 345 // Прокрутка экрана
0607   7264                 ; 346 a -= [viewWidth / 2]; if (flag_nc) if (a < [mapWidth - viewWidth / 2 * 2 + 1]) { cityScrollX = a; }  //! Почему нельзя без {} ?
0608   7264 D6 10           sub  16
0609   7266 DA 71 72        jp   c, l2038
0610   7269 FE E1           cp   225
0611   726B D2 71 72        jp   nc, l2039
0612   726E 32 04 70        ld   (cityScrollX), a
0613   7271                 ; 348 hl = sprite_raistlin_right;
0614   7271             l2039: 
0615   7271             l2038: 
0616   7271 21 B7 AF        ld   hl, city1s_3
0617   7274                 ; 349 if ((a = cityPlayerSprite) == l) hl = sprite_raistlin_right_step;
0618   7274 3A 06 70        ld   a, (cityPlayerSprite)
0619   7277 BD              cp   l
0620   7278 C2 7E 72        jp   nz, l2040
0621   727B 21 00 B0        ld   hl, city1s_4
0622   727E                 ; 350 cityPlayerSprite = hl;
0623   727E             l2040: 
0624   727E 22 06 70        ld   (cityPlayerSprite), hl
0625   7281                 ; 351 return;
0626   7281 C9              ret
0627   7282                 ; 352 }
0628   7282                 ; 353 }
0629   7282             l2037: 
0630   7282             l2036: 
0631   7282                 ; 354 }
0632   7282                 ; 356 // Убираем анимацию шага, если ни одна клавиша не нажата
0633   7282                 ; 357 hl = sprite_raistlin_left;
0634   7282             l2034: 
0635   7282             l2033: 
0636   7282 21 00 AF        ld   hl, city1s_0
0637   7285                 ; 358 if (c & 1) hl = sprite_raistlin_right;
0638   7285 CB 41           bit  0, c
0639   7287 CA 8D 72        jp   z, l2041
0640   728A 21 B7 AF        ld   hl, city1s_3
0641   728D                 ; 359 cityPlayerSprite = hl;
0642   728D             l2041: 
0643   728D 22 06 70        ld   (cityPlayerSprite), hl
0644   7290                 ; 360 }
0645   7290 C9              ret
0646   7291                 ; 362 //----------------------------------------------------------------------------------------------------------------------
0647   7291                 ; 364 void cityDraw()
0648   7291             cityDraw: 
0649   7291                 ; 365 {
0650   7291                 ; 366 // Оценка времени
0651   7291                 ; 367 //startFrame = a = gFrame;
0652   7291                 ; 369 // Обновить панель
0653   7291                 ; 370 gPanelRedraw();
0654   7291 CD 93 60        call gPanelRedraw
0655   7294                 ; 372 // Адрес карты / и сточник
0656   7294                 ; 373 d` = [&city1Map >> 8];
0657   7294 16 7E           ld   d, (city1Map) >> (8)
0658   7296                 ; 374 e` = a = cityScrollX;
0659   7296 3A 04 70        ld   a, (cityScrollX)
0660   7299 5F              ld   e, a
0661   729A                 ; 375 b` = e`;
0662   729A 43              ld   b, e
0663   729B                 ; 377 // Адрес видеостраницы / назначение
0664   729B                 ; 378 if (flag_z (a = gVideoPage) &= 0x80)
0665   729B 3A B7 60        ld   a, (gVideoPage)
0666   729E E6 80           and  128
0667   72A0                 ; 379 {
0668   72A0 C2 B0 72        jp   nz, l2042
0669   72A3                 ; 380 hl` = [cacheAddr1 - 1];
0670   72A3 21 FF 5A        ld   hl, 23295
0671   72A6                 ; 381 ex(bc, de, hl);
0672   72A6 D9              exx
0673   72A7                 ; 382 de = screenAddr1;
0674   72A7 11 00 40        ld   de, 16384
0675   72AA                 ; 383 bc = screenAttrAddr1;
0676   72AA 01 00 58        ld   bc, 22528
0677   72AD                 ; 384 }
0678   72AD                 ; 385 else
0679   72AD C3 BA 72        jp   l2043
0680   72B0             l2042: 
0681   72B0                 ; 386 {
0682   72B0                 ; 387 hl` = [cacheAddr2 - 1];
0683   72B0 21 FF DA        ld   hl, 56063
0684   72B3                 ; 388 ex(bc, de, hl);
0685   72B3 D9              exx
0686   72B4                 ; 389 de = screenAddr2;
0687   72B4 11 00 C0        ld   de, 49152
0688   72B7                 ; 390 bc = screenAttrAddr2;
0689   72B7 01 00 D8        ld   bc, 55296
0690   72BA                 ; 391 }
0691   72BA             l2043: 
0692   72BA                 ; 393 // Цикл строк
0693   72BA                 ; 394 ixh = viewHeight;
0694   72BA DD 26 14        ld   ixh, 20
0695   72BD                 ; 395 do
0696   72BD             l2044: 
0697   72BD                 ; 396 {
0698   72BD                 ; 397 // Сохранение адреса вывода
0699   72BD                 ; 398 iy = de;
0700   72BD FD 62           ld   iyh, d
0701   72BF FD 6B           ld   iyl, e
0702   72C1                 ; 400 // Цикл стобцов
0703   72C1                 ; 401 ixl = viewWidth;
0704   72C1 DD 2E 20        ld   ixl, 32
0705   72C4                 ; 402 do
0706   72C4             l2046: 
0707   72C4                 ; 403 {
0708   72C4                 ; 404 optimize0:  // Чтение номера тейла из карты уровня
0709   72C4             optimize0: 
0710   72C4                 ; 405 ex(bc, de, hl);
0711   72C4 D9              exx
0712   72C5                 ; 406 hl`++;
0713   72C5 23              inc  hl
0714   72C6                 ; 407 c` = *hl;
0715   72C6 4E              ld   c, (hl)
0716   72C7                 ; 408 a = *de`;
0717   72C7 1A              ld   a, (de)
0718   72C8                 ; 409 if (a == c`) goto optimize1;
0719   72C8 B9              cp   c
0720   72C9 CA 1C 73        jp   z, optimize1
0721   72CC                 ; 410 if (flag_z c`++) goto optimize3;
0722   72CC 0C              inc  c
0723   72CD CA 19 73        jp   z, optimize3
0724   72D0                 ; 411 e`++;
0725   72D0 1C              inc  e
0726   72D1                 ; 412 *hl` = a;
0727   72D1 77              ld   (hl), a
0728   72D2                 ; 413 ex(bc, de, hl);
0729   72D2 D9              exx
0730   72D3                 ; 415 // Вычисление адреса тейла
0731   72D3                 ; 416 h = [&city1Tails >> 8];
0732   72D3 26 75           ld   h, (city1Tails) >> (8)
0733   72D5                 ; 417 l = a;
0734   72D5 6F              ld   l, a
0735   72D6                 ; 419 // Вывод на экран
0736   72D6                 ; 420 a = *hl; h++; *de = a; d++;
0737   72D6 7E              ld   a, (hl)
0738   72D7 24              inc  h
0739   72D8 12              ld   (de), a
0740   72D9 14              inc  d
0741   72DA                 ; 421 a = *hl; h++; *de = a; d++;
0742   72DA 7E              ld   a, (hl)
0743   72DB 24              inc  h
0744   72DC 12              ld   (de), a
0745   72DD 14              inc  d
0746   72DE                 ; 422 a = *hl; h++; *de = a; d++;
0747   72DE 7E              ld   a, (hl)
0748   72DF 24              inc  h
0749   72E0 12              ld   (de), a
0750   72E1 14              inc  d
0751   72E2                 ; 423 a = *hl; h++; *de = a; d++;
0752   72E2 7E              ld   a, (hl)
0753   72E3 24              inc  h
0754   72E4 12              ld   (de), a
0755   72E5 14              inc  d
0756   72E6                 ; 424 a = *hl; h++; *de = a; d++;
0757   72E6 7E              ld   a, (hl)
0758   72E7 24              inc  h
0759   72E8 12              ld   (de), a
0760   72E9 14              inc  d
0761   72EA                 ; 425 a = *hl; h++; *de = a; d++;
0762   72EA 7E              ld   a, (hl)
0763   72EB 24              inc  h
0764   72EC 12              ld   (de), a
0765   72ED 14              inc  d
0766   72EE                 ; 426 a = *hl; h++; *de = a; d++;
0767   72EE 7E              ld   a, (hl)
0768   72EF 24              inc  h
0769   72F0 12              ld   (de), a
0770   72F1 14              inc  d
0771   72F2                 ; 427 a = *hl; h++; *de = a;
0772   72F2 7E              ld   a, (hl)
0773   72F3 24              inc  h
0774   72F4 12              ld   (de), a
0775   72F5                 ; 428 a = *hl;      *bc = a; bc++;
0776   72F5 7E              ld   a, (hl)
0777   72F6 02              ld   (bc), a
0778   72F7 03              inc  bc
0779   72F8                 ; 430 d = iyh;
0780   72F8 FD 54           ld   d, iyh
0781   72FA                 ; 431 e++;
0782   72FA 1C              inc  e
0783   72FB                 ; 432 ixl--;
0784   72FB DD 2D           dec  ixl
0785   72FD                 ; 433 } while(flag_nz);
0786   72FD C2 C4 72        jp   nz, l2046
0787   7300             l2047: 
0788   7300                 ; 434 optimize2:
0789   7300             optimize2: 
0790   7300                 ; 436 // Следующая строка карты
0791   7300                 ; 437 ex(bc, de, hl);
0792   7300 D9              exx
0793   7301                 ; 438 e` = b`;
0794   7301 58              ld   e, b
0795   7302                 ; 439 d`++;
0796   7302 14              inc  d
0797   7303                 ; 440 ex(bc, de, hl);
0798   7303 D9              exx
0799   7304                 ; 442 // Адрес следующей чб строки на экране
0800   7304                 ; 443 e = ((a = iyl) += 0x20);
0801   7304 FD 7D           ld   a, iyl
0802   7306 C6 20           add  32
0803   7308 5F              ld   e, a
0804   7309                 ; 444 if (flag_c) d = ((a = d) += 0x08);
0805   7309 D2 10 73        jp   nc, l2048
0806   730C 7A              ld   a, d
0807   730D C6 08           add  8
0808   730F 57              ld   d, a
0809   7310                 ; 446 ixh--;
0810   7310             l2048: 
0811   7310 DD 25           dec  ixh
0812   7312                 ; 447 } while(flag_nz);
0813   7312 C2 BD 72        jp   nz, l2044
0814   7315             l2045: 
0815   7315                 ; 449 drawSprites();
0816   7315 CD 29 73        call drawSprites
0817   7318                 ; 451 // Оценка времени
0818   7318                 ; 452 //printDelay((a = gFrame) -= *(hl = &startFrame));
0819   7318                 ; 454 return;
0820   7318 C9              ret
0821   7319                 ; 455 optimize3:
0822   7319             optimize3: 
0823   7319                 ; 456 *hl` = a = 254;
0824   7319 3E FE           ld   a, 254
0825   731B 77              ld   (hl), a
0826   731C                 ; 457 optimize1:
0827   731C             optimize1: 
0828   731C                 ; 458 e`++;
0829   731C 1C              inc  e
0830   731D                 ; 459 ex(bc, de, hl);
0831   731D D9              exx
0832   731E                 ; 460 bc++;
0833   731E 03              inc  bc
0834   731F                 ; 461 e++;
0835   731F 1C              inc  e
0836   7320                 ; 462 ixl--;
0837   7320 DD 2D           dec  ixl
0838   7322                 ; 463 if(flag_nz) goto optimize0;
0839   7322 C2 C4 72        jp   nz, optimize0
0840   7325                 ; 464 goto optimize2;
0841   7325 C3 00 73        jp   optimize2
0842   7328                 ; 465 }
0843   7328 C9              ret
0844   7329                 ; 467 void drawSprites()
0845   7329             drawSprites: 
0846   7329                 ; 468 {
0847   7329                 ; 469 a = gVideoPage;
0848   7329 3A B7 60        ld   a, (gVideoPage)
0849   732C                 ; 470 if (a & 8) ixh = [screenAddr1 >> 8];
0850   732C CB 5F           bit  3, a
0851   732E CA 37 73        jp   z, l2049
0852   7331 DD 26 40        ld   ixh, 64
0853   7334                 ; 471 else ixh = [screenAddr2 >> 8];
0854   7334 C3 3A 73        jp   l2050
0855   7337             l2049: 
0856   7337 DD 26 C0        ld   ixh, 192
0857   733A             l2050: 
0858   733A                 ; 473 // const int npc_timer      = 0;
0859   733A                 ; 474 // const int npc_direction  = 1;
0860   733A                 ; 475 // const int npc_step       = 2;
0861   733A                 ; 476 // const int npc_position   = 3;
0862   733A                 ; 477 // const int npc_sprite_l   = 4;
0863   733A                 ; 478 // const int npc_sprite_h   = 5;
0864   733A                 ; 479 // const int npc_sizeof     = 6;
0865   733A                 ; 481 // Спрайты
0866   733A                 ; 482 hl = [&npc + npc_position];
0867   733A 21 0D 70        ld   hl, (npc) + (3)
0868   733D                 ; 483 b = a = npcCount;
0869   733D 3A 09 70        ld   a, (npcCount)
0870   7340 47              ld   b, a
0871   7341                 ; 484 c = (a = cityScrollX); c--;
0872   7341 3A 04 70        ld   a, (cityScrollX)
0873   7344 4F              ld   c, a
0874   7345 0D              dec  c
0875   7346                 ; 485 de = npc_sizeof;
0876   7346 11 04 00        ld   de, 4
0877   7349                 ; 486 do
0878   7349             l2051: 
0879   7349                 ; 487 {
0880   7349                 ; 488 // Если спрайт за экраном, то не рисуем его
0881   7349                 ; 489 if (((a = *hl) -= c) < [viewWidth + 1]) //! для const int можно <=
0882   7349 7E              ld   a, (hl)
0883   734A 91              sub  c
0884   734B FE 21           cp   33
0885   734D                 ; 490 {
0886   734D D2 75 73        jp   nc, l2053
0887   7350                 ; 491 push(bc, de, hl)
0888   7350                 ; 492 {
0889   7350 C5              push bc
0890   7351 D5              push de
0891   7352 E5              push hl
0892   7353                 ; 493 c = --a; // Для drawSprite
0893   7353 3D              dec  a
0894   7354 4F              ld   c, a
0895   7355                 ; 495 // Цвет {
0896   7355                 ; 496 a = b;
0897   7355 78              ld   a, b
0898   7356                 ; 497 while(a >= 14) a -= 14;
0899   7356             l2054: 
0900   7356 FE 0E           cp   14
0901   7358 DA 60 73        jp   c, l2055
0902   735B D6 0E           sub  14
0903   735D C3 56 73        jp   l2054
0904   7360             l2055: 
0905   7360                 ; 498 if (a >= 7) a += [0x40 - 7]; a++;
0906   7360 FE 07           cp   7
0907   7362 DA 67 73        jp   c, l2056
0908   7365 C6 39           add  57
0909   7367             l2056: 
0910   7367 3C              inc  a
0911   7368                 ; 499 iyh = a;
0912   7368 FD 67           ld   iyh, a
0913   736A                 ; 500 // }
0914   736A                 ; 502 getNpcSprite(hl);
0915   736A CD 88 71        call getNpcSprite
0916   736D                 ; 503 b = cityRoadY;
0917   736D 06 0D           ld   b, 13
0918   736F                 ; 504 drawSprite();
0919   736F CD 91 73        call drawSprite
0920   7372                 ; 505 }
0921   7372 E1              pop  hl
0922   7373 D1              pop  de
0923   7374 C1              pop  bc
0924   7375                 ; 506 }
0925   7375                 ; 507 hl += de;
0926   7375             l2053: 
0927   7375 19              add  hl, de
0928   7376                 ; 508 } while(--b);
0929   7376 10 D1           djnz l2051
0930   7378             l2052: 
0931   7378                 ; 510 // Рисование игрока
0932   7378                 ; 511 b = cityRoadY;
0933   7378 06 0D           ld   b, 13
0934   737A                 ; 512 c++;
0935   737A 0C              inc  c
0936   737B                 ; 513 c = ((a = cityPlayerX) -= c);
0937   737B 3A 03 70        ld   a, (cityPlayerX)
0938   737E 91              sub  c
0939   737F 4F              ld   c, a
0940   7380                 ; 514 hl = cityPlayerSprite;
0941   7380 2A 06 70        ld   hl, (cityPlayerSprite)
0942   7383                 ; 515 if ((a = l) == &city1s_1) c--;
0943   7383 7D              ld   a, l
0944   7384 FE 25           cp   city1s_1
0945   7386 C2 8A 73        jp   nz, l2057
0946   7389 0D              dec  c
0947   738A                 ; 516 iyh = 0;
0948   738A             l2057: 
0949   738A FD 26 00        ld   iyh, 0
0950   738D                 ; 517 drawSprite(bc, de, hl);
0951   738D CD 91 73        call drawSprite
0952   7390                 ; 518 }
0953   7390 C9              ret
0954   7391                 ; 520 // Вывод спрайта
0955   7391                 ; 521 // c - координата X (от -1 до 31)
0956   7391                 ; 522 // b - координата Y (от 0 до 23)
0957   7391                 ; 523 // hl - спрайт
0958   7391                 ; 525 void drawSprite(bc, hl, ixh, iyh)
0959   7391             drawSprite: 
0960   7391                 ; 526 {
0961   7391                 ; 527 // Читаем ширину спрайта
0962   7391                 ; 528 d = *hl; l++;
0963   7391 56              ld   d, (hl)
0964   7392 2C              inc  l
0965   7393                 ; 530 // Если спрайт за левым краем экрана
0966   7393                 ; 531 if (c & 0x80) //! Можно оптимизировать
0967   7393 CB 79           bit  7, c
0968   7395                 ; 532 do
0969   7395 CA A4 73        jp   z, l2058
0970   7398             l2059: 
0971   7398                 ; 533 {
0972   7398                 ; 534 l = ((a = l) += [4 * 9]);
0973   7398 7D              ld   a, l
0974   7399 C6 24           add  36
0975   739B 6F              ld   l, a
0976   739C                 ; 535 c++;
0977   739C 0C              inc  c
0978   739D                 ; 536 d--;
0979   739D 15              dec  d
0980   739E                 ; 537 if (flag_z) return;
0981   739E C8              ret  z
0982   739F                 ; 538 } while (c & 0x80);
0983   739F CB 79           bit  7, c
0984   73A1 C2 98 73        jp   nz, l2059
0985   73A4             l2060: 
0986   73A4                 ; 540 // Если спрайт за правым краем экрана
0987   73A4                 ; 541 (a = viewWidth) -= c;
0988   73A4             l2058: 
0989   73A4 3E 20           ld   a, 32
0990   73A6 91              sub  c
0991   73A7                 ; 542 if (flag_c) return;
0992   73A7 D8              ret  c
0993   73A8                 ; 543 if (flag_z) return;
0994   73A8 C8              ret  z
0995   73A9                 ; 544 if (a < d) d = a;
0996   73A9 BA              cp   d
0997   73AA D2 AE 73        jp   nc, l2061
0998   73AD 57              ld   d, a
0999   73AE                 ; 545 iyl = d;
1000   73AE             l2061: 
1001   73AE FD 6A           ld   iyl, d
1002   73B0                 ; 547 // Вычисление координаты
1003   73B0                 ; 548 //       43210    43210
1004   73B0                 ; 549 // de .1.43... 210.....
1005   73B0                 ; 550 // bc .1.11.43 210.....
1006   73B0                 ; 551 d = (((a = b) &= 0x18) |= ixh);
1007   73B0 78              ld   a, b
1008   73B1 E6 18           and  24
1009   73B3 DD B4           or   ixh
1010   73B5 57              ld   d, a
1011   73B6                 ; 552 a = b;
1012   73B6 78              ld   a, b
1013   73B7                 ; 553 a >>r= 3;
1014   73B7 0F              rrca
1015   73B8 0F              rrca
1016   73B9 0F              rrca
1017   73BA                 ; 554 b = a;
1018   73BA 47              ld   b, a
1019   73BB                 ; 555 c = e = ((a &= 0xE0) |= c);
1020   73BB E6 E0           and  224
1021   73BD B1              or   c
1022   73BE 5F              ld   e, a
1023   73BF 4B              ld   c, e
1024   73C0                 ; 556 b = ((((a = b) &= 0x03) |= 0x18) |= ixh);
1025   73C0 78              ld   a, b
1026   73C1 E6 03           and  3
1027   73C3 F6 18           or   24
1028   73C5 DD B4           or   ixh
1029   73C7 47              ld   b, a
1030   73C8                 ; 558 while()
1031   73C8             l2062: 
1032   73C8                 ; 559 {
1033   73C8                 ; 560 push(bc, de)
1034   73C8                 ; 561 {
1035   73C8 C5              push bc
1036   73C9 D5              push de
1037   73CA                 ; 562 drawSprite1(bc, de, hl);
1038   73CA CD 17 74        call drawSprite1
1039   73CD                 ; 563 c = ((a = c) += 32); b = ((a +@= b) -= c); // 27
1040   73CD 79              ld   a, c
1041   73CE C6 20           add  32
1042   73D0 4F              ld   c, a
1043   73D1 88              adc  b
1044   73D2 91              sub  c
1045   73D3 47              ld   b, a
1046   73D4                 ; 564 e = ((a = e) += 32); if (flag_c) d = ((a = d) += 0x08); // 25
1047   73D4 7B              ld   a, e
1048   73D5 C6 20           add  32
1049   73D7 5F              ld   e, a
1050   73D8 D2 DF 73        jp   nc, l2064
1051   73DB 7A              ld   a, d
1052   73DC C6 08           add  8
1053   73DE 57              ld   d, a
1054   73DF                 ; 565 drawSprite1(bc, de, hl);
1055   73DF             l2064: 
1056   73DF CD 17 74        call drawSprite1
1057   73E2                 ; 566 c = ((a = c) += 32); b = ((a +@= b) -= c); // 27
1058   73E2 79              ld   a, c
1059   73E3 C6 20           add  32
1060   73E5 4F              ld   c, a
1061   73E6 88              adc  b
1062   73E7 91              sub  c
1063   73E8 47              ld   b, a
1064   73E9                 ; 567 e = ((a = e) += 32); if (flag_c) d = ((a = d) += 0x08); // 25
1065   73E9 7B              ld   a, e
1066   73EA C6 20           add  32
1067   73EC 5F              ld   e, a
1068   73ED D2 F4 73        jp   nc, l2065
1069   73F0 7A              ld   a, d
1070   73F1 C6 08           add  8
1071   73F3 57              ld   d, a
1072   73F4                 ; 568 drawSprite1(bc, de, hl);
1073   73F4             l2065: 
1074   73F4 CD 17 74        call drawSprite1
1075   73F7                 ; 569 c = ((a = c) += 32); b = ((a +@= b) -= c); // 27
1076   73F7 79              ld   a, c
1077   73F8 C6 20           add  32
1078   73FA 4F              ld   c, a
1079   73FB 88              adc  b
1080   73FC 91              sub  c
1081   73FD 47              ld   b, a
1082   73FE                 ; 570 e = ((a = e) += 32); if (flag_c) d = ((a = d) += 0x08); // 25
1083   73FE 7B              ld   a, e
1084   73FF C6 20           add  32
1085   7401 5F              ld   e, a
1086   7402 D2 09 74        jp   nc, l2066
1087   7405 7A              ld   a, d
1088   7406 C6 08           add  8
1089   7408 57              ld   d, a
1090   7409                 ; 571 drawSprite1(bc, de, hl);
1091   7409             l2066: 
1092   7409 CD 17 74        call drawSprite1
1093   740C                 ; 572 }
1094   740C D1              pop  de
1095   740D C1              pop  bc
1096   740E                 ; 573 iyl--;
1097   740E FD 2D           dec  iyl
1098   7410                 ; 574 if (flag_z) return;
1099   7410 C8              ret  z
1100   7411                 ; 575 c++;
1101   7411 0C              inc  c
1102   7412                 ; 576 e++;
1103   7412 1C              inc  e
1104   7413                 ; 577 };
1105   7413 C3 C8 73        jp   l2062
1106   7416             l2063: 
1107   7416                 ; 578 }
1108   7416 C9              ret
1109   7417                 ; 580 void drawSprite1(de, bc, hl)
1110   7417             drawSprite1: 
1111   7417                 ; 581 {
1112   7417                 ; 582 ixl = d;
1113   7417 DD 6A           ld   ixl, d
1114   7419                 ; 583 *de = ((a = *de) |= *hl); l++; d++;
1115   7419 1A              ld   a, (de)
1116   741A B6              or   (hl)
1117   741B 12              ld   (de), a
1118   741C 2C              inc  l
1119   741D 14              inc  d
1120   741E                 ; 584 *de = ((a = *de) |= *hl); l++; d++;
1121   741E 1A              ld   a, (de)
1122   741F B6              or   (hl)
1123   7420 12              ld   (de), a
1124   7421 2C              inc  l
1125   7422 14              inc  d
1126   7423                 ; 585 *de = ((a = *de) |= *hl); l++; d++;
1127   7423 1A              ld   a, (de)
1128   7424 B6              or   (hl)
1129   7425 12              ld   (de), a
1130   7426 2C              inc  l
1131   7427 14              inc  d
1132   7428                 ; 586 *de = ((a = *de) |= *hl); l++; d++;
1133   7428 1A              ld   a, (de)
1134   7429 B6              or   (hl)
1135   742A 12              ld   (de), a
1136   742B 2C              inc  l
1137   742C 14              inc  d
1138   742D                 ; 587 *de = ((a = *de) |= *hl); l++; d++;
1139   742D 1A              ld   a, (de)
1140   742E B6              or   (hl)
1141   742F 12              ld   (de), a
1142   7430 2C              inc  l
1143   7431 14              inc  d
1144   7432                 ; 588 *de = ((a = *de) |= *hl); l++; d++;
1145   7432 1A              ld   a, (de)
1146   7433 B6              or   (hl)
1147   7434 12              ld   (de), a
1148   7435 2C              inc  l
1149   7436 14              inc  d
1150   7437                 ; 589 *de = ((a = *de) |= *hl); l++; d++;
1151   7437 1A              ld   a, (de)
1152   7438 B6              or   (hl)
1153   7439 12              ld   (de), a
1154   743A 2C              inc  l
1155   743B 14              inc  d
1156   743C                 ; 590 *de = ((a = *de) |= *hl); l++;
1157   743C 1A              ld   a, (de)
1158   743D B6              or   (hl)
1159   743E 12              ld   (de), a
1160   743F 2C              inc  l
1161   7440                 ; 591 a = *hl; if (a == 0x45) a = iyh; *bc = a; l++;
1162   7440 7E              ld   a, (hl)
1163   7441 FE 45           cp   69
1164   7443 C2 48 74        jp   nz, l2067
1165   7446 FD 7C           ld   a, iyh
1166   7448             l2067: 
1167   7448 02              ld   (bc), a
1168   7449 2C              inc  l
1169   744A                 ; 592 d = b; b++; b++; b++; *bc = a = 0xFE; b = d;
1170   744A 50              ld   d, b
1171   744B 04              inc  b
1172   744C 04              inc  b
1173   744D 04              inc  b
1174   744E 3E FE           ld   a, 254
1175   7450 02              ld   (bc), a
1176   7451 42              ld   b, d
1177   7452                 ; 594 // *de = a = *hl; l++; d++;
1178   7452                 ; 595 // *de = a = *hl; l++; d++;
1179   7452                 ; 596 // *de = a = *hl; l++; d++;
1180   7452                 ; 597 // *de = a = *hl; l++; d++;
1181   7452                 ; 598 // *de = a = *hl; l++; d++;
1182   7452                 ; 599 // *de = a = *hl; l++; d++;
1183   7452                 ; 600 // *de = a = *hl; l++; d++;
1184   7452                 ; 601 // *de = a = *hl; l++;
1185   7452                 ; 602 // *bc = a = *hl; l++;
1186   7452                 ; 603 // d = b; b++; b++; b++; *bc = a = 0xFF; b = d;
1187   7452                 ; 605 d = ixl;
1188   7452 DD 55           ld   d, ixl
1189   7454                 ; 606 }
1190   7454 C9              ret
1191   7455                 ; 608 /*
1192   7455             
0001   7455 ED 5F       rand:    LD    A, R
0002   7457 C6 00       rand_1:  ADD   0
0003   7459 32 5F 74            LD    (rand_2 + 1), A
0004   745C 87                  ADD   A
0005   745D 87                  ADD   A
0006   745E C6 00       rand_2:  ADD   0
0007   7460 3C                  INC   A
0008   7461 32 58 74            LD    (rand_1 + 1), A
0009   7464 C9                  RET
0010   7465             
0001   7465 00             ds (10000h - $) & 0FFh
0002   7500             
0003   7500             city1Tails:  ; count 255
0004   7500                 db 000h, 0ECh, 0ECh, 0ECh, 0ECh, 0ECh, 0FFh, 0FFh, 0FFh, 0FFh, 0FFh, 0FFh, 0FFh, 0ECh, 000h, 0FCh
0004   7500 00ECECECECECFFFFFFFFFFFFFFEC00FC
0005   7510                 db 0B5h, 0DFh, 0B5h, 0F0h, 000h, 000h, 000h, 00Fh, 000h, 000h, 000h, 000h, 000h, 000h, 000h, 000h
0005   7510 B5DFB5F00000000F0000000000000000
0006   7520                 db 000h, 000h, 000h, 000h, 060h, 000h, 000h, 006h, 000h, 000h, 000h, 000h, 000h, 000h, 000h, 049h
0006   7520 00000000600000060000000000000049
0007   7530                 db 092h, 06Dh, 0B6h, 000h, 000h, 000h, 0AAh, 0C3h, 0C3h, 0C3h, 060h, 006h, 0ADh, 000h, 000h, 000h
0007   7530 926DB6000000AAC3C3C36006AD000000
0008   7540                 db 000h, 06Eh, 06Eh, 000h, 07Ch, 0B4h, 0FEh, 000h, 000h, 000h, 001h, 000h, 07Ch, 0DAh, 0FEh, 000h
0008   7540 006E6E007CB4FE00000001007CDAFE00
0009   7550                 db 007h, 00Dh, 01Fh, 000h, 0C0h, 0A0h, 0E0h, 000h, 03Eh, 02Dh, 07Fh, 000h, 03Eh, 05Bh, 07Fh, 000h
0009   7550 070D1F00C0A0E0003E2D7F003E5B7F00
0010   7560                 db 000h, 000h, 080h, 000h, 003h, 005h, 007h, 000h, 0E0h, 0B0h, 0F8h, 000h, 03Bh, 02Ah, 018h, 000h
0010   7560 0000800003050700E0B0F8003B2A1800
0011   7570                 db 00Eh, 005h, 01Dh, 000h, 0C0h, 080h, 0C0h, 000h, 003h, 002h, 00Eh, 000h, 0B0h, 0A0h, 038h, 000h
0011   7570 0E051D00C080C00003020E00B0A03800
0012   7580                 db 000h, 000h, 001h, 000h, 0ECh, 0D0h, 0D8h, 000h, 06Eh, 02Ah, 00Ch, 000h, 01Bh, 005h, 00Dh, 000h
0012   7580 00000100ECD0D8006E2A0C001B050D00
0013   7590                 db 080h, 080h, 0C0h, 000h, 006h, 002h, 00Eh, 000h, 0E0h, 0A0h, 038h, 000h, 001h, 000h, 001h, 000h
0013   7590 8080C00006020E00E0A0380001000100
0014   75A0                 db 0B8h, 0D0h, 0DCh, 000h, 01Eh, 06Dh, 00Eh, 000h, 003h, 00Eh, 01Ch, 000h, 0C0h, 0D0h, 0E0h, 000h
0014   75A0 B8D0DC001E6D0E00030E1C00C0D0E000
0015   75B0                 db 078h, 0B6h, 070h, 000h, 003h, 00Bh, 007h, 000h, 0C0h, 070h, 038h, 000h, 000h, 000h, 000h, 000h
0015   75B0 78B67000030B0700C070380000000000
0016   75C0                 db 000h, 000h, 000h, 000h, 000h, 000h, 000h, 000h, 000h, 000h, 000h, 000h, 000h, 000h, 000h, 000h
0016   75C0 00000000000000000000000000000000
0017   75D0                 db 000h, 000h, 000h, 000h, 000h, 000h, 000h, 000h, 000h, 000h, 000h, 000h, 000h, 000h, 000h, 000h
0017   75D0 00000000000000000000000000000000
0018   75E0                 db 000h, 000h, 000h, 000h, 000h, 000h, 000h, 000h, 000h, 000h, 000h, 000h, 000h, 000h, 000h, 000h
0018   75E0 00000000000000000000000000000000
0019   75F0                 db 000h, 000h, 000h, 000h, 000h, 000h, 000h, 000h, 000h, 000h, 000h, 000h, 000h, 000h, 000h, 000h
0019   75F0 00000000000000000000000000000000
0020   7600                 db 000h, 0C1h, 0C1h, 0E1h, 0E1h, 0E1h, 0FFh, 0FFh, 0FFh, 0FFh, 0FFh, 0FFh, 0FFh, 0C1h, 000h, 0F9h
0020   7600 00C1C1E1E1E1FFFFFFFFFFFFFFC100F9
0021   7610                 db 097h, 0DFh, 097h, 0F7h, 0FFh, 0FFh, 0FFh, 0EFh, 07Fh, 0FFh, 0FFh, 0FEh, 07Fh, 0FFh, 0FFh, 0FEh
0021   7610 97DF97F7FFFFFFEF7FFFFFFE7FFFFFFE
0022   7620                 db 07Fh, 0FFh, 0FFh, 0FEh, 06Fh, 0FFh, 0FFh, 0F6h, 07Fh, 0FEh, 06Dh, 0B6h, 0F6h, 06Fh, 0FFh, 055h
0022   7620 7FFFFFFE6FFFFFF67FFE6DB6F66FFF55
0023   7630                 db 0AAh, 06Dh, 0B6h, 000h, 000h, 000h, 0AAh, 081h, 081h, 081h, 077h, 0EEh, 081h, 000h, 000h, 000h
0023   7630 AA6DB6000000AA81818177EE81000000
0024   7640                 db 000h, 04Ah, 04Ah, 070h, 09Eh, 0B4h, 0FEh, 000h, 000h, 000h, 003h, 070h, 09Eh, 0DAh, 0FBh, 007h
0024   7640 004A4A709EB4FE00000003709EDAFB07
0025   7650                 db 009h, 00Dh, 03Fh, 000h, 0E0h, 0A0h, 0B0h, 00Eh, 079h, 02Dh, 07Fh, 00Eh, 079h, 05Bh, 0DFh, 000h
0025   7650 090D3F00E0A0B00E792D7F0E795BDF00
0026   7660                 db 000h, 000h, 0C0h, 000h, 007h, 005h, 00Dh, 0E0h, 090h, 0B0h, 0FCh, 038h, 03Dh, 02Ah, 018h, 00Eh
0026   7660 0000C00007050DE090B0FC383D2A180E
0027   7670                 db 00Fh, 005h, 018h, 000h, 040h, 080h, 0C0h, 003h, 003h, 002h, 00Eh, 080h, 0D0h, 0A0h, 038h, 000h
0027   7670 0F0518004080C00303020E80D0A03800
0028   7680                 db 000h, 000h, 001h, 0E0h, 0F4h, 0D0h, 098h, 00Eh, 05Eh, 02Ah, 00Ch, 003h, 017h, 005h, 00Ch, 080h
0028   7680 000001E0F4D0980E5E2A0C0317050C80
0029   7690                 db 080h, 080h, 0C0h, 000h, 005h, 002h, 00Eh, 0E0h, 0E0h, 0A0h, 038h, 000h, 001h, 000h, 001h, 038h
0029   7690 8080C00005020EE0E0A0380001000138
0030   76A0                 db 078h, 0D0h, 08Ch, 01Ch, 023h, 06Dh, 00Eh, 003h, 004h, 00Eh, 01Ch, 080h, 060h, 0D0h, 0E0h, 038h
0030   76A0 78D08C1C236D0E03040E1C8060D0E038
0031   76B0                 db 0C4h, 0B6h, 070h, 001h, 006h, 00Bh, 007h, 0C0h, 020h, 070h, 038h, 000h, 000h, 000h, 000h, 000h
0031   76B0 C4B67001060B07C02070380000000000
0032   76C0                 db 000h, 000h, 000h, 000h, 000h, 000h, 000h, 000h, 000h, 000h, 000h, 000h, 000h, 000h, 000h, 000h
0032   76C0 00000000000000000000000000000000
0033   76D0                 db 000h, 000h, 000h, 000h, 000h, 000h, 000h, 000h, 000h, 000h, 000h, 000h, 000h, 000h, 000h, 000h
0033   76D0 00000000000000000000000000000000
0034   76E0                 db 000h, 000h, 000h, 000h, 000h, 000h, 000h, 000h, 000h, 000h, 000h, 000h, 000h, 000h, 000h, 000h
0034   76E0 00000000000000000000000000000000
0035   76F0                 db 000h, 000h, 000h, 000h, 000h, 000h, 000h, 000h, 000h, 000h, 000h, 000h, 000h, 000h, 000h, 000h
0035   76F0 00000000000000000000000000000000
0036   7700                 db 000h, 09Bh, 09Fh, 0FFh, 0FBh, 0FBh, 0FFh, 0FFh, 0FFh, 0FFh, 0FFh, 0FFh, 0FFh, 09Fh, 000h, 0FBh
0036   7700 009B9FFFFBFBFFFFFFFFFFFFFF9F00FB
0037   7710                 db 0D6h, 09Fh, 0D6h, 0F7h, 09Fh, 0FFh, 0DFh, 0EFh, 076h, 0C4h, 071h, 06Eh, 063h, 07Ah, 0D9h, 0B6h
0037   7710 D69FD6F79FFFDFEF76C4716E637AD9B6
0038   7720                 db 041h, 01Ch, 0C6h, 0F6h, 06Fh, 0FFh, 0FFh, 0F6h, 063h, 0C6h, 06Dh, 0B6h, 0F6h, 06Fh, 0FFh, 063h
0038   7720 411CC6F66FFFFFF663C66DB6F66FFF63
0039   7730                 db 0C6h, 06Dh, 0B6h, 0E7h, 0C6h, 0C6h, 0B6h, 000h, 000h, 000h, 077h, 0EEh, 085h, 000h, 081h, 081h
0039   7730 C66DB6E7C6C6B600000077EE85008181
0040   7740                 db 081h, 05Bh, 05Bh, 0F8h, 0AFh, 0B4h, 0FEh, 000h, 000h, 000h, 003h, 0F8h, 0AFh, 0DAh, 0FBh, 00Fh
0040   7740 815B5BF8AFB4FE00000003F8AFDAFB0F
0041   7750                 db 00Ah, 00Dh, 03Fh, 080h, 0F0h, 0A0h, 0B0h, 01Fh, 0F5h, 02Dh, 07Fh, 01Fh, 0F5h, 05Bh, 0DFh, 000h
0041   7750 0A0D3F80F0A0B01FF52D7F1FF55BDF00
0042   7760                 db 000h, 000h, 0C0h, 001h, 00Fh, 005h, 00Dh, 0F0h, 050h, 0B0h, 0FCh, 07Ch, 066h, 06Bh, 018h, 01Fh
0042   7760 0000C0010F050DF050B0FC7C666B181F
0043   7770                 db 019h, 015h, 018h, 000h, 080h, 0C0h, 0C0h, 007h, 006h, 006h, 00Ch, 0C0h, 060h, 0B0h, 018h, 001h
0043   7770 1915180080C0C00706060CC060B01801
0044   7780                 db 001h, 001h, 001h, 0F0h, 098h, 0D4h, 098h, 01Fh, 033h, 06Bh, 00Ch, 007h, 00Ch, 015h, 00Ch, 0C0h
0044   7780 010101F098D4981F336B0C070C150CC0
0045   7790                 db 0C0h, 0C0h, 0C0h, 001h, 003h, 006h, 00Ch, 0F0h, 030h, 0B0h, 018h, 000h, 000h, 001h, 001h, 07Ch
0045   7790 C0C0C00103060CF030B018000001017C
0046   77A0                 db 0CCh, 0D4h, 08Ch, 03Eh, 029h, 06Dh, 00Eh, 007h, 005h, 00Eh, 01Ch, 0C0h, 020h, 0D0h, 070h, 07Ch
0046   77A0 CCD48C3E296D0E07050E1CC020D0707C
0047   77B0                 db 094h, 0B6h, 070h, 003h, 004h, 00Bh, 00Eh, 0E0h, 0A0h, 070h, 038h, 000h, 000h, 000h, 000h, 000h
0047   77B0 94B67003040B0EE0A070380000000000
0048   77C0                 db 000h, 000h, 000h, 000h, 000h, 000h, 000h, 000h, 000h, 000h, 000h, 000h, 000h, 000h, 000h, 000h
0048   77C0 00000000000000000000000000000000
0049   77D0                 db 000h, 000h, 000h, 000h, 000h, 000h, 000h, 000h, 000h, 000h, 000h, 000h, 000h, 000h, 000h, 000h
0049   77D0 00000000000000000000000000000000
0050   77E0                 db 000h, 000h, 000h, 000h, 000h, 000h, 000h, 000h, 000h, 000h, 000h, 000h, 000h, 000h, 000h, 000h
0050   77E0 00000000000000000000000000000000
0051   77F0                 db 000h, 000h, 000h, 000h, 000h, 000h, 000h, 000h, 000h, 000h, 000h, 000h, 000h, 000h, 000h, 000h
0051   77F0 00000000000000000000000000000000
0052   7800                 db 000h, 03Bh, 03Fh, 0FFh, 0FBh, 0FBh, 0FFh, 0FFh, 0FFh, 0FFh, 0FFh, 0FFh, 0FFh, 03Fh, 000h, 0FBh
0052   7800 003B3FFFFBFBFFFFFFFFFFFFFF3F00FB
0053   7810                 db 06Eh, 03Fh, 06Eh, 077h, 0FFh, 0FFh, 0FFh, 0EEh, 075h, 0B5h, 0EDh, 05Eh, 06Dh, 01Ah, 0D6h, 0AEh
0053   7810 6E3F6E77FFFFFFEE75B5ED5E6D1AD6AE
0054   7820                 db 077h, 06Bh, 05Ah, 036h, 06Fh, 0FFh, 0FFh, 0F6h, 055h, 0AAh, 06Dh, 0B6h, 0F6h, 06Fh, 0FFh, 055h
0054   7820 776B5A366FFFFFF655AA6DB6F66FFF55
0055   7830                 db 0AAh, 06Dh, 0B6h, 0E7h, 066h, 066h, 0B6h, 000h, 000h, 000h, 077h, 0EEh, 0ADh, 000h, 0C3h, 0C3h
0055   7830 AA6DB6E76666B600000077EEAD00C3C3
0056   7840                 db 0C3h, 07Bh, 07Bh, 098h, 0B7h, 0B4h, 0FEh, 000h, 000h, 001h, 003h, 098h, 0B7h, 0DAh, 0FBh, 009h
0056   7840 C37B7B98B7B4FE0000010398B7DAFB09
0057   7850                 db 00Bh, 01Dh, 03Fh, 080h, 070h, 0A0h, 0B0h, 019h, 0EDh, 02Dh, 07Fh, 019h, 0EDh, 05Bh, 0DFh, 000h
0057   7850 0B1D3F8070A0B019ED2D7F19ED5BDF00
0058   7860                 db 000h, 080h, 0C0h, 001h, 00Eh, 005h, 00Dh, 090h, 0D0h, 0B8h, 0FCh, 04Eh, 06Ah, 06Bh, 018h, 013h
0058   7860 0080C0010E050D90D0B8FC4E6A6B1813
0059   7870                 db 01Ah, 015h, 018h, 080h, 080h, 0C0h, 0C0h, 004h, 006h, 006h, 00Ch, 0E0h, 0A0h, 0B0h, 018h, 001h
0059   7870 1A15188080C0C00406060CE0A0B01801
0060   7880                 db 001h, 001h, 001h, 038h, 0A8h, 0D4h, 098h, 039h, 02Bh, 06Bh, 00Ch, 00Eh, 00Ah, 015h, 00Ch, 040h
0060   7880 01010138A8D498392B6B0C0E0A150C40
0061   7890                 db 0C0h, 0C0h, 0C0h, 003h, 002h, 006h, 00Ch, 090h, 0B0h, 0B0h, 018h, 000h, 000h, 001h, 001h, 0E4h
0061   7890 C0C0C00302060C90B0B01800000101E4
0062   78A0                 db 0ACh, 0D4h, 08Ch, 026h, 02Dh, 06Dh, 00Ch, 004h, 005h, 006h, 018h, 0C0h, 0A0h, 0D0h, 070h, 064h
0062   78A0 ACD48C262D6D0C04050618C0A0D07064
0063   78B0                 db 0B4h, 0B6h, 030h, 003h, 005h, 00Bh, 00Eh, 020h, 0A0h, 060h, 018h, 000h, 000h, 000h, 000h, 000h
0063   78B0 B4B63003050B0E20A060180000000000
0064   78C0                 db 000h, 000h, 000h, 000h, 000h, 000h, 000h, 000h, 000h, 000h, 000h, 000h, 000h, 000h, 000h, 000h
0064   78C0 00000000000000000000000000000000
0065   78D0                 db 000h, 000h, 000h, 000h, 000h, 000h, 000h, 000h, 000h, 000h, 000h, 000h, 000h, 000h, 000h, 000h
0065   78D0 00000000000000000000000000000000
0066   78E0                 db 000h, 000h, 000h, 000h, 000h, 000h, 000h, 000h, 000h, 000h, 000h, 000h, 000h, 000h, 000h, 000h
0066   78E0 00000000000000000000000000000000
0067   78F0                 db 000h, 000h, 000h, 000h, 000h, 000h, 000h, 000h, 000h, 000h, 000h, 000h, 000h, 000h, 000h, 000h
0067   78F0 00000000000000000000000000000000
0068   7900                 db 000h, 078h, 07Fh, 0FFh, 0F8h, 0F8h, 033h, 031h, 099h, 0CCh, 0C6h, 066h, 063h, 07Fh, 000h, 0F8h
0068   7900 00787FFFF8F8333199CCC666637F00F8
0069   7910                 db 06Eh, 07Fh, 06Eh, 070h, 000h, 000h, 000h, 00Eh, 073h, 0B4h, 06Dh, 03Eh, 06Dh, 06Ah, 016h, 09Eh
0069   7910 6E7F6E700000000E73B46D3E6D6A169E
0070   7920                 db 077h, 06Bh, 046h, 0D6h, 060h, 000h, 000h, 006h, 049h, 092h, 0ADh, 0B6h, 006h, 060h, 000h, 049h
0070   7920 776B46D6600000064992ADB606600049
0071   7930                 db 092h, 06Dh, 0B6h, 0E7h, 066h, 066h, 0B6h, 000h, 000h, 000h, 070h, 00Eh, 06Dh, 03Ch, 0FFh, 0B5h
0071   7930 926DB6E76666B6000000700E6D3CFFB5
0072   7940                 db 0B5h, 06Eh, 06Eh, 0ECh, 0B2h, 0B4h, 0FEh, 000h, 000h, 001h, 003h, 0ECh, 0B2h, 0DAh, 0FBh, 00Eh
0072   7940 B56E6EECB2B4FE00000103ECB2DAFB0E
0073   7950                 db 00Bh, 01Dh, 03Fh, 0C0h, 020h, 0A0h, 0B0h, 037h, 04Dh, 02Dh, 07Fh, 037h, 04Dh, 05Bh, 0DFh, 000h
0073   7950 0B1D3FC020A0B0374D2D7F374D5BDF00
0074   7960                 db 000h, 080h, 0C0h, 003h, 004h, 005h, 00Dh, 070h, 0D0h, 0B8h, 0FCh, 076h, 06Ah, 063h, 010h, 01Dh
0074   7960 0080C00304050D70D0B8FC766A63101D
0075   7970                 db 01Ah, 011h, 010h, 080h, 080h, 0C0h, 040h, 007h, 006h, 006h, 00Ch, 060h, 0A0h, 030h, 018h, 001h
0075   7970 1A11108080C0400706060C60A0301801
0076   7980                 db 001h, 001h, 001h, 0D8h, 0A8h, 0C4h, 090h, 037h, 02Bh, 063h, 004h, 00Dh, 00Ah, 011h, 004h, 0C0h
0076   7980 010101D8A8C490372B63040D0A1104C0
0077   7990                 db 0C0h, 0C0h, 0C0h, 003h, 002h, 006h, 00Ch, 070h, 0B0h, 030h, 018h, 000h, 000h, 001h, 001h, 0DCh
0077   7990 C0C0C00302060C70B0301800000101DC
0078   79A0                 db 0ACh, 0C4h, 004h, 03Bh, 02Dh, 02Dh, 00Ch, 007h, 005h, 00Eh, 018h, 060h, 0A0h, 0D0h, 070h, 0DCh
0078   79A0 ACC4043B2D2D0C07050E1860A0D070DC
0079   79B0                 db 0B4h, 0B4h, 030h, 006h, 005h, 00Bh, 00Eh, 0E0h, 0A0h, 070h, 018h, 000h, 000h, 000h, 000h, 000h
0079   79B0 B4B43006050B0EE0A070180000000000
0080   79C0                 db 000h, 000h, 000h, 000h, 000h, 000h, 000h, 000h, 000h, 000h, 000h, 000h, 000h, 000h, 000h, 000h
0080   79C0 00000000000000000000000000000000
0081   79D0                 db 000h, 000h, 000h, 000h, 000h, 000h, 000h, 000h, 000h, 000h, 000h, 000h, 000h, 000h, 000h, 000h
0081   79D0 00000000000000000000000000000000
0082   79E0                 db 000h, 000h, 000h, 000h, 000h, 000h, 000h, 000h, 000h, 000h, 000h, 000h, 000h, 000h, 000h, 000h
0082   79E0 00000000000000000000000000000000
0083   79F0                 db 000h, 000h, 000h, 000h, 000h, 000h, 000h, 000h, 000h, 000h, 000h, 000h, 000h, 000h, 000h, 000h
0083   79F0 00000000000000000000000000000000
0084   7A00                 db 000h, 073h, 07Fh, 0FFh, 0FFh, 0FFh, 0CCh, 0CEh, 066h, 033h, 039h, 099h, 09Ch, 07Fh, 000h, 0FFh
0084   7A00 00737FFFFFFFCCCE663339999C7F00FF
0085   7A10                 db 04Ah, 07Fh, 04Ah, 077h, 0FFh, 0FFh, 0FFh, 0EEh, 075h, 085h, 0A1h, 05Eh, 063h, 06Ah, 0D6h, 0AEh
0085   7A10 4A7F4A77FFFFFFEE7585A15E636AD6AE
0086   7A20                 db 077h, 018h, 05Ah, 0D6h, 06Fh, 0EFh, 0F7h, 0F6h, 055h, 0AAh, 081h, 0B6h, 0F6h, 06Fh, 0FFh, 055h
0086   7A20 77185AD66FEFF7F655AA81B6F66FFF55
0087   7A30                 db 0AAh, 06Dh, 0B6h, 0E7h, 042h, 042h, 0B6h, 000h, 000h, 000h, 0F7h, 0EFh, 06Dh, 042h, 0FFh, 097h
0087   7A30 AA6DB6E74242B6000000F7EF6D42FF97
0088   7A40                 db 097h, 04Ah, 04Ah, 0F4h, 0B4h, 0CEh, 030h, 000h, 000h, 001h, 003h, 0F4h, 0B4h, 0E6h, 003h, 00Fh
0088   7A40 974A4AF4B4CE3000000103F4B4E6030F
0089   7A50                 db 00Bh, 01Eh, 030h, 040h, 040h, 060h, 030h, 02Fh, 02Dh, 073h, 00Ch, 02Fh, 02Dh, 067h, 0C0h, 000h
0089   7A50 0B1E30404060302F2D730C2F2D67C000
0090   7A60                 db 000h, 080h, 0C0h, 002h, 002h, 006h, 00Ch, 0F0h, 0D0h, 078h, 00Ch, 07Ah, 06Ah, 07Fh, 010h, 01Eh
0090   7A60 0080C00202060CF0D0780C7A6A7F101E
0091   7A70                 db 01Ah, 01Fh, 010h, 080h, 080h, 0C0h, 040h, 007h, 006h, 007h, 008h, 0A0h, 0A0h, 0F0h, 008h, 001h
0091   7A70 1A1F108080C04007060708A0A0F00801
0092   7A80                 db 001h, 001h, 001h, 0E8h, 0A8h, 0FCh, 010h, 02Fh, 02Bh, 07Fh, 004h, 00Bh, 00Ah, 01Fh, 004h, 0C0h
0092   7A80 010101E8A8FC102F2B7F040B0A1F04C0
0093   7A90                 db 0C0h, 0C0h, 040h, 002h, 002h, 007h, 008h, 0F0h, 0B0h, 0F0h, 008h, 000h, 000h, 001h, 001h, 0BCh
0093   7A90 C0C04002020708F0B0F00800000101BC
0094   7AA0                 db 0ACh, 0FCh, 004h, 03Dh, 02Dh, 012h, 00Ch, 007h, 005h, 00Fh, 038h, 0A0h, 0A0h, 030h, 030h, 0BCh
0094   7AA0 ACFC043D2D120C07050F38A0A03030BC
0095   7AB0                 db 0B4h, 048h, 030h, 005h, 005h, 00Ch, 00Ch, 0E0h, 0A0h, 0F0h, 01Ch, 000h, 000h, 000h, 000h, 000h
0095   7AB0 B4483005050C0CE0A0F01C0000000000
0096   7AC0                 db 000h, 000h, 000h, 000h, 000h, 000h, 000h, 000h, 000h, 000h, 000h, 000h, 000h, 000h, 000h, 000h
0096   7AC0 00000000000000000000000000000000
0097   7AD0                 db 000h, 000h, 000h, 000h, 000h, 000h, 000h, 000h, 000h, 000h, 000h, 000h, 000h, 000h, 000h, 000h
0097   7AD0 00000000000000000000000000000000
0098   7AE0                 db 000h, 000h, 000h, 000h, 000h, 000h, 000h, 000h, 000h, 000h, 000h, 000h, 000h, 000h, 000h, 000h
0098   7AE0 00000000000000000000000000000000
0099   7AF0                 db 000h, 000h, 000h, 000h, 000h, 000h, 000h, 000h, 000h, 000h, 000h, 000h, 000h, 000h, 000h, 000h
0099   7AF0 00000000000000000000000000000000
0100   7B00                 db 000h, 067h, 07Fh, 0FFh, 0FFh, 0FFh, 0FFh, 0FFh, 0FFh, 0FFh, 0FFh, 0FFh, 0FFh, 07Fh, 000h, 0FFh
0100   7B00 00677FFFFFFFFFFFFFFFFFFFFF7F00FF
0101   7B10                 db 05Bh, 07Fh, 05Bh, 077h, 0FFh, 0FFh, 0FFh, 0EEh, 076h, 0B4h, 06Dh, 06Eh, 06Fh, 01Ah, 0D9h, 0B6h
0101   7B10 5B7F5B77FFFFFFEE76B46D6E6F1AD9B6
0102   7B20                 db 077h, 07Bh, 046h, 036h, 06Fh, 0EFh, 0F7h, 0F6h, 063h, 0C6h, 085h, 0B6h, 0F6h, 06Fh, 0DFh, 063h
0102   7B20 777B46366FEFF7F663C685B6F66FDF63
0103   7B30                 db 0C6h, 06Dh, 0B6h, 0E7h, 043h, 043h, 0B6h, 000h, 000h, 000h, 0F7h, 0EFh, 06Dh, 081h, 0FFh, 0D6h
0103   7B30 C66DB6E74343B6000000F7EF6D81FFD6
0104   7B40                 db 0D6h, 05Bh, 05Bh, 074h, 0B4h, 0FEh, 030h, 000h, 000h, 001h, 003h, 074h, 0B4h, 0FEh, 003h, 007h
0104   7B40 D65B5B74B4FE300000010374B4FE0307
0105   7B50                 db 00Bh, 01Fh, 030h, 040h, 040h, 0E0h, 030h, 02Eh, 02Dh, 07Fh, 00Ch, 02Eh, 02Dh, 07Fh, 0C0h, 000h
0105   7B50 0B1F304040E0302E2D7F0C2E2D7FC000
0106   7B60                 db 000h, 080h, 0C0h, 002h, 002h, 007h, 00Ch, 0E0h, 0D0h, 0F8h, 00Ch, 03Bh, 02Ah, 07Fh, 018h, 00Eh
0106   7B60 0080C00202070CE0D0F80C3B2A7F180E
0107   7B70                 db 00Ah, 01Fh, 018h, 0C0h, 080h, 0C0h, 0C0h, 003h, 002h, 00Fh, 018h, 0B0h, 0A0h, 0F8h, 018h, 000h
0107   7B70 0A1F18C080C0C003020F18B0A0F81800
0108   7B80                 db 000h, 001h, 003h, 0ECh, 0A8h, 0FCh, 018h, 06Eh, 02Ah, 07Fh, 00Ch, 01Bh, 00Ah, 01Fh, 00Ch, 080h
0108   7B80 000103ECA8FC186E2A7F0C1B0A1F0C80
0109   7B90                 db 080h, 0C0h, 060h, 006h, 002h, 00Fh, 00Ch, 0E0h, 0A0h, 0F8h, 00Ch, 001h, 000h, 001h, 001h, 0B8h
0109   7B90 80C06006020F0CE0A0F80C01000101B8
0110   7BA0                 db 0A8h, 0FCh, 08Ch, 01Dh, 06Dh, 01Eh, 00Ch, 003h, 00Dh, 01Fh, 038h, 0A0h, 0A0h, 0E0h, 030h, 0B8h
0110   7BA0 A8FC8C1D6D1E0C030D1F38A0A0E030B8
0111   7BB0                 db 0B6h, 078h, 030h, 005h, 005h, 007h, 00Ch, 0C0h, 0B0h, 0F8h, 01Ch, 000h, 000h, 000h, 000h, 000h
0111   7BB0 B678300505070CC0B0F81C0000000000
0112   7BC0                 db 000h, 000h, 000h, 000h, 000h, 000h, 000h, 000h, 000h, 000h, 000h, 000h, 000h, 000h, 000h, 000h
0112   7BC0 00000000000000000000000000000000
0113   7BD0                 db 000h, 000h, 000h, 000h, 000h, 000h, 000h, 000h, 000h, 000h, 000h, 000h, 000h, 000h, 000h, 000h
0113   7BD0 00000000000000000000000000000000
0114   7BE0                 db 000h, 000h, 000h, 000h, 000h, 000h, 000h, 000h, 000h, 000h, 000h, 000h, 000h, 000h, 000h, 000h
0114   7BE0 00000000000000000000000000000000
0115   7BF0                 db 000h, 000h, 000h, 000h, 000h, 000h, 000h, 000h, 000h, 000h, 000h, 000h, 000h, 000h, 000h, 000h
0115   7BF0 00000000000000000000000000000000
0116   7C00                 db 000h, 00Eh, 07Fh, 0FFh, 0FFh, 0FEh, 0FFh, 0FFh, 0FFh, 0FFh, 0FFh, 0FFh, 0FFh, 01Fh, 000h, 0FFh
0116   7C00 000E7FFFFFFEFFFFFFFFFFFFFF1F00FF
0117   7C10                 db 07Bh, 07Fh, 07Bh, 077h, 0FFh, 0FFh, 0FFh, 0EEh, 07Fh, 0FFh, 0FFh, 0FEh, 07Fh, 0FFh, 0FFh, 0FEh
0117   7C10 7B7F7B77FFFFFFEE7FFFFFFE7FFFFFFE
0118   7C20                 db 07Fh, 0FFh, 0FFh, 0FEh, 06Fh, 0EFh, 0F7h, 0F6h, 055h, 0AAh, 0ADh, 0B6h, 0F6h, 06Fh, 0FFh, 07Fh
0118   7C20 7FFFFFFE6FEFF7F655AAADB6F66FFF7F
0119   7C30                 db 0FEh, 06Dh, 0B6h, 0E7h, 063h, 063h, 0B6h, 000h, 000h, 000h, 0F7h, 0EFh, 06Dh, 000h, 0FFh, 06Eh
0119   7C30 FE6DB6E76363B6000000F7EF6D00FF6E
0120   7C40                 db 06Eh, 07Bh, 07Bh, 004h, 0B4h, 0FEh, 070h, 000h, 000h, 001h, 007h, 004h, 0DAh, 0FEh, 007h, 000h
0120   7C40 6E7B7B04B4FE700000010704DAFE0700
0121   7C50                 db 00Dh, 01Fh, 070h, 040h, 0A0h, 0E0h, 070h, 020h, 02Dh, 07Fh, 00Eh, 020h, 05Bh, 07Fh, 0E0h, 000h
0121   7C50 0D1F7040A0E070202D7F0E205B7FE000
0122   7C60                 db 000h, 080h, 0E0h, 002h, 005h, 007h, 00Eh, 000h, 0B0h, 0F8h, 00Eh, 003h, 02Ah, 07Fh, 038h, 000h
0122   7C60 0080E00205070E00B0F80E032A7F3800
0123   7C70                 db 00Ah, 01Fh, 039h, 0C0h, 080h, 0C0h, 0C0h, 000h, 002h, 00Fh, 038h, 030h, 0A0h, 0F8h, 038h, 000h
0123   7C70 0A1F39C080C0C000020F3830A0F83800
0124   7C80                 db 000h, 001h, 007h, 00Ch, 0A8h, 0FCh, 038h, 060h, 02Ah, 07Fh, 00Eh, 018h, 00Ah, 01Fh, 00Eh, 000h
0124   7C80 0001070CA8FC38602A7F0E180A1F0E00
0125   7C90                 db 080h, 0C0h, 070h, 006h, 002h, 00Fh, 00Eh, 000h, 0A0h, 0F8h, 00Eh, 001h, 000h, 001h, 001h, 080h
0125   7C90 80C07006020F0E00A0F80E0100010180
0126   7CA0                 db 0A8h, 0FCh, 0CEh, 00Ch, 06Dh, 01Eh, 01Ch, 001h, 00Dh, 01Eh, 078h, 080h, 0A0h, 0E0h, 070h, 030h
0126   7CA0 A8FCCE0C6D1E1C010D1E7880A0E07030
0127   7CB0                 db 0B6h, 078h, 038h, 001h, 005h, 007h, 00Eh, 080h, 0B0h, 078h, 01Eh, 000h, 000h, 000h, 000h, 000h
0127   7CB0 B678380105070E80B0781E0000000000
0128   7CC0                 db 000h, 000h, 000h, 000h, 000h, 000h, 000h, 000h, 000h, 000h, 000h, 000h, 000h, 000h, 000h, 000h
0128   7CC0 00000000000000000000000000000000
0129   7CD0                 db 000h, 000h, 000h, 000h, 000h, 000h, 000h, 000h, 000h, 000h, 000h, 000h, 000h, 000h, 000h, 000h
0129   7CD0 00000000000000000000000000000000
0130   7CE0                 db 000h, 000h, 000h, 000h, 000h, 000h, 000h, 000h, 000h, 000h, 000h, 000h, 000h, 000h, 000h, 000h
0130   7CE0 00000000000000000000000000000000
0131   7CF0                 db 000h, 000h, 000h, 000h, 000h, 000h, 000h, 000h, 000h, 000h, 000h, 000h, 000h, 000h, 000h, 000h
0131   7CF0 00000000000000000000000000000000
0132   7D00                 db 000h, 044h, 045h, 045h, 045h, 045h, 042h, 042h, 042h, 042h, 042h, 042h, 042h, 045h, 06Dh, 045h
0132   7D00 00444545454542424242424242456D45
0133   7D10                 db 002h, 045h, 042h, 006h, 006h, 006h, 006h, 006h, 047h, 047h, 047h, 047h, 047h, 047h, 047h, 047h
0133   7D10 02454206060606064747474747474747
0134   7D20                 db 047h, 047h, 047h, 047h, 006h, 006h, 006h, 006h, 047h, 047h, 005h, 005h, 006h, 006h, 006h, 047h
0134   7D20 47474747060606064747050506060647
0135   7D30                 db 047h, 005h, 005h, 045h, 042h, 002h, 005h, 045h, 042h, 002h, 006h, 006h, 005h, 047h, 045h, 042h
0135   7D30 47050545420205454202060605474542
0136   7D40                 db 002h, 042h, 002h, 046h, 042h, 042h, 042h, 000h, 000h, 042h, 042h, 046h, 042h, 042h, 042h, 046h
0136   7D40 02420246424242000042424642424246
0137   7D50                 db 042h, 042h, 042h, 046h, 042h, 042h, 042h, 046h, 042h, 042h, 042h, 046h, 042h, 042h, 042h, 000h
0137   7D50 42424246424242464242424642424200
0138   7D60                 db 000h, 042h, 042h, 046h, 042h, 042h, 042h, 046h, 042h, 042h, 042h, 047h, 047h, 047h, 007h, 047h
0138   7D60 00424246424242464242424747470747
0139   7D70                 db 047h, 047h, 007h, 047h, 047h, 047h, 007h, 047h, 047h, 047h, 007h, 047h, 047h, 047h, 007h, 047h
0139   7D70 47470747474707474747074747470747
0140   7D80                 db 047h, 047h, 007h, 047h, 047h, 047h, 007h, 047h, 047h, 047h, 007h, 047h, 047h, 047h, 007h, 047h
0140   7D80 47470747474707474747074747470747
0141   7D90                 db 047h, 047h, 007h, 047h, 047h, 047h, 007h, 047h, 047h, 047h, 007h, 047h, 047h, 047h, 007h, 047h
0141   7D90 47470747474707474747074747470747
0142   7DA0                 db 047h, 047h, 007h, 047h, 045h, 045h, 006h, 047h, 045h, 045h, 006h, 047h, 045h, 045h, 006h, 047h
0142   7DA0 47470747454506474545064745450647
0143   7DB0                 db 045h, 045h, 006h, 047h, 045h, 045h, 006h, 047h, 045h, 045h, 006h, 07Fh, 07Fh, 07Fh, 07Fh, 07Fh
0143   7DB0 45450647454506474545067F7F7F7F7F
0144   7DC0                 db 07Fh, 07Fh, 07Fh, 07Fh, 07Fh, 07Fh, 07Fh, 07Fh, 07Fh, 07Fh, 07Fh, 07Fh, 07Fh, 07Fh, 07Fh, 07Fh
0144   7DC0 7F7F7F7F7F7F7F7F7F7F7F7F7F7F7F7F
0145   7DD0                 db 07Fh, 07Fh, 07Fh, 07Fh, 07Fh, 07Fh, 07Fh, 07Fh, 07Fh, 07Fh, 07Fh, 07Fh, 07Fh, 07Fh, 07Fh, 07Fh
0145   7DD0 7F7F7F7F7F7F7F7F7F7F7F7F7F7F7F7F
0146   7DE0                 db 07Fh, 07Fh, 07Fh, 07Fh, 07Fh, 07Fh, 07Fh, 07Fh, 07Fh, 07Fh, 07Fh, 07Fh, 07Fh, 07Fh, 07Fh, 07Fh
0146   7DE0 7F7F7F7F7F7F7F7F7F7F7F7F7F7F7F7F
0147   7DF0                 db 07Fh, 07Fh, 07Fh, 07Fh, 07Fh, 07Fh, 07Fh, 07Fh, 07Fh, 07Fh, 07Fh, 07Fh, 07Fh, 07Fh, 07Fh, 000h
0147   7DF0 7F7F7F7F7F7F7F7F7F7F7F7F7F7F7F00
0148   7E00             
0149   7E00             city1Enemy=67
0150   7E00             city1Width=256
0151   7E00             city1Height=20
0152   7E00             
0153   7E00             city1Map:  ; size 256 x 20
0154   7E00                 db 1, 1, 1, 1, 1, 1, 1, 1, 1, 1, 1, 1, 1, 1, 1, 1, 1, 1, 1, 1, 1, 1, 1, 1, 1, 1, 1, 1, 1, 1, 1, 1, 1, 1, 1, 1, 1, 1, 1, 1, 1, 1, 1, 1, 1, 1, 1, 1, 1, 1, 1, 1, 1, 1, 1, 1, 1, 1, 1, 1, 1, 1, 1, 1
0154   7E00 0101010101010101010101010101010101010101010101010101010101010101
0154   7E20 0101010101010101010101010101010101010101010101010101010101010101
0155   7E40                 db 1, 1, 1, 1, 1, 1, 1, 1, 1, 1, 1, 1, 1, 1, 1, 1, 1, 1, 1, 1, 1, 1, 1, 1, 1, 1, 1, 1, 1, 1, 1, 1, 1, 1, 1, 1, 1, 1, 1, 1, 1, 1, 1, 1, 1, 1, 1, 1, 1, 1, 1, 1, 1, 1, 1, 1, 1, 1, 1, 1, 1, 1, 1, 1
0155   7E40 0101010101010101010101010101010101010101010101010101010101010101
0155   7E60 0101010101010101010101010101010101010101010101010101010101010101
0156   7E80                 db 1, 1, 1, 1, 1, 1, 1, 1, 1, 1, 1, 1, 1, 1, 1, 1, 1, 1, 1, 1, 1, 1, 1, 1, 1, 1, 1, 1, 1, 1, 1, 1, 1, 1, 1, 1, 1, 1, 1, 1, 1, 1, 1, 1, 1, 1, 1, 1, 1, 1, 1, 1, 1, 1, 1, 1, 1, 1, 1, 1, 1, 1, 1, 1
0156   7E80 0101010101010101010101010101010101010101010101010101010101010101
0156   7EA0 0101010101010101010101010101010101010101010101010101010101010101
0157   7EC0                 db 1, 1, 1, 1, 1, 1, 1, 1, 1, 1, 1, 1, 1, 1, 1, 1, 1, 1, 1, 1, 1, 1, 1, 1, 1, 1, 1, 1, 1, 1, 1, 1, 1, 1, 1, 1, 1, 1, 1, 1, 1, 1, 1, 1, 1, 1, 1, 1, 1, 1, 1, 1, 1, 1, 1, 1, 1, 1, 1, 1, 1, 1, 1, 1
0157   7EC0 0101010101010101010101010101010101010101010101010101010101010101
0157   7EE0 0101010101010101010101010101010101010101010101010101010101010101
0158   7F00                 db 1, 1, 1, 1, 1, 1, 1, 1, 1, 1, 1, 1, 1, 1, 1, 1, 1, 1, 1, 1, 1, 1, 1, 1, 1, 1, 1, 1, 1, 1, 1, 1, 1, 1, 1, 1, 1, 1, 1, 1, 1, 1, 1, 1, 1, 1, 1, 1, 1, 1, 1, 1, 1, 1, 1, 1, 1, 1, 1, 1, 1, 1, 1, 1
0158   7F00 0101010101010101010101010101010101010101010101010101010101010101
0158   7F20 0101010101010101010101010101010101010101010101010101010101010101
0159   7F40                 db 1, 1, 1, 1, 1, 1, 1, 1, 1, 1, 1, 1, 1, 1, 1, 1, 1, 1, 1, 1, 2, 3, 3, 3, 3, 4, 1, 1, 1, 1, 1, 1, 1, 1, 1, 1, 1, 1, 1, 1, 1, 1, 1, 1, 1, 1, 1, 1, 1, 1, 1, 1, 1, 1, 1, 1, 1, 1, 1, 1, 1, 1, 1, 1
0159   7F40 0101010101010101010101010101010101010101020303030304010101010101
0159   7F60 0101010101010101010101010101010101010101010101010101010101010101
0160   7F80                 db 1, 1, 1, 1, 1, 1, 1, 1, 1, 1, 1, 1, 1, 1, 1, 1, 1, 1, 1, 1, 1, 1, 1, 1, 1, 1, 1, 1, 1, 1, 1, 1, 1, 1, 1, 1, 1, 1, 1, 1, 1, 1, 1, 1, 1, 1, 1, 1, 1, 1, 1, 1, 1, 1, 1, 1, 1, 1, 1, 1, 1, 1, 1, 1
0160   7F80 0101010101010101010101010101010101010101010101010101010101010101
0160   7FA0 0101010101010101010101010101010101010101010101010101010101010101
0161   7FC0                 db 1, 1, 1, 1, 1, 1, 1, 1, 1, 1, 1, 1, 1, 1, 1, 1, 1, 1, 1, 1, 1, 1, 1, 1, 1, 1, 1, 1, 1, 1, 1, 1, 1, 1, 1, 1, 1, 1, 1, 1, 1, 1, 1, 1, 1, 1, 1, 1, 1, 1, 1, 1, 1, 1, 1, 2, 5, 1, 1, 1, 1, 1, 1, 1
0161   7FC0 0101010101010101010101010101010101010101010101010101010101010101
0161   7FE0 0101010101010101010101010101010101010101010101020501010101010101
0162   8000                 db 5, 1, 1, 1, 1, 1, 1, 1, 1, 6, 6, 7, 8, 8, 9, 10, 11, 11, 11, 12, 6, 6, 6, 1, 1, 1, 1, 1, 1, 1, 1, 1, 1, 1, 1, 1, 1, 1, 1, 1, 1, 1, 1, 1, 1, 1, 1, 6, 6, 7, 8, 8, 9, 10, 11, 11, 11, 12, 6, 6, 6, 1, 1, 1
0162   8000 0501010101010101010606070808090A0B0B0B0C060606010101010101010101
0162   8020 0101010101010101010101010101010606070808090A0B0B0B0C060606010101
0163   8040                 db 2, 3, 4, 1, 1, 1, 1, 1, 1, 1, 1, 1, 1, 1, 1, 1, 1, 1, 1, 13, 14, 14, 14, 14, 14, 14, 5, 1, 1, 1, 1, 1, 1, 13, 4, 1, 1, 1, 1, 6, 6, 6, 6, 6, 6, 6, 6, 6, 6, 6, 6, 6, 6, 6, 6, 6, 6, 1, 1, 1, 1, 2, 5, 1
0163   8040 020304010101010101010101010101010101010D0E0E0E0E0E0E050101010101
0163   8060 010D040101010106060606060606060606060606060606060601010101020501
0164   8080                 db 1, 1, 1, 1, 1, 13, 4, 1, 1, 1, 1, 1, 1, 2, 4, 1, 1, 1, 1, 1, 1, 1, 1, 2, 3, 3, 5, 1, 1, 1, 1, 1, 1, 1, 1, 1, 1, 1, 1, 1, 1, 1, 1, 6, 6, 7, 8, 8, 9, 10, 11, 11, 11, 12, 6, 11, 12, 6, 6, 6, 1, 1, 1, 1
0164   8080 01010101010D0401010101010102040101010101010101020303050101010101
0164   80A0 01010101010101010101010606070808090A0B0B0B0C060B0C06060601010101
0165   80C0                 db 1, 1, 1, 1, 1, 1, 1, 1, 2, 3, 4, 1, 1, 1, 1, 6, 6, 7, 8, 8, 9, 10, 11, 11, 11, 12, 6, 6, 6, 1, 1, 1, 1, 1, 1, 1, 1, 1, 1, 1, 2, 4, 1, 1, 1, 1, 1, 1, 1, 1, 1, 1, 1, 1, 13, 14, 15, 1, 1, 1, 1, 1, 1, 1
0165   80C0 0101010101010101020304010101010606070808090A0B0B0B0C060606010101
0165   80E0 010101010101010102040101010101010101010101010D0E0F01010101010101
0166   8100                 db 15, 1, 1, 1, 1, 1, 1, 1, 16, 6, 6, 7, 8, 8, 9, 10, 11, 11, 11, 12, 6, 6, 6, 16, 3, 3, 4, 1, 1, 1, 1, 1, 1, 1, 1, 2, 4, 1, 1, 1, 1, 1, 1, 1, 2, 3, 16, 6, 6, 7, 8, 8, 9, 10, 11, 11, 11, 12, 6, 6, 6, 16, 3, 3
0166   8100 0F01010101010101100606070808090A0B0B0B0C060606100303040101010101
0166   8120 0101010204010101010101010203100606070808090A0B0B0B0C060606100303
0167   8140                 db 14, 14, 14, 3, 4, 1, 1, 1, 1, 1, 1, 1, 1, 1, 1, 1, 1, 1, 1, 17, 14, 14, 14, 14, 14, 14, 15, 1, 1, 1, 1, 1, 1, 17, 14, 3, 3, 3, 16, 6, 6, 6, 6, 6, 6, 6, 6, 6, 6, 6, 6, 6, 6, 6, 6, 6, 6, 16, 3, 3, 3, 14, 15, 1
0167   8140 0E0E0E03040101010101010101010101010101110E0E0E0E0E0E0F0101010101
0167   8160 01110E03030310060606060606060606060606060606060606100303030E0F01
0168   8180                 db 1, 1, 1, 1, 1, 17, 14, 4, 1, 1, 1, 1, 2, 14, 14, 3, 3, 18, 18, 16, 16, 3, 3, 14, 14, 14, 15, 1, 1, 1, 1, 1, 1, 2, 4, 1, 1, 1, 1, 2, 3, 3, 16, 6, 6, 7, 8, 8, 9, 10, 11, 11, 11, 12, 6, 11, 12, 6, 6, 6, 16, 1, 1, 1
0168   8180 0101010101110E0401010101020E0E03031212101003030E0E0E0F0101010101
0168   81A0 01020401010101020303100606070808090A0B0B0B0C060B0C06060610010101
0169   81C0                 db 1, 1, 1, 1, 1, 1, 1, 13, 14, 14, 14, 3, 3, 3, 16, 6, 6, 7, 8, 8, 9, 10, 11, 11, 11, 12, 6, 6, 6, 16, 4, 1, 1, 1, 1, 1, 1, 1, 1, 2, 14, 14, 5, 1, 1, 1, 1, 1, 1, 1, 1, 1, 1, 1, 17, 14, 14, 4, 1, 1, 1, 1, 1, 1
0169   81C0 010101010101010D0E0E0E030303100606070808090A0B0B0B0C060606100401
0169   81E0 01010101010101020E0E050101010101010101010101110E0E04010101010101
0170   8200                 db 14, 4, 1, 1, 1, 1, 2, 3, 16, 6, 6, 7, 8, 8, 9, 10, 11, 11, 11, 12, 6, 6, 6, 16, 14, 14, 14, 3, 3, 18, 18, 16, 16, 3, 3, 14, 14, 3, 3, 18, 16, 16, 3, 3, 14, 14, 16, 6, 6, 7, 8, 8, 9, 10, 11, 11, 11, 12, 6, 6, 6, 16, 14, 14
0170   8200 0E04010101010203100606070808090A0B0B0B0C060606100E0E0E0303121210
0170   8220 1003030E0E030312101003030E0E100606070808090A0B0B0B0C060606100E0E
0171   8240                 db 14, 14, 14, 14, 14, 3, 3, 18, 18, 16, 16, 3, 3, 4, 1, 1, 1, 1, 2, 14, 14, 14, 14, 14, 14, 14, 14, 4, 1, 1, 1, 1, 2, 14, 14, 14, 14, 14, 16, 6, 6, 6, 6, 6, 6, 6, 6, 6, 6, 6, 6, 6, 6, 6, 6, 6, 6, 16, 14, 14, 14, 14, 14, 4
0171   8240 0E0E0E0E0E03031212101003030401010101020E0E0E0E0E0E0E0E0401010101
0171   8260 020E0E0E0E0E10060606060606060606060606060606060606100E0E0E0E0E04
0172   8280                 db 1, 1, 1, 1, 2, 14, 14, 14, 3, 18, 16, 3, 14, 14, 14, 14, 14, 18, 18, 16, 16, 14, 14, 14, 14, 14, 14, 4, 1, 1, 1, 1, 2, 14, 14, 3, 18, 16, 3, 14, 14, 14, 16, 6, 6, 7, 8, 8, 9, 10, 11, 11, 11, 12, 6, 11, 12, 6, 6, 6, 16, 1, 1, 1
0172   8280 01010101020E0E0E031210030E0E0E0E0E121210100E0E0E0E0E0E0401010101
0172   82A0 020E0E031210030E0E0E100606070808090A0B0B0B0C060B0C06060610010101
0173   82C0                 db 1, 1, 1, 1, 1, 1, 1, 17, 14, 14, 14, 14, 14, 14, 16, 6, 6, 7, 8, 8, 9, 10, 11, 11, 11, 12, 6, 6, 6, 16, 14, 3, 3, 18, 18, 16, 16, 3, 3, 14, 14, 14, 15, 1, 1, 1, 1, 1, 1, 1, 1, 1, 1, 2, 14, 14, 14, 14, 3, 3, 18, 18, 16, 16
0173   82C0 01010101010101110E0E0E0E0E0E100606070808090A0B0B0B0C060606100E03
0173   82E0 031212101003030E0E0E0F01010101010101010101020E0E0E0E030312121010
0174   8300                 db 14, 14, 3, 18, 16, 3, 14, 14, 16, 6, 6, 7, 8, 8, 9, 10, 11, 11, 11, 12, 6, 6, 6, 16, 14, 14, 14, 14, 14, 18, 18, 16, 16, 14, 14, 14, 14, 14, 14, 18, 16, 16, 14, 14, 14, 14, 16, 6, 6, 7, 8, 8, 9, 10, 11, 11, 11, 12, 6, 6, 6, 16, 14, 14
0174   8300 0E0E031210030E0E100606070808090A0B0B0B0C060606100E0E0E0E0E121210
0174   8320 100E0E0E0E0E0E1210100E0E0E0E100606070808090A0B0B0B0C060606100E0E
0175   8340                 db 14, 14, 14, 14, 14, 14, 14, 18, 18, 16, 16, 14, 14, 14, 3, 18, 16, 3, 14, 14, 14, 14, 14, 14, 14, 14, 14, 14, 3, 18, 16, 3, 14, 14, 14, 14, 14, 14, 16, 6, 6, 6, 6, 6, 6, 6, 6, 6, 6, 6, 6, 6, 6, 6, 6, 6, 6, 16, 14, 14, 14, 14, 14, 14
0175   8340 0E0E0E0E0E0E0E121210100E0E0E031210030E0E0E0E0E0E0E0E0E0E03121003
0175   8360 0E0E0E0E0E0E10060606060606060606060606060606060606100E0E0E0E0E0E
0176   8380                 db 3, 18, 16, 3, 14, 14, 14, 14, 14, 18, 16, 14, 14, 14, 14, 14, 14, 18, 18, 16, 16, 14, 14, 14, 14, 14, 14, 14, 3, 18, 16, 3, 14, 14, 14, 14, 18, 16, 14, 14, 14, 14, 16, 6, 6, 7, 8, 8, 9, 10, 11, 11, 11, 12, 6, 11, 12, 6, 6, 6, 16, 3, 18, 16
0176   8380 031210030E0E0E0E0E12100E0E0E0E0E0E121210100E0E0E0E0E0E0E03121003
0176   83A0 0E0E0E0E12100E0E0E0E100606070808090A0B0B0B0C060B0C06060610031210
0177   83C0                 db 3, 4, 1, 1, 1, 1, 2, 14, 14, 14, 14, 14, 14, 14, 16, 6, 6, 7, 8, 8, 9, 10, 11, 11, 11, 12, 6, 6, 6, 16, 14, 14, 14, 18, 18, 16, 16, 14, 14, 14, 14, 14, 14, 4, 1, 1, 1, 1, 2, 3, 18, 16, 3, 14, 14, 14, 14, 14, 14, 14, 18, 18, 16, 16
0177   83C0 030401010101020E0E0E0E0E0E0E100606070808090A0B0B0B0C060606100E0E
0177   83E0 0E121210100E0E0E0E0E0E040101010102031210030E0E0E0E0E0E0E12121010
0178   8400                 db 14, 14, 14, 18, 16, 14, 14, 14, 16, 6, 6, 7, 8, 8, 9, 10, 11, 11, 11, 12, 6, 6, 6, 16, 14, 14, 14, 14, 14, 18, 18, 16, 16, 14, 14, 14, 14, 14, 14, 18, 16, 16, 14, 14, 14, 14, 16, 6, 6, 7, 8, 8, 9, 10, 11, 11, 11, 12, 6, 6, 6, 16, 14, 14
0178   8400 0E0E0E12100E0E0E100606070808090A0B0B0B0C060606100E0E0E0E0E121210
0178   8420 100E0E0E0E0E0E1210100E0E0E0E100606070808090A0B0B0B0C060606100E0E
0179   8440                 db 14, 14, 14, 14, 14, 14, 14, 18, 18, 16, 16, 14, 14, 14, 14, 18, 16, 14, 14, 14, 14, 14, 14, 14, 14, 14, 14, 14, 14, 18, 16, 14, 14, 14, 14, 14, 14, 14, 16, 6, 6, 6, 6, 6, 6, 6, 6, 6, 6, 6, 6, 6, 6, 6, 6, 6, 6, 16, 14, 14, 14, 14, 14, 14
0179   8440 0E0E0E0E0E0E0E121210100E0E0E0E12100E0E0E0E0E0E0E0E0E0E0E0E12100E
0179   8460 0E0E0E0E0E0E10060606060606060606060606060606060606100E0E0E0E0E0E
0180   8480                 db 14, 18, 16, 14, 14, 14, 14, 14, 14, 18, 16, 14, 14, 14, 14, 14, 14, 18, 18, 16, 16, 14, 14, 14, 14, 14, 14, 14, 14, 18, 16, 14, 14, 14, 14, 14, 18, 16, 14, 14, 14, 14, 16, 6, 6, 7, 8, 8, 9, 10, 11, 11, 11, 12, 6, 11, 12, 6, 6, 6, 16, 14, 18, 16
0180   8480 0E12100E0E0E0E0E0E12100E0E0E0E0E0E121210100E0E0E0E0E0E0E0E12100E
0180   84A0 0E0E0E0E12100E0E0E0E100606070808090A0B0B0B0C060B0C060606100E1210
0181   84C0                 db 14, 14, 3, 18, 16, 3, 14, 14, 14, 14, 14, 14, 14, 14, 16, 6, 6, 7, 8, 8, 9, 10, 11, 11, 11, 12, 6, 6, 6, 16, 14, 14, 14, 18, 18, 16, 16, 14, 14, 14, 14, 14, 14, 14, 3, 18, 16, 3, 14, 14, 18, 16, 14, 14, 14, 14, 14, 14, 14, 14, 18, 18, 16, 16
0181   84C0 0E0E031210030E0E0E0E0E0E0E0E100606070808090A0B0B0B0C060606100E0E
0181   84E0 0E121210100E0E0E0E0E0E0E031210030E0E12100E0E0E0E0E0E0E0E12121010
0182   8500                 db 14, 14, 14, 18, 16, 14, 14, 14, 16, 16, 19, 20, 21, 21, 21, 21, 22, 21, 21, 21, 21, 23, 16, 16, 14, 14, 14, 14, 14, 18, 18, 16, 16, 14, 14, 14, 14, 14, 14, 18, 16, 16, 14, 14, 14, 14, 16, 16, 19, 20, 21, 21, 21, 21, 22, 21, 21, 21, 21, 23, 16, 16, 14, 14
0182   8500 0E0E0E12100E0E0E101013141515151516151515151710100E0E0E0E0E121210
0182   8520 100E0E0E0E0E0E1210100E0E0E0E101013141515151516151515151710100E0E
0183   8540                 db 14, 14, 14, 14, 14, 14, 14, 18, 18, 16, 16, 14, 14, 14, 14, 18, 16, 14, 14, 14, 14, 14, 14, 14, 14, 14, 14, 14, 14, 18, 16, 14, 14, 14, 14, 14, 14, 14, 16, 16, 19, 20, 21, 21, 21, 21, 22, 21, 21, 22, 24, 25, 26, 27, 21, 23, 16, 16, 14, 14, 14, 14, 14, 14
0183   8540 0E0E0E0E0E0E0E121210100E0E0E0E12100E0E0E0E0E0E0E0E0E0E0E0E12100E
0183   8560 0E0E0E0E0E0E10101314151515151615151618191A1B151710100E0E0E0E0E0E
0184   8580                 db 14, 18, 16, 14, 14, 14, 14, 14, 14, 18, 16, 14, 14, 14, 14, 14, 14, 18, 18, 16, 16, 14, 14, 14, 14, 14, 14, 14, 14, 18, 16, 14, 14, 14, 14, 14, 18, 16, 14, 14, 14, 14, 16, 16, 19, 28, 29, 30, 31, 21, 22, 21, 21, 21, 21, 21, 21, 21, 23, 16, 16, 14, 18, 16
0184   8580 0E12100E0E0E0E0E0E12100E0E0E0E0E0E121210100E0E0E0E0E0E0E0E12100E
0184   85A0 0E0E0E0E12100E0E0E0E1010131C1D1E1F1516151515151515151710100E1210
0185   85C0                 db 14, 14, 14, 18, 16, 14, 14, 14, 14, 14, 14, 14, 14, 14, 16, 16, 19, 20, 21, 21, 32, 33, 34, 35, 21, 21, 21, 23, 16, 16, 14, 14, 14, 18, 18, 16, 16, 14, 14, 14, 14, 14, 14, 14, 14, 18, 16, 14, 14, 14, 18, 16, 14, 14, 14, 14, 14, 14, 14, 14, 18, 18, 16, 16
0185   85C0 0E0E0E12100E0E0E0E0E0E0E0E0E101013141515202122231515151710100E0E
0185   85E0 0E121210100E0E0E0E0E0E0E0E12100E0E0E12100E0E0E0E0E0E0E0E12121010
0186   8600                 db 14, 14, 14, 18, 16, 14, 14, 14, 16, 16, 36, 21, 21, 21, 21, 21, 21, 37, 21, 21, 38, 39, 16, 16, 14, 14, 14, 14, 14, 18, 18, 16, 16, 14, 14, 14, 14, 14, 14, 18, 16, 16, 14, 14, 14, 14, 16, 16, 36, 21, 21, 21, 37, 21, 21, 38, 21, 21, 21, 39, 16, 16, 14, 14
0186   8600 0E0E0E12100E0E0E101024151515151515251515262710100E0E0E0E0E121210
0186   8620 100E0E0E0E0E0E1210100E0E0E0E101024151515251515261515152710100E0E
0187   8640                 db 14, 14, 14, 14, 14, 14, 14, 18, 18, 16, 16, 14, 14, 14, 14, 18, 16, 14, 14, 14, 14, 14, 14, 14, 14, 14, 14, 14, 14, 18, 16, 14, 14, 14, 14, 14, 14, 14, 16, 16, 36, 21, 21, 21, 20, 21, 21, 20, 21, 21, 37, 21, 21, 38, 21, 39, 16, 16, 14, 14, 14, 14, 14, 14
0187   8640 0E0E0E0E0E0E0E121210100E0E0E0E12100E0E0E0E0E0E0E0E0E0E0E0E12100E
0187   8660 0E0E0E0E0E0E10102415151514151514151525151526152710100E0E0E0E0E0E
0188   8680                 db 14, 18, 16, 14, 14, 14, 14, 14, 14, 18, 16, 14, 14, 14, 14, 14, 14, 18, 18, 16, 16, 14, 14, 14, 14, 14, 14, 14, 14, 18, 16, 14, 14, 14, 14, 14, 18, 16, 14, 14, 14, 14, 16, 16, 36, 37, 21, 21, 38, 21, 21, 21, 21, 21, 21, 21, 21, 21, 39, 16, 16, 14, 18, 16
0188   8680 0E12100E0E0E0E0E0E12100E0E0E0E0E0E121210100E0E0E0E0E0E0E0E12100E
0188   86A0 0E0E0E0E12100E0E0E0E101024251515261515151515151515152710100E1210
0189   86C0                 db 14, 14, 14, 18, 16, 14, 14, 14, 14, 14, 14, 14, 14, 14, 16, 16, 36, 21, 21, 21, 37, 21, 21, 38, 21, 21, 21, 39, 16, 16, 14, 14, 14, 18, 18, 16, 16, 14, 14, 14, 14, 14, 14, 14, 14, 18, 16, 14, 14, 14, 18, 16, 14, 14, 14, 14, 14, 14, 14, 14, 18, 18, 16, 16
0189   86C0 0E0E0E12100E0E0E0E0E0E0E0E0E101024151515251515261515152710100E0E
0189   86E0 0E121210100E0E0E0E0E0E0E0E12100E0E0E12100E0E0E0E0E0E0E0E12121010
0190   8700                 db 14, 14, 14, 18, 16, 14, 14, 14, 16, 16, 36, 21, 40, 41, 21, 40, 41, 39, 42, 43, 36, 39, 16, 16, 14, 14, 14, 14, 14, 18, 18, 16, 16, 14, 14, 14, 14, 14, 14, 18, 16, 16, 14, 14, 14, 14, 16, 16, 36, 21, 40, 41, 39, 42, 43, 36, 40, 41, 21, 39, 16, 16, 14, 14
0190   8700 0E0E0E12100E0E0E101024152829152829272A2B242710100E0E0E0E0E121210
0190   8720 100E0E0E0E0E0E1210100E0E0E0E101024152829272A2B242829152710100E0E
0191   8740                 db 14, 14, 14, 14, 14, 14, 14, 18, 18, 16, 16, 14, 14, 14, 14, 18, 16, 14, 14, 14, 14, 14, 14, 14, 14, 14, 14, 14, 14, 18, 16, 14, 14, 14, 14, 14, 14, 14, 16, 16, 36, 21, 40, 41, 21, 40, 41, 21, 40, 41, 39, 42, 43, 36, 21, 39, 16, 16, 14, 14, 14, 14, 14, 14
0191   8740 0E0E0E0E0E0E0E121210100E0E0E0E12100E0E0E0E0E0E0E0E0E0E0E0E12100E
0191   8760 0E0E0E0E0E0E101024152829152829152829272A2B24152710100E0E0E0E0E0E
0192   8780                 db 14, 18, 16, 14, 14, 14, 14, 14, 14, 18, 16, 14, 14, 14, 14, 14, 14, 18, 18, 16, 16, 14, 14, 14, 14, 14, 14, 14, 14, 18, 16, 14, 14, 14, 14, 14, 18, 16, 14, 14, 14, 14, 16, 16, 36, 44, 42, 43, 45, 40, 41, 46, 40, 41, 21, 40, 41, 21, 39, 16, 16, 14, 18, 16
0192   8780 0E12100E0E0E0E0E0E12100E0E0E0E0E0E121210100E0E0E0E0E0E0E0E12100E
0192   87A0 0E0E0E0E12100E0E0E0E1010242C2A2B2D28292E2829152829152710100E1210
0193   87C0                 db 14, 14, 14, 18, 16, 14, 14, 14, 14, 14, 14, 14, 14, 14, 16, 16, 36, 21, 40, 41, 44, 42, 43, 45, 40, 41, 21, 39, 16, 16, 14, 14, 14, 18, 18, 16, 16, 14, 14, 14, 14, 14, 14, 14, 14, 18, 16, 14, 14, 14, 18, 16, 14, 14, 14, 14, 14, 14, 14, 14, 18, 18, 16, 16
0193   87C0 0E0E0E12100E0E0E0E0E0E0E0E0E1010241528292C2A2B2D2829152710100E0E
0193   87E0 0E121210100E0E0E0E0E0E0E0E12100E0E0E12100E0E0E0E0E0E0E0E12121010
0194   8800                 db 14, 14, 14, 18, 16, 14, 14, 14, 16, 16, 36, 22, 47, 48, 22, 47, 48, 39, 49, 50, 36, 39, 16, 16, 14, 14, 14, 14, 14, 18, 18, 16, 16, 14, 14, 14, 14, 14, 14, 18, 16, 16, 14, 14, 14, 14, 16, 16, 36, 22, 47, 48, 39, 49, 50, 36, 47, 48, 21, 39, 16, 16, 14, 14
0194   8800 0E0E0E12100E0E0E101024162F30162F30273132242710100E0E0E0E0E121210
0194   8820 100E0E0E0E0E0E1210100E0E0E0E101024162F30273132242F30152710100E0E
0195   8840                 db 14, 14, 14, 14, 14, 14, 14, 18, 18, 16, 16, 14, 14, 14, 14, 18, 16, 14, 14, 14, 14, 14, 14, 14, 14, 14, 14, 14, 14, 18, 16, 14, 14, 14, 14, 14, 14, 14, 16, 16, 36, 21, 47, 48, 21, 47, 48, 21, 47, 48, 39, 49, 50, 36, 21, 39, 16, 16, 14, 14, 14, 14, 14, 14
0195   8840 0E0E0E0E0E0E0E121210100E0E0E0E12100E0E0E0E0E0E0E0E0E0E0E0E12100E
0195   8860 0E0E0E0E0E0E101024152F30152F30152F3027313224152710100E0E0E0E0E0E
0196   8880                 db 14, 18, 16, 14, 14, 14, 14, 14, 14, 18, 16, 14, 14, 14, 14, 14, 14, 18, 18, 16, 16, 14, 14, 14, 14, 14, 14, 14, 14, 18, 16, 14, 14, 14, 14, 14, 18, 16, 14, 14, 14, 14, 16, 16, 36, 39, 49, 50, 36, 47, 48, 21, 47, 48, 21, 47, 48, 21, 39, 16, 16, 14, 18, 16
0196   8880 0E12100E0E0E0E0E0E12100E0E0E0E0E0E121210100E0E0E0E0E0E0E0E12100E
0196   88A0 0E0E0E0E12100E0E0E0E101024273132242F30152F30152F30152710100E1210
0197   88C0                 db 14, 14, 14, 18, 16, 14, 14, 14, 14, 14, 14, 14, 14, 14, 16, 16, 36, 22, 47, 48, 39, 49, 50, 36, 47, 48, 21, 39, 16, 16, 14, 14, 14, 18, 18, 16, 16, 14, 14, 14, 14, 14, 14, 14, 14, 18, 16, 14, 14, 14, 18, 16, 14, 14, 14, 14, 14, 14, 14, 14, 18, 18, 16, 16
0197   88C0 0E0E0E12100E0E0E0E0E0E0E0E0E101024162F30273132242F30152710100E0E
0197   88E0 0E121210100E0E0E0E0E0E0E0E12100E0E0E12100E0E0E0E0E0E0E0E12121010
0198   8900                 db 51, 51, 51, 52, 53, 51, 51, 51, 53, 53, 36, 21, 21, 21, 21, 21, 21, 39, 49, 54, 36, 39, 53, 53, 51, 51, 51, 51, 51, 52, 52, 53, 53, 51, 51, 51, 51, 51, 51, 52, 53, 53, 51, 51, 51, 51, 53, 53, 36, 21, 21, 21, 39, 49, 54, 36, 21, 21, 20, 39, 53, 53, 51, 51
0198   8900 3333333435333333353524151515151515273136242735353333333333343435
0198   8920 3533333333333334353533333333353524151515273136241515142735353333
0199   8940                 db 51, 51, 51, 51, 51, 51, 51, 52, 52, 53, 53, 51, 51, 51, 51, 52, 53, 51, 51, 51, 51, 51, 51, 51, 51, 51, 51, 51, 51, 52, 53, 51, 51, 51, 51, 51, 51, 51, 53, 53, 36, 21, 21, 21, 21, 21, 21, 21, 21, 21, 39, 49, 54, 36, 20, 39, 53, 53, 51, 51, 51, 51, 51, 51
0199   8940 3333333333333334343535333333333435333333333333333333333333343533
0199   8960 3333333333333535241515151515151515152731362414273535333333333333
0200   8980                 db 51, 52, 53, 51, 51, 51, 51, 51, 51, 52, 53, 51, 51, 51, 51, 51, 51, 52, 52, 53, 53, 51, 51, 51, 51, 51, 51, 51, 51, 52, 53, 51, 51, 51, 51, 51, 52, 53, 51, 51, 51, 51, 53, 53, 36, 39, 49, 54, 36, 21, 21, 21, 21, 21, 20, 21, 21, 20, 39, 53, 53, 51, 52, 53
0200   8980 3334353333333333333435333333333333343435353333333333333333343533
0200   89A0 3333333334353333333335352427313624151515151514151514273535333435
0201   89C0                 db 51, 51, 51, 52, 53, 51, 51, 51, 51, 51, 51, 51, 51, 51, 53, 53, 36, 21, 21, 21, 39, 49, 54, 36, 21, 21, 20, 39, 53, 53, 51, 51, 51, 52, 52, 53, 53, 51, 51, 51, 51, 51, 51, 51, 51, 52, 53, 51, 51, 51, 52, 53, 51, 51, 51, 51, 51, 51, 51, 51, 52, 52, 53, 53
0201   89C0 3333333435333333333333333333353524151515273136241515142735353333
0201   89E0 3334343535333333333333333334353333333435333333333333333334343535
0202   8A00                 db 55, 55, 55, 56, 57, 55, 55, 55, 57, 57, 58, 21, 20, 21, 21, 20, 21, 59, 60, 50, 58, 59, 57, 57, 55, 55, 55, 55, 55, 56, 56, 57, 57, 55, 55, 55, 55, 55, 55, 56, 57, 57, 55, 55, 55, 55, 57, 57, 58, 21, 20, 21, 59, 60, 50, 58, 20, 21, 21, 59, 57, 57, 55, 55
0202   8A00 373737383937373739393A1514151514153B3C323A3B39393737373737383839
0202   8A20 393737373737373839393737373739393A1514153B3C323A1415153B39393737
0203   8A40                 db 55, 55, 55, 55, 55, 55, 55, 56, 56, 57, 57, 55, 55, 55, 55, 56, 57, 55, 55, 55, 55, 55, 55, 55, 55, 55, 55, 55, 55, 56, 57, 55, 55, 55, 55, 55, 55, 55, 57, 57, 58, 21, 20, 21, 21, 22, 21, 21, 22, 21, 59, 60, 50, 58, 21, 59, 57, 57, 55, 55, 55, 55, 55, 55
0203   8A40 3737373737373738383939373737373839373737373737373737373737383937
0203   8A60 37373737373739393A1514151516151516153B3C323A153B3939373737373737
0204   8A80                 db 55, 56, 57, 55, 55, 55, 55, 55, 55, 56, 57, 55, 55, 55, 55, 55, 55, 56, 56, 57, 57, 55, 55, 55, 55, 55, 55, 55, 55, 56, 57, 55, 55, 55, 55, 55, 56, 57, 55, 55, 55, 55, 57, 57, 58, 59, 60, 50, 58, 20, 21, 21, 20, 21, 21, 20, 21, 21, 59, 57, 57, 55, 56, 57
0204   8A80 3738393737373737373839373737373737383839393737373737373737383937
0204   8AA0 3737373738393737373739393A3B3C323A1415151415151415153B3939373839
0205   8AC0                 db 55, 55, 55, 56, 57, 55, 55, 55, 55, 55, 55, 55, 55, 55, 57, 57, 58, 21, 20, 21, 59, 60, 50, 58, 20, 21, 21, 59, 57, 57, 55, 55, 55, 56, 56, 57, 57, 55, 55, 55, 55, 55, 55, 55, 55, 56, 57, 55, 55, 55, 56, 57, 55, 55, 55, 55, 55, 55, 55, 55, 56, 56, 57, 57
0205   8AC0 373737383937373737373737373739393A1514153B3C323A1415153B39393737
0205   8AE0 3738383939373737373737373738393737373839373737373737373738383939
0206   8B00                 db 0, 0, 0, 0, 0, 0, 0, 0, 0, 0, 0, 0, 0, 0, 0, 0, 0, 0, 0, 0, 0, 0, 0, 0, 0, 0, 0, 0, 0, 0, 0, 0, 0, 0, 0, 0, 0, 0, 0, 0, 0, 0, 0, 0, 0, 0, 0, 0, 0, 0, 0, 0, 0, 0, 0, 0, 0, 0, 0, 0, 0, 0, 0, 0
0206   8B00 0000000000000000000000000000000000000000000000000000000000000000
0206   8B20 0000000000000000000000000000000000000000000000000000000000000000
0207   8B40                 db 0, 0, 0, 0, 0, 0, 0, 0, 0, 0, 0, 0, 0, 0, 0, 0, 0, 0, 0, 0, 0, 0, 0, 0, 0, 0, 0, 0, 0, 0, 0, 0, 0, 0, 0, 0, 0, 0, 0, 0, 0, 0, 0, 0, 0, 0, 0, 0, 0, 0, 0, 0, 0, 0, 0, 0, 0, 0, 0, 0, 0, 0, 0, 0
0207   8B40 0000000000000000000000000000000000000000000000000000000000000000
0207   8B60 0000000000000000000000000000000000000000000000000000000000000000
0208   8B80                 db 0, 0, 0, 0, 0, 0, 0, 0, 0, 0, 0, 0, 0, 0, 0, 0, 0, 0, 0, 0, 0, 0, 0, 0, 0, 0, 0, 0, 0, 0, 0, 0, 0, 0, 0, 0, 0, 0, 0, 0, 0, 0, 0, 0, 0, 0, 0, 0, 0, 0, 0, 0, 0, 0, 0, 0, 0, 0, 0, 0, 0, 0, 0, 0
0208   8B80 0000000000000000000000000000000000000000000000000000000000000000
0208   8BA0 0000000000000000000000000000000000000000000000000000000000000000
0209   8BC0                 db 0, 0, 0, 0, 0, 0, 0, 0, 0, 0, 0, 0, 0, 0, 0, 0, 0, 0, 0, 0, 0, 0, 0, 0, 0, 0, 0, 0, 0, 0, 0, 0, 0, 0, 0, 0, 0, 0, 0, 0, 0, 0, 0, 0, 0, 0, 0, 0, 0, 0, 0, 0, 0, 0, 0, 0, 0, 0, 0, 0, 0, 0, 0, 0
0209   8BC0 0000000000000000000000000000000000000000000000000000000000000000
0209   8BE0 0000000000000000000000000000000000000000000000000000000000000000
0210   8C00                 db 0, 0, 0, 0, 0, 0, 0, 0, 0, 0, 0, 0, 0, 0, 0, 0, 0, 0, 0, 0, 0, 0, 0, 0, 0, 0, 0, 0, 0, 0, 0, 0, 0, 0, 0, 0, 0, 0, 0, 0, 0, 0, 0, 0, 0, 0, 0, 0, 0, 0, 0, 0, 0, 0, 0, 0, 0, 0, 0, 0, 0, 0, 0, 0
0210   8C00 0000000000000000000000000000000000000000000000000000000000000000
0210   8C20 0000000000000000000000000000000000000000000000000000000000000000
0211   8C40                 db 0, 0, 0, 0, 0, 0, 0, 0, 0, 0, 0, 0, 0, 0, 0, 0, 0, 0, 0, 0, 0, 0, 0, 0, 0, 0, 0, 0, 0, 0, 0, 0, 0, 0, 0, 0, 0, 0, 0, 0, 0, 0, 0, 0, 0, 0, 0, 0, 0, 0, 0, 0, 0, 0, 0, 0, 0, 0, 0, 0, 0, 0, 0, 0
0211   8C40 0000000000000000000000000000000000000000000000000000000000000000
0211   8C60 0000000000000000000000000000000000000000000000000000000000000000
0212   8C80                 db 0, 0, 0, 0, 0, 0, 0, 0, 0, 0, 0, 0, 0, 0, 0, 0, 0, 0, 0, 0, 0, 0, 0, 0, 0, 0, 0, 0, 0, 0, 0, 0, 0, 0, 0, 0, 0, 0, 0, 0, 0, 0, 0, 0, 0, 0, 0, 0, 0, 0, 0, 0, 0, 0, 0, 0, 0, 0, 0, 0, 0, 0, 0, 0
0212   8C80 0000000000000000000000000000000000000000000000000000000000000000
0212   8CA0 0000000000000000000000000000000000000000000000000000000000000000
0213   8CC0                 db 0, 0, 0, 0, 0, 0, 0, 0, 0, 0, 0, 0, 0, 0, 0, 0, 0, 0, 0, 0, 0, 0, 0, 0, 0, 0, 0, 0, 0, 0, 0, 0, 0, 0, 0, 0, 0, 0, 0, 0, 0, 0, 0, 0, 0, 0, 0, 0, 0, 0, 0, 0, 0, 0, 0, 0, 0, 0, 0, 0, 0, 0, 0, 0
0213   8CC0 0000000000000000000000000000000000000000000000000000000000000000
0213   8CE0 0000000000000000000000000000000000000000000000000000000000000000
0214   8D00                 db 0, 0, 0, 0, 0, 0, 0, 0, 0, 0, 0, 0, 0, 0, 0, 0, 0, 0, 0, 0, 0, 0, 0, 0, 0, 0, 0, 0, 0, 0, 0, 0, 0, 0, 0, 0, 0, 0, 0, 0, 0, 0, 0, 0, 0, 0, 0, 0, 0, 0, 0, 0, 0, 0, 0, 0, 0, 0, 0, 0, 0, 0, 0, 0
0214   8D00 0000000000000000000000000000000000000000000000000000000000000000
0214   8D20 0000000000000000000000000000000000000000000000000000000000000000
0215   8D40                 db 0, 0, 0, 0, 0, 0, 0, 0, 0, 0, 0, 0, 0, 0, 0, 0, 0, 0, 0, 0, 0, 0, 0, 0, 0, 0, 0, 0, 0, 0, 0, 0, 0, 0, 0, 0, 0, 0, 0, 0, 0, 0, 0, 0, 0, 0, 0, 0, 0, 0, 0, 0, 0, 0, 0, 0, 0, 0, 0, 0, 0, 0, 0, 0
0215   8D40 0000000000000000000000000000000000000000000000000000000000000000
0215   8D60 0000000000000000000000000000000000000000000000000000000000000000
0216   8D80                 db 0, 0, 0, 0, 0, 0, 0, 0, 0, 0, 0, 0, 0, 0, 0, 0, 0, 0, 0, 0, 0, 0, 0, 0, 0, 0, 0, 0, 0, 0, 0, 0, 0, 0, 0, 0, 0, 0, 0, 0, 0, 0, 0, 0, 0, 0, 0, 0, 0, 0, 0, 0, 0, 0, 0, 0, 0, 0, 0, 0, 0, 0, 0, 0
0216   8D80 0000000000000000000000000000000000000000000000000000000000000000
0216   8DA0 0000000000000000000000000000000000000000000000000000000000000000
0217   8DC0                 db 0, 0, 0, 0, 0, 0, 0, 0, 0, 0, 0, 0, 0, 0, 0, 0, 0, 0, 0, 0, 0, 0, 0, 0, 0, 0, 0, 0, 0, 0, 0, 0, 0, 0, 0, 0, 0, 0, 0, 0, 0, 0, 0, 0, 0, 0, 0, 0, 0, 0, 0, 0, 0, 0, 0, 0, 0, 0, 0, 0, 0, 0, 0, 0
0217   8DC0 0000000000000000000000000000000000000000000000000000000000000000
0217   8DE0 0000000000000000000000000000000000000000000000000000000000000000
0218   8E00                 db 0, 0, 0, 0, 0, 0, 0, 0, 0, 0, 0, 0, 0, 0, 0, 0, 0, 0, 0, 0, 0, 0, 0, 0, 0, 0, 0, 0, 0, 0, 0, 0, 0, 0, 0, 0, 0, 0, 0, 0, 0, 0, 0, 0, 0, 0, 0, 0, 0, 0, 0, 0, 0, 0, 0, 0, 0, 0, 0, 0, 0, 0, 0, 0
0218   8E00 0000000000000000000000000000000000000000000000000000000000000000
0218   8E20 0000000000000000000000000000000000000000000000000000000000000000
0219   8E40                 db 0, 0, 0, 0, 0, 0, 0, 0, 0, 0, 0, 0, 0, 0, 0, 0, 0, 0, 0, 0, 0, 0, 0, 0, 0, 0, 0, 0, 0, 0, 0, 0, 0, 0, 0, 0, 0, 0, 0, 0, 0, 0, 0, 0, 0, 0, 0, 0, 0, 0, 0, 0, 0, 0, 0, 0, 0, 0, 0, 0, 0, 0, 0, 0
0219   8E40 0000000000000000000000000000000000000000000000000000000000000000
0219   8E60 0000000000000000000000000000000000000000000000000000000000000000
0220   8E80                 db 0, 0, 0, 0, 0, 0, 0, 0, 0, 0, 0, 0, 0, 0, 0, 0, 0, 0, 0, 0, 0, 0, 0, 0, 0, 0, 0, 0, 0, 0, 0, 0, 0, 0, 0, 0, 0, 0, 0, 0, 0, 0, 0, 0, 0, 0, 0, 0, 0, 0, 0, 0, 0, 0, 0, 0, 0, 0, 0, 0, 0, 0, 0, 0
0220   8E80 0000000000000000000000000000000000000000000000000000000000000000
0220   8EA0 0000000000000000000000000000000000000000000000000000000000000000
0221   8EC0                 db 0, 0, 0, 0, 0, 0, 0, 0, 0, 0, 0, 0, 0, 0, 0, 0, 0, 0, 0, 0, 0, 0, 0, 0, 0, 0, 0, 0, 0, 0, 0, 0, 0, 0, 0, 0, 0, 0, 0, 0, 0, 0, 0, 0, 0, 0, 0, 0, 0, 0, 0, 0, 0, 0, 0, 0, 0, 0, 0, 0, 0, 0, 0, 0
0221   8EC0 0000000000000000000000000000000000000000000000000000000000000000
0221   8EE0 0000000000000000000000000000000000000000000000000000000000000000
0222   8F00                 db 61, 61, 61, 61, 61, 61, 61, 61, 61, 61, 61, 61, 61, 61, 61, 61, 61, 61, 61, 61, 61, 61, 61, 61, 61, 61, 61, 61, 61, 61, 61, 61, 61, 61, 61, 61, 61, 61, 61, 61, 61, 61, 61, 61, 61, 61, 61, 61, 61, 61, 61, 61, 61, 61, 61, 61, 61, 61, 61, 61, 61, 61, 61, 61
0222   8F00 3D3D3D3D3D3D3D3D3D3D3D3D3D3D3D3D3D3D3D3D3D3D3D3D3D3D3D3D3D3D3D3D
0222   8F20 3D3D3D3D3D3D3D3D3D3D3D3D3D3D3D3D3D3D3D3D3D3D3D3D3D3D3D3D3D3D3D3D
0223   8F40                 db 61, 61, 61, 61, 61, 61, 61, 61, 61, 61, 61, 61, 61, 61, 61, 61, 61, 61, 61, 61, 61, 61, 61, 61, 61, 61, 61, 61, 61, 61, 61, 61, 61, 61, 61, 61, 61, 61, 61, 61, 61, 61, 61, 61, 61, 61, 61, 61, 61, 61, 61, 61, 61, 61, 61, 61, 61, 61, 61, 61, 61, 61, 61, 61
0223   8F40 3D3D3D3D3D3D3D3D3D3D3D3D3D3D3D3D3D3D3D3D3D3D3D3D3D3D3D3D3D3D3D3D
0223   8F60 3D3D3D3D3D3D3D3D3D3D3D3D3D3D3D3D3D3D3D3D3D3D3D3D3D3D3D3D3D3D3D3D
0224   8F80                 db 61, 61, 61, 61, 61, 61, 61, 61, 61, 61, 61, 61, 61, 61, 61, 61, 61, 61, 61, 61, 61, 61, 61, 61, 61, 61, 61, 61, 61, 61, 61, 61, 61, 61, 61, 61, 61, 61, 61, 61, 61, 61, 61, 61, 61, 61, 61, 61, 61, 61, 61, 61, 61, 61, 61, 61, 61, 61, 61, 61, 61, 61, 61, 61
0224   8F80 3D3D3D3D3D3D3D3D3D3D3D3D3D3D3D3D3D3D3D3D3D3D3D3D3D3D3D3D3D3D3D3D
0224   8FA0 3D3D3D3D3D3D3D3D3D3D3D3D3D3D3D3D3D3D3D3D3D3D3D3D3D3D3D3D3D3D3D3D
0225   8FC0                 db 61, 61, 61, 61, 61, 61, 61, 61, 61, 61, 61, 61, 61, 61, 61, 61, 61, 61, 61, 61, 61, 61, 61, 61, 61, 61, 61, 61, 61, 61, 61, 61, 61, 61, 61, 61, 61, 61, 61, 61, 61, 61, 61, 61, 61, 61, 61, 61, 61, 61, 61, 61, 61, 61, 61, 61, 61, 61, 61, 61, 61, 61, 61, 61
0225   8FC0 3D3D3D3D3D3D3D3D3D3D3D3D3D3D3D3D3D3D3D3D3D3D3D3D3D3D3D3D3D3D3D3D
0225   8FE0 3D3D3D3D3D3D3D3D3D3D3D3D3D3D3D3D3D3D3D3D3D3D3D3D3D3D3D3D3D3D3D3D
0226   9000                 db 62, 62, 62, 63, 64, 62, 62, 62, 64, 64, 64, 64, 64, 64, 64, 64, 64, 64, 64, 64, 64, 64, 64, 64, 62, 62, 62, 62, 62, 63, 63, 64, 64, 62, 62, 62, 62, 62, 62, 63, 64, 64, 62, 62, 62, 62, 64, 64, 64, 64, 64, 64, 64, 64, 64, 64, 64, 64, 64, 64, 64, 64, 62, 62
0226   9000 3E3E3E3F403E3E3E404040404040404040404040404040403E3E3E3E3E3F3F40
0226   9020 403E3E3E3E3E3E3F40403E3E3E3E404040404040404040404040404040403E3E
0227   9040                 db 62, 62, 62, 62, 62, 62, 62, 63, 63, 64, 64, 62, 62, 62, 62, 63, 64, 62, 62, 62, 62, 62, 62, 62, 62, 62, 62, 62, 62, 63, 64, 62, 62, 62, 62, 62, 62, 62, 64, 64, 64, 64, 64, 64, 64, 64, 64, 64, 64, 64, 64, 64, 64, 64, 64, 64, 64, 64, 62, 62, 62, 62, 62, 62
0227   9040 3E3E3E3E3E3E3E3F3F40403E3E3E3E3F403E3E3E3E3E3E3E3E3E3E3E3E3F403E
0227   9060 3E3E3E3E3E3E40404040404040404040404040404040404040403E3E3E3E3E3E
0228   9080                 db 62, 63, 64, 62, 62, 62, 62, 62, 62, 63, 64, 62, 62, 62, 62, 62, 62, 63, 63, 64, 64, 62, 62, 62, 62, 62, 62, 62, 62, 63, 64, 62, 62, 62, 62, 62, 63, 64, 62, 62, 62, 62, 64, 64, 64, 64, 64, 64, 64, 64, 64, 64, 64, 64, 64, 64, 64, 64, 64, 64, 64, 62, 63, 64
0228   9080 3E3F403E3E3E3E3E3E3F403E3E3E3E3E3E3F3F40403E3E3E3E3E3E3E3E3F403E
0228   90A0 3E3E3E3E3F403E3E3E3E404040404040404040404040404040404040403E3F40
0229   90C0                 db 62, 62, 62, 63, 64, 62, 62, 62, 62, 62, 62, 62, 62, 62, 64, 64, 64, 64, 64, 64, 64, 64, 64, 64, 64, 64, 64, 64, 64, 64, 62, 62, 62, 63, 63, 64, 64, 62, 62, 62, 62, 62, 62, 62, 62, 63, 64, 62, 62, 62, 63, 64, 62, 62, 62, 62, 62, 62, 62, 62, 63, 63, 64, 64
0229   90C0 3E3E3E3F403E3E3E3E3E3E3E3E3E404040404040404040404040404040403E3E
0229   90E0 3E3F3F40403E3E3E3E3E3E3E3E3F403E3E3E3F403E3E3E3E3E3E3E3E3F3F4040
0230   9100                 db 14, 14, 14, 65, 66, 14, 14, 14, 66, 66, 66, 66, 66, 66, 66, 66, 66, 66, 66, 66, 66, 66, 66, 66, 14, 14, 14, 14, 14, 65, 65, 66, 66, 14, 14, 14, 14, 14, 14, 65, 66, 66, 14, 14, 14, 14, 66, 66, 66, 66, 66, 66, 66, 66, 66, 66, 66, 66, 66, 66, 66, 66, 14, 14
0230   9100 0E0E0E41420E0E0E424242424242424242424242424242420E0E0E0E0E414142
0230   9120 420E0E0E0E0E0E4142420E0E0E0E424242424242424242424242424242420E0E
0231   9140                 db 14, 14, 14, 14, 14, 14, 14, 65, 65, 66, 66, 14, 14, 14, 14, 65, 66, 14, 14, 14, 14, 14, 14, 14, 14, 14, 14, 14, 14, 65, 66, 14, 14, 14, 14, 14, 14, 14, 66, 66, 66, 66, 66, 66, 66, 66, 66, 66, 66, 66, 66, 66, 66, 66, 66, 66, 66, 66, 14, 14, 14, 14, 14, 14
0231   9140 0E0E0E0E0E0E0E414142420E0E0E0E41420E0E0E0E0E0E0E0E0E0E0E0E41420E
0231   9160 0E0E0E0E0E0E42424242424242424242424242424242424242420E0E0E0E0E0E
0232   9180                 db 14, 65, 66, 14, 14, 14, 14, 14, 14, 65, 66, 14, 14, 14, 14, 14, 14, 65, 65, 66, 66, 14, 14, 14, 14, 14, 14, 14, 14, 65, 66, 14, 14, 14, 14, 14, 65, 66, 14, 14, 14, 14, 66, 66, 66, 66, 66, 66, 66, 66, 66, 66, 66, 66, 66, 66, 66, 66, 66, 66, 66, 14, 65, 66
0232   9180 0E41420E0E0E0E0E0E41420E0E0E0E0E0E414142420E0E0E0E0E0E0E0E41420E
0232   91A0 0E0E0E0E41420E0E0E0E424242424242424242424242424242424242420E4142
0233   91C0                 db 14, 14, 14, 65, 66, 14, 14, 14, 14, 14, 14, 14, 14, 14, 66, 66, 66, 66, 66, 66, 66, 66, 66, 66, 66, 66, 66, 66, 66, 66, 14, 14, 14, 65, 65, 66, 66, 14, 14, 14, 14, 14, 14, 14, 14, 65, 66, 14, 14, 14, 65, 66, 14, 14, 14, 14, 14, 14, 14, 14, 65, 65, 66, 66
0233   91C0 0E0E0E41420E0E0E0E0E0E0E0E0E424242424242424242424242424242420E0E
0233   91E0 0E414142420E0E0E0E0E0E0E0E41420E0E0E41420E0E0E0E0E0E0E0E41414242
0234   9200             
0235   9200             ; maps tails
0236   9200             ;   1,  1,  1,  1,  1,  1,  1,  1,  1,  1,  1,  1,  1,  1,  1,  1,  1,  1,  1,  1,  1,  1,  1,  1,  1,  1,  1,  1,  1,  1,  1,  1,  1,  1,  1,  1,  1,  1,  1,  1,  1,  1,  1,  1,  1,  1,  1,  1,  1,  1,  1,  1,  1,  1,  1,  1,  1,  1,  1,  1,  1,  1,  1,  1,  1,  1,  1,  1,  1,  1,  1,  1,  1,  1,  1,  1,  1,  1,  1,  1,  1,  1,  1,  1,  1,  1,  1,  1,  1,  1,  1,  1,  1,  1,  1,  1,  1,  1,  1,  1,  1,  1,  1,  1,  1,  1,  1,  1,  1,  1,  1,  1,  1,  1,  1,  1,  1,  1,  1,  1,  1,  1,  1,  1,  1,  1,  1,  1,  1,  1,  1,  1,  1,  1,  1,  1,  1,  1,  1,  1,  1,  1,  1,  1,  1,  1,  1,  1,  1,  1,  1,  1,  1,  1,  1,  1,  1,  1,  1,  1,  1,  1,  1,  1,  1,  1,  1,  1,  1,  1,  1,  1,  1,  1,  1,  1,  1,  1,  1,  1,  1,  1,  1,  1,  1,  1,  1,  1,  1,  1,  1,  1,  1,  1,  1,  1,  1,  1,  1,  1,  1,  1,  1,  1,  1,  1,  1,  1,  1,  1,  1,  1,  1,  1,  1,  1,  1,  1,  1,  1,  1,  1,  1,  1,  1,  1,  1,  1,  1,  1,  1,  1,  1,  1,  1,  1,  1,  1,  1,  1,  1,  1,  1,  1,  1,  1,  1,  1,  1,  1,  1,  1,  1,  1,  1,  1,
0237   9200             ;   1,  1,  1,  1,  1,  1,  1,  1,  1,  1,  1,  1,  1,  1,  1,  1,  1,  1,  1,  1,  1,  1,  1,  1,  1,  1,  1,  1,  1,  1,  1,  1,  1,  1,  1,  1,  1,  1,  1,  1,  1,  1,  1,  1,  1,  1,  1,  1,  1,  1,  1,  1,  1,  1,  1,  1,  1,  1,  1,  1,  1,  1,  1,  1,  1,  1,  1,  1,  1,  1,  1,  1,  1,  1,  1,  1,  1,  1,  1,  1,  1,  1,  1,  1,  2,  3,  3,  3,  3,  4,  1,  1,  1,  1,  1,  1,  1,  1,  1,  1,  1,  1,  1,  1,  1,  1,  1,  1,  1,  1,  1,  1,  1,  1,  1,  1,  1,  1,  1,  1,  1,  1,  1,  1,  1,  1,  1,  1,  1,  1,  1,  1,  1,  1,  1,  1,  1,  1,  1,  1,  1,  1,  1,  1,  1,  1,  1,  1,  1,  1,  1,  1,  1,  1,  1,  1,  1,  1,  1,  1,  1,  1,  1,  1,  1,  1,  1,  1,  1,  1,  1,  1,  1,  1,  1,  1,  1,  1,  1,  1,  1,  1,  1,  1,  1,  1,  1,  1,  1,  1,  1,  1,  1,  1,  1,  1,  1,  1,  1,  1,  1,  1,  1,  1,  1,  1,  1,  1,  1,  1,  1,  1,  1,  1,  1,  1,  1,  1,  1,  1,  1,  1,  1,  1,  1,  1,  1,  1,  1,  1,  1,  1,  1,  1,  1,  1,  1,  1,  1,  1,  1,  1,  1,  1,  1,  1,  1,  2,  5,  1,  1,  1,  1,  1,  1,  1,
0238   9200             ;   5,  1,  1,  1,  1,  1,  1,  1,  1,  6,  6,  7,  8,  8,  9, 10, 11, 11, 11, 12,  6,  6,  6,  1,  1,  1,  1,  1,  1,  1,  1,  1,  1,  1,  1,  1,  1,  1,  1,  1,  1,  1,  1,  1,  1,  1,  1,  6,  6,  7,  8,  8,  9, 10, 11, 11, 11, 12,  6,  6,  6,  1,  1,  1,  2,  3,  4,  1,  1,  1,  1,  1,  1,  1,  1,  1,  1,  1,  1,  1,  1,  1,  1, 13, 14, 14, 14, 14, 14, 14,  5,  1,  1,  1,  1,  1,  1, 13,  4,  1,  1,  1,  1,  6,  6,  6,  6,  6,  6,  6,  6,  6,  6,  6,  6,  6,  6,  6,  6,  6,  6,  1,  1,  1,  1,  2,  5,  1,  1,  1,  1,  1,  1, 13,  4,  1,  1,  1,  1,  1,  1,  2,  4,  1,  1,  1,  1,  1,  1,  1,  1,  2,  3,  3,  5,  1,  1,  1,  1,  1,  1,  1,  1,  1,  1,  1,  1,  1,  1,  1,  1,  6,  6,  7,  8,  8,  9, 10, 11, 11, 11, 12,  6, 11, 12,  6,  6,  6,  1,  1,  1,  1,  1,  1,  1,  1,  1,  1,  1,  1,  2,  3,  4,  1,  1,  1,  1,  6,  6,  7,  8,  8,  9, 10, 11, 11, 11, 12,  6,  6,  6,  1,  1,  1,  1,  1,  1,  1,  1,  1,  1,  1,  2,  4,  1,  1,  1,  1,  1,  1,  1,  1,  1,  1,  1,  1, 13, 14, 15,  1,  1,  1,  1,  1,  1,  1,
0239   9200             ;  15,  1,  1,  1,  1,  1,  1,  1, 16,  6,  6,  7,  8,  8,  9, 10, 11, 11, 11, 12,  6,  6,  6, 16,  3,  3,  4,  1,  1,  1,  1,  1,  1,  1,  1,  2,  4,  1,  1,  1,  1,  1,  1,  1,  2,  3, 16,  6,  6,  7,  8,  8,  9, 10, 11, 11, 11, 12,  6,  6,  6, 16,  3,  3, 14, 14, 14,  3,  4,  1,  1,  1,  1,  1,  1,  1,  1,  1,  1,  1,  1,  1,  1, 17, 14, 14, 14, 14, 14, 14, 15,  1,  1,  1,  1,  1,  1, 17, 14,  3,  3,  3, 16,  6,  6,  6,  6,  6,  6,  6,  6,  6,  6,  6,  6,  6,  6,  6,  6,  6,  6, 16,  3,  3,  3, 14, 15,  1,  1,  1,  1,  1,  1, 17, 14,  4,  1,  1,  1,  1,  2, 14, 14,  3,  3, 18, 18, 16, 16,  3,  3, 14, 14, 14, 15,  1,  1,  1,  1,  1,  1,  2,  4,  1,  1,  1,  1,  2,  3,  3, 16,  6,  6,  7,  8,  8,  9, 10, 11, 11, 11, 12,  6, 11, 12,  6,  6,  6, 16,  1,  1,  1,  1,  1,  1,  1,  1,  1,  1, 13, 14, 14, 14,  3,  3,  3, 16,  6,  6,  7,  8,  8,  9, 10, 11, 11, 11, 12,  6,  6,  6, 16,  4,  1,  1,  1,  1,  1,  1,  1,  1,  2, 14, 14,  5,  1,  1,  1,  1,  1,  1,  1,  1,  1,  1,  1, 17, 14, 14,  4,  1,  1,  1,  1,  1,  1,
0240   9200             ;  14,  4,  1,  1,  1,  1,  2,  3, 16,  6,  6,  7,  8,  8,  9, 10, 11, 11, 11, 12,  6,  6,  6, 16, 14, 14, 14,  3,  3, 18, 18, 16, 16,  3,  3, 14, 14,  3,  3, 18, 16, 16,  3,  3, 14, 14, 16,  6,  6,  7,  8,  8,  9, 10, 11, 11, 11, 12,  6,  6,  6, 16, 14, 14, 14, 14, 14, 14, 14,  3,  3, 18, 18, 16, 16,  3,  3,  4,  1,  1,  1,  1,  2, 14, 14, 14, 14, 14, 14, 14, 14,  4,  1,  1,  1,  1,  2, 14, 14, 14, 14, 14, 16,  6,  6,  6,  6,  6,  6,  6,  6,  6,  6,  6,  6,  6,  6,  6,  6,  6,  6, 16, 14, 14, 14, 14, 14,  4,  1,  1,  1,  1,  2, 14, 14, 14,  3, 18, 16,  3, 14, 14, 14, 14, 14, 18, 18, 16, 16, 14, 14, 14, 14, 14, 14,  4,  1,  1,  1,  1,  2, 14, 14,  3, 18, 16,  3, 14, 14, 14, 16,  6,  6,  7,  8,  8,  9, 10, 11, 11, 11, 12,  6, 11, 12,  6,  6,  6, 16,  1,  1,  1,  1,  1,  1,  1,  1,  1,  1, 17, 14, 14, 14, 14, 14, 14, 16,  6,  6,  7,  8,  8,  9, 10, 11, 11, 11, 12,  6,  6,  6, 16, 14,  3,  3, 18, 18, 16, 16,  3,  3, 14, 14, 14, 15,  1,  1,  1,  1,  1,  1,  1,  1,  1,  1,  2, 14, 14, 14, 14,  3,  3, 18, 18, 16, 16,
0241   9200             ;  14, 14,  3, 18, 16,  3, 14, 14, 16,  6,  6,  7,  8,  8,  9, 10, 11, 11, 11, 12,  6,  6,  6, 16, 14, 14, 14, 14, 14, 18, 18, 16, 16, 14, 14, 14, 14, 14, 14, 18, 16, 16, 14, 14, 14, 14, 16,  6,  6,  7,  8,  8,  9, 10, 11, 11, 11, 12,  6,  6,  6, 16, 14, 14, 14, 14, 14, 14, 14, 14, 14, 18, 18, 16, 16, 14, 14, 14,  3, 18, 16,  3, 14, 14, 14, 14, 14, 14, 14, 14, 14, 14,  3, 18, 16,  3, 14, 14, 14, 14, 14, 14, 16,  6,  6,  6,  6,  6,  6,  6,  6,  6,  6,  6,  6,  6,  6,  6,  6,  6,  6, 16, 14, 14, 14, 14, 14, 14,  3, 18, 16,  3, 14, 14, 14, 14, 14, 18, 16, 14, 14, 14, 14, 14, 14, 18, 18, 16, 16, 14, 14, 14, 14, 14, 14, 14,  3, 18, 16,  3, 14, 14, 14, 14, 18, 16, 14, 14, 14, 14, 16,  6,  6,  7,  8,  8,  9, 10, 11, 11, 11, 12,  6, 11, 12,  6,  6,  6, 16,  3, 18, 16,  3,  4,  1,  1,  1,  1,  2, 14, 14, 14, 14, 14, 14, 14, 16,  6,  6,  7,  8,  8,  9, 10, 11, 11, 11, 12,  6,  6,  6, 16, 14, 14, 14, 18, 18, 16, 16, 14, 14, 14, 14, 14, 14,  4,  1,  1,  1,  1,  2,  3, 18, 16,  3, 14, 14, 14, 14, 14, 14, 14, 18, 18, 16, 16,
0242   9200             ;  14, 14, 14, 18, 16, 14, 14, 14, 16,  6,  6,  7,  8,  8,  9, 10, 11, 11, 11, 12,  6,  6,  6, 16, 14, 14, 14, 14, 14, 18, 18, 16, 16, 14, 14, 14, 14, 14, 14, 18, 16, 16, 14, 14, 14, 14, 16,  6,  6,  7,  8,  8,  9, 10, 11, 11, 11, 12,  6,  6,  6, 16, 14, 14, 14, 14, 14, 14, 14, 14, 14, 18, 18, 16, 16, 14, 14, 14, 14, 18, 16, 14, 14, 14, 14, 14, 14, 14, 14, 14, 14, 14, 14, 18, 16, 14, 14, 14, 14, 14, 14, 14, 16,  6,  6,  6,  6,  6,  6,  6,  6,  6,  6,  6,  6,  6,  6,  6,  6,  6,  6, 16, 14, 14, 14, 14, 14, 14, 14, 18, 16, 14, 14, 14, 14, 14, 14, 18, 16, 14, 14, 14, 14, 14, 14, 18, 18, 16, 16, 14, 14, 14, 14, 14, 14, 14, 14, 18, 16, 14, 14, 14, 14, 14, 18, 16, 14, 14, 14, 14, 16,  6,  6,  7,  8,  8,  9, 10, 11, 11, 11, 12,  6, 11, 12,  6,  6,  6, 16, 14, 18, 16, 14, 14,  3, 18, 16,  3, 14, 14, 14, 14, 14, 14, 14, 14, 16,  6,  6,  7,  8,  8,  9, 10, 11, 11, 11, 12,  6,  6,  6, 16, 14, 14, 14, 18, 18, 16, 16, 14, 14, 14, 14, 14, 14, 14,  3, 18, 16,  3, 14, 14, 18, 16, 14, 14, 14, 14, 14, 14, 14, 14, 18, 18, 16, 16,
0243   9200             ;  14, 14, 14, 18, 16, 14, 14, 14, 16, 16, 19, 20, 21, 21, 21, 21, 22, 21, 21, 21, 21, 23, 16, 16, 14, 14, 14, 14, 14, 18, 18, 16, 16, 14, 14, 14, 14, 14, 14, 18, 16, 16, 14, 14, 14, 14, 16, 16, 19, 20, 21, 21, 21, 21, 22, 21, 21, 21, 21, 23, 16, 16, 14, 14, 14, 14, 14, 14, 14, 14, 14, 18, 18, 16, 16, 14, 14, 14, 14, 18, 16, 14, 14, 14, 14, 14, 14, 14, 14, 14, 14, 14, 14, 18, 16, 14, 14, 14, 14, 14, 14, 14, 16, 16, 19, 20, 21, 21, 21, 21, 22, 21, 21, 22, 24, 25, 26, 27, 21, 23, 16, 16, 14, 14, 14, 14, 14, 14, 14, 18, 16, 14, 14, 14, 14, 14, 14, 18, 16, 14, 14, 14, 14, 14, 14, 18, 18, 16, 16, 14, 14, 14, 14, 14, 14, 14, 14, 18, 16, 14, 14, 14, 14, 14, 18, 16, 14, 14, 14, 14, 16, 16, 19, 28, 29, 30, 31, 21, 22, 21, 21, 21, 21, 21, 21, 21, 23, 16, 16, 14, 18, 16, 14, 14, 14, 18, 16, 14, 14, 14, 14, 14, 14, 14, 14, 14, 16, 16, 19, 20, 21, 21, 32, 33, 34, 35, 21, 21, 21, 23, 16, 16, 14, 14, 14, 18, 18, 16, 16, 14, 14, 14, 14, 14, 14, 14, 14, 18, 16, 14, 14, 14, 18, 16, 14, 14, 14, 14, 14, 14, 14, 14, 18, 18, 16, 16,
0244   9200             ;  14, 14, 14, 18, 16, 14, 14, 14, 16, 16, 36, 21, 21, 21, 21, 21, 21, 37, 21, 21, 38, 39, 16, 16, 14, 14, 14, 14, 14, 18, 18, 16, 16, 14, 14, 14, 14, 14, 14, 18, 16, 16, 14, 14, 14, 14, 16, 16, 36, 21, 21, 21, 37, 21, 21, 38, 21, 21, 21, 39, 16, 16, 14, 14, 14, 14, 14, 14, 14, 14, 14, 18, 18, 16, 16, 14, 14, 14, 14, 18, 16, 14, 14, 14, 14, 14, 14, 14, 14, 14, 14, 14, 14, 18, 16, 14, 14, 14, 14, 14, 14, 14, 16, 16, 36, 21, 21, 21, 20, 21, 21, 20, 21, 21, 37, 21, 21, 38, 21, 39, 16, 16, 14, 14, 14, 14, 14, 14, 14, 18, 16, 14, 14, 14, 14, 14, 14, 18, 16, 14, 14, 14, 14, 14, 14, 18, 18, 16, 16, 14, 14, 14, 14, 14, 14, 14, 14, 18, 16, 14, 14, 14, 14, 14, 18, 16, 14, 14, 14, 14, 16, 16, 36, 37, 21, 21, 38, 21, 21, 21, 21, 21, 21, 21, 21, 21, 39, 16, 16, 14, 18, 16, 14, 14, 14, 18, 16, 14, 14, 14, 14, 14, 14, 14, 14, 14, 16, 16, 36, 21, 21, 21, 37, 21, 21, 38, 21, 21, 21, 39, 16, 16, 14, 14, 14, 18, 18, 16, 16, 14, 14, 14, 14, 14, 14, 14, 14, 18, 16, 14, 14, 14, 18, 16, 14, 14, 14, 14, 14, 14, 14, 14, 18, 18, 16, 16,
0245   9200             ;  14, 14, 14, 18, 16, 14, 14, 14, 16, 16, 36, 21, 40, 41, 21, 40, 41, 39, 42, 43, 36, 39, 16, 16, 14, 14, 14, 14, 14, 18, 18, 16, 16, 14, 14, 14, 14, 14, 14, 18, 16, 16, 14, 14, 14, 14, 16, 16, 36, 21, 40, 41, 39, 42, 43, 36, 40, 41, 21, 39, 16, 16, 14, 14, 14, 14, 14, 14, 14, 14, 14, 18, 18, 16, 16, 14, 14, 14, 14, 18, 16, 14, 14, 14, 14, 14, 14, 14, 14, 14, 14, 14, 14, 18, 16, 14, 14, 14, 14, 14, 14, 14, 16, 16, 36, 21, 40, 41, 21, 40, 41, 21, 40, 41, 39, 42, 43, 36, 21, 39, 16, 16, 14, 14, 14, 14, 14, 14, 14, 18, 16, 14, 14, 14, 14, 14, 14, 18, 16, 14, 14, 14, 14, 14, 14, 18, 18, 16, 16, 14, 14, 14, 14, 14, 14, 14, 14, 18, 16, 14, 14, 14, 14, 14, 18, 16, 14, 14, 14, 14, 16, 16, 36, 44, 42, 43, 45, 40, 41, 46, 40, 41, 21, 40, 41, 21, 39, 16, 16, 14, 18, 16, 14, 14, 14, 18, 16, 14, 14, 14, 14, 14, 14, 14, 14, 14, 16, 16, 36, 21, 40, 41, 44, 42, 43, 45, 40, 41, 21, 39, 16, 16, 14, 14, 14, 18, 18, 16, 16, 14, 14, 14, 14, 14, 14, 14, 14, 18, 16, 14, 14, 14, 18, 16, 14, 14, 14, 14, 14, 14, 14, 14, 18, 18, 16, 16,
0246   9200             ;  14, 14, 14, 18, 16, 14, 14, 14, 16, 16, 36, 22, 47, 48, 22, 47, 48, 39, 49, 50, 36, 39, 16, 16, 14, 14, 14, 14, 14, 18, 18, 16, 16, 14, 14, 14, 14, 14, 14, 18, 16, 16, 14, 14, 14, 14, 16, 16, 36, 22, 47, 48, 39, 49, 50, 36, 47, 48, 21, 39, 16, 16, 14, 14, 14, 14, 14, 14, 14, 14, 14, 18, 18, 16, 16, 14, 14, 14, 14, 18, 16, 14, 14, 14, 14, 14, 14, 14, 14, 14, 14, 14, 14, 18, 16, 14, 14, 14, 14, 14, 14, 14, 16, 16, 36, 21, 47, 48, 21, 47, 48, 21, 47, 48, 39, 49, 50, 36, 21, 39, 16, 16, 14, 14, 14, 14, 14, 14, 14, 18, 16, 14, 14, 14, 14, 14, 14, 18, 16, 14, 14, 14, 14, 14, 14, 18, 18, 16, 16, 14, 14, 14, 14, 14, 14, 14, 14, 18, 16, 14, 14, 14, 14, 14, 18, 16, 14, 14, 14, 14, 16, 16, 36, 39, 49, 50, 36, 47, 48, 21, 47, 48, 21, 47, 48, 21, 39, 16, 16, 14, 18, 16, 14, 14, 14, 18, 16, 14, 14, 14, 14, 14, 14, 14, 14, 14, 16, 16, 36, 22, 47, 48, 39, 49, 50, 36, 47, 48, 21, 39, 16, 16, 14, 14, 14, 18, 18, 16, 16, 14, 14, 14, 14, 14, 14, 14, 14, 18, 16, 14, 14, 14, 18, 16, 14, 14, 14, 14, 14, 14, 14, 14, 18, 18, 16, 16,
0247   9200             ;  51, 51, 51, 52, 53, 51, 51, 51, 53, 53, 36, 21, 21, 21, 21, 21, 21, 39, 49, 54, 36, 39, 53, 53, 51, 51, 51, 51, 51, 52, 52, 53, 53, 51, 51, 51, 51, 51, 51, 52, 53, 53, 51, 51, 51, 51, 53, 53, 36, 21, 21, 21, 39, 49, 54, 36, 21, 21, 20, 39, 53, 53, 51, 51, 51, 51, 51, 51, 51, 51, 51, 52, 52, 53, 53, 51, 51, 51, 51, 52, 53, 51, 51, 51, 51, 51, 51, 51, 51, 51, 51, 51, 51, 52, 53, 51, 51, 51, 51, 51, 51, 51, 53, 53, 36, 21, 21, 21, 21, 21, 21, 21, 21, 21, 39, 49, 54, 36, 20, 39, 53, 53, 51, 51, 51, 51, 51, 51, 51, 52, 53, 51, 51, 51, 51, 51, 51, 52, 53, 51, 51, 51, 51, 51, 51, 52, 52, 53, 53, 51, 51, 51, 51, 51, 51, 51, 51, 52, 53, 51, 51, 51, 51, 51, 52, 53, 51, 51, 51, 51, 53, 53, 36, 39, 49, 54, 36, 21, 21, 21, 21, 21, 20, 21, 21, 20, 39, 53, 53, 51, 52, 53, 51, 51, 51, 52, 53, 51, 51, 51, 51, 51, 51, 51, 51, 51, 53, 53, 36, 21, 21, 21, 39, 49, 54, 36, 21, 21, 20, 39, 53, 53, 51, 51, 51, 52, 52, 53, 53, 51, 51, 51, 51, 51, 51, 51, 51, 52, 53, 51, 51, 51, 52, 53, 51, 51, 51, 51, 51, 51, 51, 51, 52, 52, 53, 53,
0248   9200             ;  55, 55, 55, 56, 57, 55, 55, 55, 57, 57, 58, 21, 20, 21, 21, 20, 21, 59, 60, 50, 58, 59, 57, 57, 55, 55, 55, 55, 55, 56, 56, 57, 57, 55, 55, 55, 55, 55, 55, 56, 57, 57, 55, 55, 55, 55, 57, 57, 58, 21, 20, 21, 59, 60, 50, 58, 20, 21, 21, 59, 57, 57, 55, 55, 55, 55, 55, 55, 55, 55, 55, 56, 56, 57, 57, 55, 55, 55, 55, 56, 57, 55, 55, 55, 55, 55, 55, 55, 55, 55, 55, 55, 55, 56, 57, 55, 55, 55, 55, 55, 55, 55, 57, 57, 58, 21, 20, 21, 21, 22, 21, 21, 22, 21, 59, 60, 50, 58, 21, 59, 57, 57, 55, 55, 55, 55, 55, 55, 55, 56, 57, 55, 55, 55, 55, 55, 55, 56, 57, 55, 55, 55, 55, 55, 55, 56, 56, 57, 57, 55, 55, 55, 55, 55, 55, 55, 55, 56, 57, 55, 55, 55, 55, 55, 56, 57, 55, 55, 55, 55, 57, 57, 58, 59, 60, 50, 58, 20, 21, 21, 20, 21, 21, 20, 21, 21, 59, 57, 57, 55, 56, 57, 55, 55, 55, 56, 57, 55, 55, 55, 55, 55, 55, 55, 55, 55, 57, 57, 58, 21, 20, 21, 59, 60, 50, 58, 20, 21, 21, 59, 57, 57, 55, 55, 55, 56, 56, 57, 57, 55, 55, 55, 55, 55, 55, 55, 55, 56, 57, 55, 55, 55, 56, 57, 55, 55, 55, 55, 55, 55, 55, 55, 56, 56, 57, 57,
0249   9200             ;   0,  0,  0,  0,  0,  0,  0,  0,  0,  0,  0,  0,  0,  0,  0,  0,  0,  0,  0,  0,  0,  0,  0,  0,  0,  0,  0,  0,  0,  0,  0,  0,  0,  0,  0,  0,  0,  0,  0,  0,  0,  0,  0,  0,  0,  0,  0,  0,  0,  0,  0,  0,  0,  0,  0,  0,  0,  0,  0,  0,  0,  0,  0,  0,  0,  0,  0,  0,  0,  0,  0,  0,  0,  0,  0,  0,  0,  0,  0,  0,  0,  0,  0,  0,  0,  0,  0,  0,  0,  0,  0,  0,  0,  0,  0,  0,  0,  0,  0,  0,  0,  0,  0,  0,  0,  0,  0,  0,  0,  0,  0,  0,  0,  0,  0,  0,  0,  0,  0,  0,  0,  0,  0,  0,  0,  0,  0,  0,  0,  0,  0,  0,  0,  0,  0,  0,  0,  0,  0,  0,  0,  0,  0,  0,  0,  0,  0,  0,  0,  0,  0,  0,  0,  0,  0,  0,  0,  0,  0,  0,  0,  0,  0,  0,  0,  0,  0,  0,  0,  0,  0,  0,  0,  0,  0,  0,  0,  0,  0,  0,  0,  0,  0,  0,  0,  0,  0,  0,  0,  0,  0,  0,  0,  0,  0,  0,  0,  0,  0,  0,  0,  0,  0,  0,  0,  0,  0,  0,  0,  0,  0,  0,  0,  0,  0,  0,  0,  0,  0,  0,  0,  0,  0,  0,  0,  0,  0,  0,  0,  0,  0,  0,  0,  0,  0,  0,  0,  0,  0,  0,  0,  0,  0,  0,  0,  0,  0,  0,  0,  0,  0,  0,  0,  0,  0,  0,
0250   9200             ;   0,  0,  0,  0,  0,  0,  0,  0,  0,  0,  0,  0,  0,  0,  0,  0,  0,  0,  0,  0,  0,  0,  0,  0,  0,  0,  0,  0,  0,  0,  0,  0,  0,  0,  0,  0,  0,  0,  0,  0,  0,  0,  0,  0,  0,  0,  0,  0,  0,  0,  0,  0,  0,  0,  0,  0,  0,  0,  0,  0,  0,  0,  0,  0,  0,  0,  0,  0,  0,  0,  0,  0,  0,  0,  0,  0,  0,  0,  0,  0,  0,  0,  0,  0,  0,  0,  0,  0,  0,  0,  0,  0,  0,  0,  0,  0,  0,  0,  0,  0,  0,  0,  0,  0,  0,  0,  0,  0,  0,  0,  0,  0,  0,  0,  0,  0,  0,  0,  0,  0,  0,  0,  0,  0,  0,  0,  0,  0,  0,  0,  0,  0,  0,  0,  0,  0,  0,  0,  0,  0,  0,  0,  0,  0,  0,  0,  0,  0,  0,  0,  0,  0,  0,  0,  0,  0,  0,  0,  0,  0,  0,  0,  0,  0,  0,  0,  0,  0,  0,  0,  0,  0,  0,  0,  0,  0,  0,  0,  0,  0,  0,  0,  0,  0,  0,  0,  0,  0,  0,  0,  0,  0,  0,  0,  0,  0,  0,  0,  0,  0,  0,  0,  0,  0,  0,  0,  0,  0,  0,  0,  0,  0,  0,  0,  0,  0,  0,  0,  0,  0,  0,  0,  0,  0,  0,  0,  0,  0,  0,  0,  0,  0,  0,  0,  0,  0,  0,  0,  0,  0,  0,  0,  0,  0,  0,  0,  0,  0,  0,  0,  0,  0,  0,  0,  0,  0,
0251   9200             ;   0,  0,  0,  0,  0,  0,  0,  0,  0,  0,  0,  0,  0,  0,  0,  0,  0,  0,  0,  0,  0,  0,  0,  0,  0,  0,  0,  0,  0,  0,  0,  0,  0,  0,  0,  0,  0,  0,  0,  0,  0,  0,  0,  0,  0,  0,  0,  0,  0,  0,  0,  0,  0,  0,  0,  0,  0,  0,  0,  0,  0,  0,  0,  0,  0,  0,  0,  0,  0,  0,  0,  0,  0,  0,  0,  0,  0,  0,  0,  0,  0,  0,  0,  0,  0,  0,  0,  0,  0,  0,  0,  0,  0,  0,  0,  0,  0,  0,  0,  0,  0,  0,  0,  0,  0,  0,  0,  0,  0,  0,  0,  0,  0,  0,  0,  0,  0,  0,  0,  0,  0,  0,  0,  0,  0,  0,  0,  0,  0,  0,  0,  0,  0,  0,  0,  0,  0,  0,  0,  0,  0,  0,  0,  0,  0,  0,  0,  0,  0,  0,  0,  0,  0,  0,  0,  0,  0,  0,  0,  0,  0,  0,  0,  0,  0,  0,  0,  0,  0,  0,  0,  0,  0,  0,  0,  0,  0,  0,  0,  0,  0,  0,  0,  0,  0,  0,  0,  0,  0,  0,  0,  0,  0,  0,  0,  0,  0,  0,  0,  0,  0,  0,  0,  0,  0,  0,  0,  0,  0,  0,  0,  0,  0,  0,  0,  0,  0,  0,  0,  0,  0,  0,  0,  0,  0,  0,  0,  0,  0,  0,  0,  0,  0,  0,  0,  0,  0,  0,  0,  0,  0,  0,  0,  0,  0,  0,  0,  0,  0,  0,  0,  0,  0,  0,  0,  0,
0252   9200             ;   0,  0,  0,  0,  0,  0,  0,  0,  0,  0,  0,  0,  0,  0,  0,  0,  0,  0,  0,  0,  0,  0,  0,  0,  0,  0,  0,  0,  0,  0,  0,  0,  0,  0,  0,  0,  0,  0,  0,  0,  0,  0,  0,  0,  0,  0,  0,  0,  0,  0,  0,  0,  0,  0,  0,  0,  0,  0,  0,  0,  0,  0,  0,  0,  0,  0,  0,  0,  0,  0,  0,  0,  0,  0,  0,  0,  0,  0,  0,  0,  0,  0,  0,  0,  0,  0,  0,  0,  0,  0,  0,  0,  0,  0,  0,  0,  0,  0,  0,  0,  0,  0,  0,  0,  0,  0,  0,  0,  0,  0,  0,  0,  0,  0,  0,  0,  0,  0,  0,  0,  0,  0,  0,  0,  0,  0,  0,  0,  0,  0,  0,  0,  0,  0,  0,  0,  0,  0,  0,  0,  0,  0,  0,  0,  0,  0,  0,  0,  0,  0,  0,  0,  0,  0,  0,  0,  0,  0,  0,  0,  0,  0,  0,  0,  0,  0,  0,  0,  0,  0,  0,  0,  0,  0,  0,  0,  0,  0,  0,  0,  0,  0,  0,  0,  0,  0,  0,  0,  0,  0,  0,  0,  0,  0,  0,  0,  0,  0,  0,  0,  0,  0,  0,  0,  0,  0,  0,  0,  0,  0,  0,  0,  0,  0,  0,  0,  0,  0,  0,  0,  0,  0,  0,  0,  0,  0,  0,  0,  0,  0,  0,  0,  0,  0,  0,  0,  0,  0,  0,  0,  0,  0,  0,  0,  0,  0,  0,  0,  0,  0,  0,  0,  0,  0,  0,  0,
0253   9200             ;  61, 61, 61, 61, 61, 61, 61, 61, 61, 61, 61, 61, 61, 61, 61, 61, 61, 61, 61, 61, 61, 61, 61, 61, 61, 61, 61, 61, 61, 61, 61, 61, 61, 61, 61, 61, 61, 61, 61, 61, 61, 61, 61, 61, 61, 61, 61, 61, 61, 61, 61, 61, 61, 61, 61, 61, 61, 61, 61, 61, 61, 61, 61, 61, 61, 61, 61, 61, 61, 61, 61, 61, 61, 61, 61, 61, 61, 61, 61, 61, 61, 61, 61, 61, 61, 61, 61, 61, 61, 61, 61, 61, 61, 61, 61, 61, 61, 61, 61, 61, 61, 61, 61, 61, 61, 61, 61, 61, 61, 61, 61, 61, 61, 61, 61, 61, 61, 61, 61, 61, 61, 61, 61, 61, 61, 61, 61, 61, 61, 61, 61, 61, 61, 61, 61, 61, 61, 61, 61, 61, 61, 61, 61, 61, 61, 61, 61, 61, 61, 61, 61, 61, 61, 61, 61, 61, 61, 61, 61, 61, 61, 61, 61, 61, 61, 61, 61, 61, 61, 61, 61, 61, 61, 61, 61, 61, 61, 61, 61, 61, 61, 61, 61, 61, 61, 61, 61, 61, 61, 61, 61, 61, 61, 61, 61, 61, 61, 61, 61, 61, 61, 61, 61, 61, 61, 61, 61, 61, 61, 61, 61, 61, 61, 61, 61, 61, 61, 61, 61, 61, 61, 61, 61, 61, 61, 61, 61, 61, 61, 61, 61, 61, 61, 61, 61, 61, 61, 61, 61, 61, 61, 61, 61, 61, 61, 61, 61, 61, 61, 61, 61, 61, 61, 61, 61, 61,
0254   9200             ;  62, 62, 62, 63, 64, 62, 62, 62, 64, 64, 64, 64, 64, 64, 64, 64, 64, 64, 64, 64, 64, 64, 64, 64, 62, 62, 62, 62, 62, 63, 63, 64, 64, 62, 62, 62, 62, 62, 62, 63, 64, 64, 62, 62, 62, 62, 64, 64, 64, 64, 64, 64, 64, 64, 64, 64, 64, 64, 64, 64, 64, 64, 62, 62, 62, 62, 62, 62, 62, 62, 62, 63, 63, 64, 64, 62, 62, 62, 62, 63, 64, 62, 62, 62, 62, 62, 62, 62, 62, 62, 62, 62, 62, 63, 64, 62, 62, 62, 62, 62, 62, 62, 64, 64, 64, 64, 64, 64, 64, 64, 64, 64, 64, 64, 64, 64, 64, 64, 64, 64, 64, 64, 62, 62, 62, 62, 62, 62, 62, 63, 64, 62, 62, 62, 62, 62, 62, 63, 64, 62, 62, 62, 62, 62, 62, 63, 63, 64, 64, 62, 62, 62, 62, 62, 62, 62, 62, 63, 64, 62, 62, 62, 62, 62, 63, 64, 62, 62, 62, 62, 64, 64, 64, 64, 64, 64, 64, 64, 64, 64, 64, 64, 64, 64, 64, 64, 64, 64, 64, 62, 63, 64, 62, 62, 62, 63, 64, 62, 62, 62, 62, 62, 62, 62, 62, 62, 64, 64, 64, 64, 64, 64, 64, 64, 64, 64, 64, 64, 64, 64, 64, 64, 62, 62, 62, 63, 63, 64, 64, 62, 62, 62, 62, 62, 62, 62, 62, 63, 64, 62, 62, 62, 63, 64, 62, 62, 62, 62, 62, 62, 62, 62, 63, 63, 64, 64,
0255   9200             ;  14, 14, 14, 65, 66, 14, 14, 14, 66, 66, 66, 66, 66, 66, 66, 66, 66, 66, 66, 66, 66, 66, 66, 66, 14, 14, 14, 14, 14, 65, 65, 66, 66, 14, 14, 14, 14, 14, 14, 65, 66, 66, 14, 14, 14, 14, 66, 66, 66, 66, 66, 66, 66, 66, 66, 66, 66, 66, 66, 66, 66, 66, 14, 14, 14, 14, 14, 14, 14, 14, 14, 65, 65, 66, 66, 14, 14, 14, 14, 65, 66, 14, 14, 14, 14, 14, 14, 14, 14, 14, 14, 14, 14, 65, 66, 14, 14, 14, 14, 14, 14, 14, 66, 66, 66, 66, 66, 66, 66, 66, 66, 66, 66, 66, 66, 66, 66, 66, 66, 66, 66, 66, 14, 14, 14, 14, 14, 14, 14, 65, 66, 14, 14, 14, 14, 14, 14, 65, 66, 14, 14, 14, 14, 14, 14, 65, 65, 66, 66, 14, 14, 14, 14, 14, 14, 14, 14, 65, 66, 14, 14, 14, 14, 14, 65, 66, 14, 14, 14, 14, 66, 66, 66, 66, 66, 66, 66, 66, 66, 66, 66, 66, 66, 66, 66, 66, 66, 66, 66, 14, 65, 66, 14, 14, 14, 65, 66, 14, 14, 14, 14, 14, 14, 14, 14, 14, 66, 66, 66, 66, 66, 66, 66, 66, 66, 66, 66, 66, 66, 66, 66, 66, 14, 14, 14, 65, 65, 66, 66, 14, 14, 14, 14, 14, 14, 14, 14, 65, 66, 14, 14, 14, 65, 66, 14, 14, 14, 14, 14, 14, 14, 14, 65, 65, 66, 66,
0256   9200             
0257   9200             ; tail using
0258   9200             ;  796, 796, 796, 796, 796, 796, 796, 796, 796, 796, 796, 796, 796, 796, 796, 796, 796, 796, 796, 796, 796, 796, 796, 796, 796, 796, 796, 796, 796, 796, 796, 796, 796, 796, 796, 796, 796, 796, 796, 796, 796, 796, 796, 796, 796, 796, 796, 796, 796, 796, 796, 796, 796, 796, 796, 796, 796, 796, 796, 796, 796, 796, 796, 796, 796, 796, 796, 796, 796, 796, 796, 796, 796, 796, 796, 796, 796, 796, 796, 796, 796, 796, 796, 796, 796, 796, 796, 796, 796, 796, 796, 796, 796, 796, 796, 796, 796, 796, 796, 796, 796, 796, 796, 796, 796, 796, 796, 796, 796, 796, 796, 796, 796, 796, 796, 796, 796, 796, 796, 796, 796, 796, 796, 796, 796, 796, 796, 796, 796, 796, 796, 796, 796, 796, 796, 796, 796, 796, 796, 796, 796, 796, 796, 796, 796, 796, 796, 796, 796, 796, 796, 796, 796, 796, 796, 796, 796, 796, 796, 796, 796, 796, 796, 796, 796, 796, 796, 796, 796, 796, 796, 796, 796, 796, 796, 796, 796, 796, 796, 796, 796, 796, 796, 796, 796, 796, 796, 796, 796, 796, 796, 796, 796, 796, 796, 796, 796, 796, 796, 796, 796, 796, 796, 796, 796, 796, 796, 796, 796, 796, 796, 796, 796, 796, 796, 796, 796, 796, 796, 796, 796, 796, 796, 796, 796, 796, 796, 796, 796, 796, 796, 796, 796, 796, 796, 796, 796, 796, 796, 796, 796, 796, 796, 796, 796, 796, 796, 796, 796, 796, 796, 796, 796, 796, 796, 796,
0259   9200             ;  796, 796, 796, 796, 796, 796, 796, 796, 796, 796, 796, 796, 796, 796, 796, 796, 796, 796, 796, 796, 796, 796, 796, 796, 796, 796, 796, 796, 796, 796, 796, 796, 796, 796, 796, 796, 796, 796, 796, 796, 796, 796, 796, 796, 796, 796, 796, 796, 796, 796, 796, 796, 796, 796, 796, 796, 796, 796, 796, 796, 796, 796, 796, 796, 796, 796, 796, 796, 796, 796, 796, 796, 796, 796, 796, 796, 796, 796, 796, 796, 796, 796, 796, 796,  22,  70,  70,  70,  70,  21, 796, 796, 796, 796, 796, 796, 796, 796, 796, 796, 796, 796, 796, 796, 796, 796, 796, 796, 796, 796, 796, 796, 796, 796, 796, 796, 796, 796, 796, 796, 796, 796, 796, 796, 796, 796, 796, 796, 796, 796, 796, 796, 796, 796, 796, 796, 796, 796, 796, 796, 796, 796, 796, 796, 796, 796, 796, 796, 796, 796, 796, 796, 796, 796, 796, 796, 796, 796, 796, 796, 796, 796, 796, 796, 796, 796, 796, 796, 796, 796, 796, 796, 796, 796, 796, 796, 796, 796, 796, 796, 796, 796, 796, 796, 796, 796, 796, 796, 796, 796, 796, 796, 796, 796, 796, 796, 796, 796, 796, 796, 796, 796, 796, 796, 796, 796, 796, 796, 796, 796, 796, 796, 796, 796, 796, 796, 796, 796, 796, 796, 796, 796, 796, 796, 796, 796, 796, 796, 796, 796, 796, 796, 796, 796, 796, 796, 796, 796, 796, 796, 796, 796, 796, 796, 796, 796, 796,  22,   6, 796, 796, 796, 796, 796, 796, 796,
0260   9200             ;    6, 796, 796, 796, 796, 796, 796, 796, 796, 195, 195,  20,  40,  40,  20,  20,  65,  65,  65,  25, 195, 195, 195, 796, 796, 796, 796, 796, 796, 796, 796, 796, 796, 796, 796, 796, 796, 796, 796, 796, 796, 796, 796, 796, 796, 796, 796, 195, 195,  20,  40,  40,  20,  20,  65,  65,  65,  25, 195, 195, 195, 796, 796, 796,  22,  70,  21, 796, 796, 796, 796, 796, 796, 796, 796, 796, 796, 796, 796, 796, 796, 796, 796,   5, 939, 939, 939, 939, 939, 939,   6, 796, 796, 796, 796, 796, 796,   5,  21, 796, 796, 796, 796, 195, 195, 195, 195, 195, 195, 195, 195, 195, 195, 195, 195, 195, 195, 195, 195, 195, 195, 796, 796, 796, 796,  22,   6, 796, 796, 796, 796, 796, 796,   5,  21, 796, 796, 796, 796, 796, 796,  22,  21, 796, 796, 796, 796, 796, 796, 796, 796,  22,  70,  70,   6, 796, 796, 796, 796, 796, 796, 796, 796, 796, 796, 796, 796, 796, 796, 796, 796, 195, 195,  20,  40,  40,  20,  20,  65,  65,  65,  25, 195,  65,  25, 195, 195, 195, 796, 796, 796, 796, 796, 796, 796, 796, 796, 796, 796, 796,  22,  70,  21, 796, 796, 796, 796, 195, 195,  20,  40,  40,  20,  20,  65,  65,  65,  25, 195, 195, 195, 796, 796, 796, 796, 796, 796, 796, 796, 796, 796, 796,  22,  21, 796, 796, 796, 796, 796, 796, 796, 796, 796, 796, 796, 796,   5, 939,   6, 796, 796, 796, 796, 796, 796, 796,
0261   9200             ;    6, 796, 796, 796, 796, 796, 796, 796, 272, 195, 195,  20,  40,  40,  20,  20,  65,  65,  65,  25, 195, 195, 195, 272,  70,  70,  21, 796, 796, 796, 796, 796, 796, 796, 796,  22,  21, 796, 796, 796, 796, 796, 796, 796,  22,  70, 272, 195, 195,  20,  40,  40,  20,  20,  65,  65,  65,  25, 195, 195, 195, 272,  70,  70, 939, 939, 939,  70,  21, 796, 796, 796, 796, 796, 796, 796, 796, 796, 796, 796, 796, 796, 796,   5, 939, 939, 939, 939, 939, 939,   6, 796, 796, 796, 796, 796, 796,   5, 939,  70,  70,  70, 272, 195, 195, 195, 195, 195, 195, 195, 195, 195, 195, 195, 195, 195, 195, 195, 195, 195, 195, 272,  70,  70,  70, 939,   6, 796, 796, 796, 796, 796, 796,   5, 939,  21, 796, 796, 796, 796,  22, 939, 939,  70,  70, 145, 145, 272, 272,  70,  70, 939, 939, 939,   6, 796, 796, 796, 796, 796, 796,  22,  21, 796, 796, 796, 796,  22,  70,  70, 272, 195, 195,  20,  40,  40,  20,  20,  65,  65,  65,  25, 195,  65,  25, 195, 195, 195, 272, 796, 796, 796, 796, 796, 796, 796, 796, 796, 796,   5, 939, 939, 939,  70,  70,  70, 272, 195, 195,  20,  40,  40,  20,  20,  65,  65,  65,  25, 195, 195, 195, 272,  21, 796, 796, 796, 796, 796, 796, 796, 796,  22, 939, 939,   6, 796, 796, 796, 796, 796, 796, 796, 796, 796, 796, 796,   5, 939, 939,  21, 796, 796, 796, 796, 796, 796,
0262   9200             ;  939,  21, 796, 796, 796, 796,  22,  70, 272, 195, 195,  20,  40,  40,  20,  20,  65,  65,  65,  25, 195, 195, 195, 272, 939, 939, 939,  70,  70, 145, 145, 272, 272,  70,  70, 939, 939,  70,  70, 145, 272, 272,  70,  70, 939, 939, 272, 195, 195,  20,  40,  40,  20,  20,  65,  65,  65,  25, 195, 195, 195, 272, 939, 939, 939, 939, 939, 939, 939,  70,  70, 145, 145, 272, 272,  70,  70,  21, 796, 796, 796, 796,  22, 939, 939, 939, 939, 939, 939, 939, 939,  21, 796, 796, 796, 796,  22, 939, 939, 939, 939, 939, 272, 195, 195, 195, 195, 195, 195, 195, 195, 195, 195, 195, 195, 195, 195, 195, 195, 195, 195, 272, 939, 939, 939, 939, 939,  21, 796, 796, 796, 796,  22, 939, 939, 939,  70, 145, 272,  70, 939, 939, 939, 939, 939, 145, 145, 272, 272, 939, 939, 939, 939, 939, 939,  21, 796, 796, 796, 796,  22, 939, 939,  70, 145, 272,  70, 939, 939, 939, 272, 195, 195,  20,  40,  40,  20,  20,  65,  65,  65,  25, 195,  65,  25, 195, 195, 195, 272, 796, 796, 796, 796, 796, 796, 796, 796, 796, 796,   5, 939, 939, 939, 939, 939, 939, 272, 195, 195,  20,  40,  40,  20,  20,  65,  65,  65,  25, 195, 195, 195, 272, 939,  70,  70, 145, 145, 272, 272,  70,  70, 939, 939, 939,   6, 796, 796, 796, 796, 796, 796, 796, 796, 796, 796,  22, 939, 939, 939, 939,  70,  70, 145, 145, 272, 272,
0263   9200             ;  939, 939,  70, 145, 272,  70, 939, 939, 272, 195, 195,  20,  40,  40,  20,  20,  65,  65,  65,  25, 195, 195, 195, 272, 939, 939, 939, 939, 939, 145, 145, 272, 272, 939, 939, 939, 939, 939, 939, 145, 272, 272, 939, 939, 939, 939, 272, 195, 195,  20,  40,  40,  20,  20,  65,  65,  65,  25, 195, 195, 195, 272, 939, 939, 939, 939, 939, 939, 939, 939, 939, 145, 145, 272, 272, 939, 939, 939,  70, 145, 272,  70, 939, 939, 939, 939, 939, 939, 939, 939, 939, 939,  70, 145, 272,  70, 939, 939, 939, 939, 939, 939, 272, 195, 195, 195, 195, 195, 195, 195, 195, 195, 195, 195, 195, 195, 195, 195, 195, 195, 195, 272, 939, 939, 939, 939, 939, 939,  70, 145, 272,  70, 939, 939, 939, 939, 939, 145, 272, 939, 939, 939, 939, 939, 939, 145, 145, 272, 272, 939, 939, 939, 939, 939, 939, 939,  70, 145, 272,  70, 939, 939, 939, 939, 145, 272, 939, 939, 939, 939, 272, 195, 195,  20,  40,  40,  20,  20,  65,  65,  65,  25, 195,  65,  25, 195, 195, 195, 272,  70, 145, 272,  70,  21, 796, 796, 796, 796,  22, 939, 939, 939, 939, 939, 939, 939, 272, 195, 195,  20,  40,  40,  20,  20,  65,  65,  65,  25, 195, 195, 195, 272, 939, 939, 939, 145, 145, 272, 272, 939, 939, 939, 939, 939, 939,  21, 796, 796, 796, 796,  22,  70, 145, 272,  70, 939, 939, 939, 939, 939, 939, 939, 145, 145, 272, 272,
0264   9200             ;  939, 939, 939, 145, 272, 939, 939, 939, 272, 195, 195,  20,  40,  40,  20,  20,  65,  65,  65,  25, 195, 195, 195, 272, 939, 939, 939, 939, 939, 145, 145, 272, 272, 939, 939, 939, 939, 939, 939, 145, 272, 272, 939, 939, 939, 939, 272, 195, 195,  20,  40,  40,  20,  20,  65,  65,  65,  25, 195, 195, 195, 272, 939, 939, 939, 939, 939, 939, 939, 939, 939, 145, 145, 272, 272, 939, 939, 939, 939, 145, 272, 939, 939, 939, 939, 939, 939, 939, 939, 939, 939, 939, 939, 145, 272, 939, 939, 939, 939, 939, 939, 939, 272, 195, 195, 195, 195, 195, 195, 195, 195, 195, 195, 195, 195, 195, 195, 195, 195, 195, 195, 272, 939, 939, 939, 939, 939, 939, 939, 145, 272, 939, 939, 939, 939, 939, 939, 145, 272, 939, 939, 939, 939, 939, 939, 145, 145, 272, 272, 939, 939, 939, 939, 939, 939, 939, 939, 145, 272, 939, 939, 939, 939, 939, 145, 272, 939, 939, 939, 939, 272, 195, 195,  20,  40,  40,  20,  20,  65,  65,  65,  25, 195,  65,  25, 195, 195, 195, 272, 939, 145, 272, 939, 939,  70, 145, 272,  70, 939, 939, 939, 939, 939, 939, 939, 939, 272, 195, 195,  20,  40,  40,  20,  20,  65,  65,  65,  25, 195, 195, 195, 272, 939, 939, 939, 145, 145, 272, 272, 939, 939, 939, 939, 939, 939, 939,  70, 145, 272,  70, 939, 939, 145, 272, 939, 939, 939, 939, 939, 939, 939, 939, 145, 145, 272, 272,
0265   9200             ;  939, 939, 939, 145, 272, 939, 939, 939, 272, 272,   5,  21, 159, 159, 159, 159,  11, 159, 159, 159, 159,   5, 272, 272, 939, 939, 939, 939, 939, 145, 145, 272, 272, 939, 939, 939, 939, 939, 939, 145, 272, 272, 939, 939, 939, 939, 272, 272,   5,  21, 159, 159, 159, 159,  11, 159, 159, 159, 159,   5, 272, 272, 939, 939, 939, 939, 939, 939, 939, 939, 939, 145, 145, 272, 272, 939, 939, 939, 939, 145, 272, 939, 939, 939, 939, 939, 939, 939, 939, 939, 939, 939, 939, 145, 272, 939, 939, 939, 939, 939, 939, 939, 272, 272,   5,  21, 159, 159, 159, 159,  11, 159, 159,  11,   1,   1,   1,   1, 159,   5, 272, 272, 939, 939, 939, 939, 939, 939, 939, 145, 272, 939, 939, 939, 939, 939, 939, 145, 272, 939, 939, 939, 939, 939, 939, 145, 145, 272, 272, 939, 939, 939, 939, 939, 939, 939, 939, 145, 272, 939, 939, 939, 939, 939, 145, 272, 939, 939, 939, 939, 272, 272,   5,   1,   1,   1,   1, 159,  11, 159, 159, 159, 159, 159, 159, 159,   5, 272, 272, 939, 145, 272, 939, 939, 939, 145, 272, 939, 939, 939, 939, 939, 939, 939, 939, 939, 272, 272,   5,  21, 159, 159,   1,   1,   1,   1, 159, 159, 159,   5, 272, 272, 939, 939, 939, 145, 145, 272, 272, 939, 939, 939, 939, 939, 939, 939, 939, 145, 272, 939, 939, 939, 145, 272, 939, 939, 939, 939, 939, 939, 939, 939, 145, 145, 272, 272,
0266   9200             ;  939, 939, 939, 145, 272, 939, 939, 939, 272, 272,  33, 159, 159, 159, 159, 159, 159,   5, 159, 159,   5,  33, 272, 272, 939, 939, 939, 939, 939, 145, 145, 272, 272, 939, 939, 939, 939, 939, 939, 145, 272, 272, 939, 939, 939, 939, 272, 272,  33, 159, 159, 159,   5, 159, 159,   5, 159, 159, 159,  33, 272, 272, 939, 939, 939, 939, 939, 939, 939, 939, 939, 145, 145, 272, 272, 939, 939, 939, 939, 145, 272, 939, 939, 939, 939, 939, 939, 939, 939, 939, 939, 939, 939, 145, 272, 939, 939, 939, 939, 939, 939, 939, 272, 272,  33, 159, 159, 159,  21, 159, 159,  21, 159, 159,   5, 159, 159,   5, 159,  33, 272, 272, 939, 939, 939, 939, 939, 939, 939, 145, 272, 939, 939, 939, 939, 939, 939, 145, 272, 939, 939, 939, 939, 939, 939, 145, 145, 272, 272, 939, 939, 939, 939, 939, 939, 939, 939, 145, 272, 939, 939, 939, 939, 939, 145, 272, 939, 939, 939, 939, 272, 272,  33,   5, 159, 159,   5, 159, 159, 159, 159, 159, 159, 159, 159, 159,  33, 272, 272, 939, 145, 272, 939, 939, 939, 145, 272, 939, 939, 939, 939, 939, 939, 939, 939, 939, 272, 272,  33, 159, 159, 159,   5, 159, 159,   5, 159, 159, 159,  33, 272, 272, 939, 939, 939, 145, 145, 272, 272, 939, 939, 939, 939, 939, 939, 939, 939, 145, 272, 939, 939, 939, 145, 272, 939, 939, 939, 939, 939, 939, 939, 939, 145, 145, 272, 272,
0267   9200             ;  939, 939, 939, 145, 272, 939, 939, 939, 272, 272,  33, 159,  12,  12, 159,  12,  12,  33,   5,   5,  33,  33, 272, 272, 939, 939, 939, 939, 939, 145, 145, 272, 272, 939, 939, 939, 939, 939, 939, 145, 272, 272, 939, 939, 939, 939, 272, 272,  33, 159,  12,  12,  33,   5,   5,  33,  12,  12, 159,  33, 272, 272, 939, 939, 939, 939, 939, 939, 939, 939, 939, 145, 145, 272, 272, 939, 939, 939, 939, 145, 272, 939, 939, 939, 939, 939, 939, 939, 939, 939, 939, 939, 939, 145, 272, 939, 939, 939, 939, 939, 939, 939, 272, 272,  33, 159,  12,  12, 159,  12,  12, 159,  12,  12,  33,   5,   5,  33, 159,  33, 272, 272, 939, 939, 939, 939, 939, 939, 939, 145, 272, 939, 939, 939, 939, 939, 939, 145, 272, 939, 939, 939, 939, 939, 939, 145, 145, 272, 272, 939, 939, 939, 939, 939, 939, 939, 939, 145, 272, 939, 939, 939, 939, 939, 145, 272, 939, 939, 939, 939, 272, 272,  33,   2,   5,   5,   2,  12,  12,   1,  12,  12, 159,  12,  12, 159,  33, 272, 272, 939, 145, 272, 939, 939, 939, 145, 272, 939, 939, 939, 939, 939, 939, 939, 939, 939, 272, 272,  33, 159,  12,  12,   2,   5,   5,   2,  12,  12, 159,  33, 272, 272, 939, 939, 939, 145, 145, 272, 272, 939, 939, 939, 939, 939, 939, 939, 939, 145, 272, 939, 939, 939, 145, 272, 939, 939, 939, 939, 939, 939, 939, 939, 145, 145, 272, 272,
0268   9200             ;  939, 939, 939, 145, 272, 939, 939, 939, 272, 272,  33,  11,  12,  12,  11,  12,  12,  33,  10,  10,  33,  33, 272, 272, 939, 939, 939, 939, 939, 145, 145, 272, 272, 939, 939, 939, 939, 939, 939, 145, 272, 272, 939, 939, 939, 939, 272, 272,  33,  11,  12,  12,  33,  10,  10,  33,  12,  12, 159,  33, 272, 272, 939, 939, 939, 939, 939, 939, 939, 939, 939, 145, 145, 272, 272, 939, 939, 939, 939, 145, 272, 939, 939, 939, 939, 939, 939, 939, 939, 939, 939, 939, 939, 145, 272, 939, 939, 939, 939, 939, 939, 939, 272, 272,  33, 159,  12,  12, 159,  12,  12, 159,  12,  12,  33,  10,  10,  33, 159,  33, 272, 272, 939, 939, 939, 939, 939, 939, 939, 145, 272, 939, 939, 939, 939, 939, 939, 145, 272, 939, 939, 939, 939, 939, 939, 145, 145, 272, 272, 939, 939, 939, 939, 939, 939, 939, 939, 145, 272, 939, 939, 939, 939, 939, 145, 272, 939, 939, 939, 939, 272, 272,  33,  33,  10,  10,  33,  12,  12, 159,  12,  12, 159,  12,  12, 159,  33, 272, 272, 939, 145, 272, 939, 939, 939, 145, 272, 939, 939, 939, 939, 939, 939, 939, 939, 939, 272, 272,  33,  11,  12,  12,  33,  10,  10,  33,  12,  12, 159,  33, 272, 272, 939, 939, 939, 145, 145, 272, 272, 939, 939, 939, 939, 939, 939, 939, 939, 145, 272, 939, 939, 939, 145, 272, 939, 939, 939, 939, 939, 939, 939, 939, 145, 145, 272, 272,
0269   9200             ;  124, 124, 124,  22,  43, 124, 124, 124,  43,  43,  33, 159, 159, 159, 159, 159, 159,  33,  10,   5,  33,  33,  43,  43, 124, 124, 124, 124, 124,  22,  22,  43,  43, 124, 124, 124, 124, 124, 124,  22,  43,  43, 124, 124, 124, 124,  43,  43,  33, 159, 159, 159,  33,  10,   5,  33, 159, 159,  21,  33,  43,  43, 124, 124, 124, 124, 124, 124, 124, 124, 124,  22,  22,  43,  43, 124, 124, 124, 124,  22,  43, 124, 124, 124, 124, 124, 124, 124, 124, 124, 124, 124, 124,  22,  43, 124, 124, 124, 124, 124, 124, 124,  43,  43,  33, 159, 159, 159, 159, 159, 159, 159, 159, 159,  33,  10,   5,  33,  21,  33,  43,  43, 124, 124, 124, 124, 124, 124, 124,  22,  43, 124, 124, 124, 124, 124, 124,  22,  43, 124, 124, 124, 124, 124, 124,  22,  22,  43,  43, 124, 124, 124, 124, 124, 124, 124, 124,  22,  43, 124, 124, 124, 124, 124,  22,  43, 124, 124, 124, 124,  43,  43,  33,  33,  10,   5,  33, 159, 159, 159, 159, 159,  21, 159, 159,  21,  33,  43,  43, 124,  22,  43, 124, 124, 124,  22,  43, 124, 124, 124, 124, 124, 124, 124, 124, 124,  43,  43,  33, 159, 159, 159,  33,  10,   5,  33, 159, 159,  21,  33,  43,  43, 124, 124, 124,  22,  22,  43,  43, 124, 124, 124, 124, 124, 124, 124, 124,  22,  43, 124, 124, 124,  22,  43, 124, 124, 124, 124, 124, 124, 124, 124,  22,  22,  43,  43,
0270   9200             ;  124, 124, 124,  22,  43, 124, 124, 124,  43,  43,  10, 159,  21, 159, 159,  21, 159,  10,   5,  10,  10,  10,  43,  43, 124, 124, 124, 124, 124,  22,  22,  43,  43, 124, 124, 124, 124, 124, 124,  22,  43,  43, 124, 124, 124, 124,  43,  43,  10, 159,  21, 159,  10,   5,  10,  10,  21, 159, 159,  10,  43,  43, 124, 124, 124, 124, 124, 124, 124, 124, 124,  22,  22,  43,  43, 124, 124, 124, 124,  22,  43, 124, 124, 124, 124, 124, 124, 124, 124, 124, 124, 124, 124,  22,  43, 124, 124, 124, 124, 124, 124, 124,  43,  43,  10, 159,  21, 159, 159,  11, 159, 159,  11, 159,  10,   5,  10,  10, 159,  10,  43,  43, 124, 124, 124, 124, 124, 124, 124,  22,  43, 124, 124, 124, 124, 124, 124,  22,  43, 124, 124, 124, 124, 124, 124,  22,  22,  43,  43, 124, 124, 124, 124, 124, 124, 124, 124,  22,  43, 124, 124, 124, 124, 124,  22,  43, 124, 124, 124, 124,  43,  43,  10,  10,   5,  10,  10,  21, 159, 159,  21, 159, 159,  21, 159, 159,  10,  43,  43, 124,  22,  43, 124, 124, 124,  22,  43, 124, 124, 124, 124, 124, 124, 124, 124, 124,  43,  43,  10, 159,  21, 159,  10,   5,  10,  10,  21, 159, 159,  10,  43,  43, 124, 124, 124,  22,  22,  43,  43, 124, 124, 124, 124, 124, 124, 124, 124,  22,  43, 124, 124, 124,  22,  43, 124, 124, 124, 124, 124, 124, 124, 124,  22,  22,  43,  43,
0271   9200             ; 1024,1024,1024,1024,1024,1024,1024,1024,1024,1024,1024,1024,1024,1024,1024,1024,1024,1024,1024,1024,1024,1024,1024,1024,1024,1024,1024,1024,1024,1024,1024,1024,1024,1024,1024,1024,1024,1024,1024,1024,1024,1024,1024,1024,1024,1024,1024,1024,1024,1024,1024,1024,1024,1024,1024,1024,1024,1024,1024,1024,1024,1024,1024,1024,1024,1024,1024,1024,1024,1024,1024,1024,1024,1024,1024,1024,1024,1024,1024,1024,1024,1024,1024,1024,1024,1024,1024,1024,1024,1024,1024,1024,1024,1024,1024,1024,1024,1024,1024,1024,1024,1024,1024,1024,1024,1024,1024,1024,1024,1024,1024,1024,1024,1024,1024,1024,1024,1024,1024,1024,1024,1024,1024,1024,1024,1024,1024,1024,1024,1024,1024,1024,1024,1024,1024,1024,1024,1024,1024,1024,1024,1024,1024,1024,1024,1024,1024,1024,1024,1024,1024,1024,1024,1024,1024,1024,1024,1024,1024,1024,1024,1024,1024,1024,1024,1024,1024,1024,1024,1024,1024,1024,1024,1024,1024,1024,1024,1024,1024,1024,1024,1024,1024,1024,1024,1024,1024,1024,1024,1024,1024,1024,1024,1024,1024,1024,1024,1024,1024,1024,1024,1024,1024,1024,1024,1024,1024,1024,1024,1024,1024,1024,1024,1024,1024,1024,1024,1024,1024,1024,1024,1024,1024,1024,1024,1024,1024,1024,1024,1024,1024,1024,1024,1024,1024,1024,1024,1024,1024,1024,1024,1024,1024,1024,1024,1024,1024,1024,1024,1024,1024,1024,1024,1024,1024,1024,
0272   9200             ; 1024,1024,1024,1024,1024,1024,1024,1024,1024,1024,1024,1024,1024,1024,1024,1024,1024,1024,1024,1024,1024,1024,1024,1024,1024,1024,1024,1024,1024,1024,1024,1024,1024,1024,1024,1024,1024,1024,1024,1024,1024,1024,1024,1024,1024,1024,1024,1024,1024,1024,1024,1024,1024,1024,1024,1024,1024,1024,1024,1024,1024,1024,1024,1024,1024,1024,1024,1024,1024,1024,1024,1024,1024,1024,1024,1024,1024,1024,1024,1024,1024,1024,1024,1024,1024,1024,1024,1024,1024,1024,1024,1024,1024,1024,1024,1024,1024,1024,1024,1024,1024,1024,1024,1024,1024,1024,1024,1024,1024,1024,1024,1024,1024,1024,1024,1024,1024,1024,1024,1024,1024,1024,1024,1024,1024,1024,1024,1024,1024,1024,1024,1024,1024,1024,1024,1024,1024,1024,1024,1024,1024,1024,1024,1024,1024,1024,1024,1024,1024,1024,1024,1024,1024,1024,1024,1024,1024,1024,1024,1024,1024,1024,1024,1024,1024,1024,1024,1024,1024,1024,1024,1024,1024,1024,1024,1024,1024,1024,1024,1024,1024,1024,1024,1024,1024,1024,1024,1024,1024,1024,1024,1024,1024,1024,1024,1024,1024,1024,1024,1024,1024,1024,1024,1024,1024,1024,1024,1024,1024,1024,1024,1024,1024,1024,1024,1024,1024,1024,1024,1024,1024,1024,1024,1024,1024,1024,1024,1024,1024,1024,1024,1024,1024,1024,1024,1024,1024,1024,1024,1024,1024,1024,1024,1024,1024,1024,1024,1024,1024,1024,1024,1024,1024,1024,1024,1024,
0273   9200             ; 1024,1024,1024,1024,1024,1024,1024,1024,1024,1024,1024,1024,1024,1024,1024,1024,1024,1024,1024,1024,1024,1024,1024,1024,1024,1024,1024,1024,1024,1024,1024,1024,1024,1024,1024,1024,1024,1024,1024,1024,1024,1024,1024,1024,1024,1024,1024,1024,1024,1024,1024,1024,1024,1024,1024,1024,1024,1024,1024,1024,1024,1024,1024,1024,1024,1024,1024,1024,1024,1024,1024,1024,1024,1024,1024,1024,1024,1024,1024,1024,1024,1024,1024,1024,1024,1024,1024,1024,1024,1024,1024,1024,1024,1024,1024,1024,1024,1024,1024,1024,1024,1024,1024,1024,1024,1024,1024,1024,1024,1024,1024,1024,1024,1024,1024,1024,1024,1024,1024,1024,1024,1024,1024,1024,1024,1024,1024,1024,1024,1024,1024,1024,1024,1024,1024,1024,1024,1024,1024,1024,1024,1024,1024,1024,1024,1024,1024,1024,1024,1024,1024,1024,1024,1024,1024,1024,1024,1024,1024,1024,1024,1024,1024,1024,1024,1024,1024,1024,1024,1024,1024,1024,1024,1024,1024,1024,1024,1024,1024,1024,1024,1024,1024,1024,1024,1024,1024,1024,1024,1024,1024,1024,1024,1024,1024,1024,1024,1024,1024,1024,1024,1024,1024,1024,1024,1024,1024,1024,1024,1024,1024,1024,1024,1024,1024,1024,1024,1024,1024,1024,1024,1024,1024,1024,1024,1024,1024,1024,1024,1024,1024,1024,1024,1024,1024,1024,1024,1024,1024,1024,1024,1024,1024,1024,1024,1024,1024,1024,1024,1024,1024,1024,1024,1024,1024,1024,
0274   9200             ; 1024,1024,1024,1024,1024,1024,1024,1024,1024,1024,1024,1024,1024,1024,1024,1024,1024,1024,1024,1024,1024,1024,1024,1024,1024,1024,1024,1024,1024,1024,1024,1024,1024,1024,1024,1024,1024,1024,1024,1024,1024,1024,1024,1024,1024,1024,1024,1024,1024,1024,1024,1024,1024,1024,1024,1024,1024,1024,1024,1024,1024,1024,1024,1024,1024,1024,1024,1024,1024,1024,1024,1024,1024,1024,1024,1024,1024,1024,1024,1024,1024,1024,1024,1024,1024,1024,1024,1024,1024,1024,1024,1024,1024,1024,1024,1024,1024,1024,1024,1024,1024,1024,1024,1024,1024,1024,1024,1024,1024,1024,1024,1024,1024,1024,1024,1024,1024,1024,1024,1024,1024,1024,1024,1024,1024,1024,1024,1024,1024,1024,1024,1024,1024,1024,1024,1024,1024,1024,1024,1024,1024,1024,1024,1024,1024,1024,1024,1024,1024,1024,1024,1024,1024,1024,1024,1024,1024,1024,1024,1024,1024,1024,1024,1024,1024,1024,1024,1024,1024,1024,1024,1024,1024,1024,1024,1024,1024,1024,1024,1024,1024,1024,1024,1024,1024,1024,1024,1024,1024,1024,1024,1024,1024,1024,1024,1024,1024,1024,1024,1024,1024,1024,1024,1024,1024,1024,1024,1024,1024,1024,1024,1024,1024,1024,1024,1024,1024,1024,1024,1024,1024,1024,1024,1024,1024,1024,1024,1024,1024,1024,1024,1024,1024,1024,1024,1024,1024,1024,1024,1024,1024,1024,1024,1024,1024,1024,1024,1024,1024,1024,1024,1024,1024,1024,1024,1024,
0275   9200             ;  256, 256, 256, 256, 256, 256, 256, 256, 256, 256, 256, 256, 256, 256, 256, 256, 256, 256, 256, 256, 256, 256, 256, 256, 256, 256, 256, 256, 256, 256, 256, 256, 256, 256, 256, 256, 256, 256, 256, 256, 256, 256, 256, 256, 256, 256, 256, 256, 256, 256, 256, 256, 256, 256, 256, 256, 256, 256, 256, 256, 256, 256, 256, 256, 256, 256, 256, 256, 256, 256, 256, 256, 256, 256, 256, 256, 256, 256, 256, 256, 256, 256, 256, 256, 256, 256, 256, 256, 256, 256, 256, 256, 256, 256, 256, 256, 256, 256, 256, 256, 256, 256, 256, 256, 256, 256, 256, 256, 256, 256, 256, 256, 256, 256, 256, 256, 256, 256, 256, 256, 256, 256, 256, 256, 256, 256, 256, 256, 256, 256, 256, 256, 256, 256, 256, 256, 256, 256, 256, 256, 256, 256, 256, 256, 256, 256, 256, 256, 256, 256, 256, 256, 256, 256, 256, 256, 256, 256, 256, 256, 256, 256, 256, 256, 256, 256, 256, 256, 256, 256, 256, 256, 256, 256, 256, 256, 256, 256, 256, 256, 256, 256, 256, 256, 256, 256, 256, 256, 256, 256, 256, 256, 256, 256, 256, 256, 256, 256, 256, 256, 256, 256, 256, 256, 256, 256, 256, 256, 256, 256, 256, 256, 256, 256, 256, 256, 256, 256, 256, 256, 256, 256, 256, 256, 256, 256, 256, 256, 256, 256, 256, 256, 256, 256, 256, 256, 256, 256, 256, 256, 256, 256, 256, 256, 256, 256, 256, 256, 256, 256, 256, 256, 256, 256, 256, 256,
0276   9200             ;  124, 124, 124,  22, 110, 124, 124, 124, 110, 110, 110, 110, 110, 110, 110, 110, 110, 110, 110, 110, 110, 110, 110, 110, 124, 124, 124, 124, 124,  22,  22, 110, 110, 124, 124, 124, 124, 124, 124,  22, 110, 110, 124, 124, 124, 124, 110, 110, 110, 110, 110, 110, 110, 110, 110, 110, 110, 110, 110, 110, 110, 110, 124, 124, 124, 124, 124, 124, 124, 124, 124,  22,  22, 110, 110, 124, 124, 124, 124,  22, 110, 124, 124, 124, 124, 124, 124, 124, 124, 124, 124, 124, 124,  22, 110, 124, 124, 124, 124, 124, 124, 124, 110, 110, 110, 110, 110, 110, 110, 110, 110, 110, 110, 110, 110, 110, 110, 110, 110, 110, 110, 110, 124, 124, 124, 124, 124, 124, 124,  22, 110, 124, 124, 124, 124, 124, 124,  22, 110, 124, 124, 124, 124, 124, 124,  22,  22, 110, 110, 124, 124, 124, 124, 124, 124, 124, 124,  22, 110, 124, 124, 124, 124, 124,  22, 110, 124, 124, 124, 124, 110, 110, 110, 110, 110, 110, 110, 110, 110, 110, 110, 110, 110, 110, 110, 110, 110, 110, 110, 124,  22, 110, 124, 124, 124,  22, 110, 124, 124, 124, 124, 124, 124, 124, 124, 124, 110, 110, 110, 110, 110, 110, 110, 110, 110, 110, 110, 110, 110, 110, 110, 110, 124, 124, 124,  22,  22, 110, 110, 124, 124, 124, 124, 124, 124, 124, 124,  22, 110, 124, 124, 124,  22, 110, 124, 124, 124, 124, 124, 124, 124, 124,  22,  22, 110, 110,
0277   9200             ;  939, 939, 939,  22, 110, 939, 939, 939, 110, 110, 110, 110, 110, 110, 110, 110, 110, 110, 110, 110, 110, 110, 110, 110, 939, 939, 939, 939, 939,  22,  22, 110, 110, 939, 939, 939, 939, 939, 939,  22, 110, 110, 939, 939, 939, 939, 110, 110, 110, 110, 110, 110, 110, 110, 110, 110, 110, 110, 110, 110, 110, 110, 939, 939, 939, 939, 939, 939, 939, 939, 939,  22,  22, 110, 110, 939, 939, 939, 939,  22, 110, 939, 939, 939, 939, 939, 939, 939, 939, 939, 939, 939, 939,  22, 110, 939, 939, 939, 939, 939, 939, 939, 110, 110, 110, 110, 110, 110, 110, 110, 110, 110, 110, 110, 110, 110, 110, 110, 110, 110, 110, 110, 939, 939, 939, 939, 939, 939, 939,  22, 110, 939, 939, 939, 939, 939, 939,  22, 110, 939, 939, 939, 939, 939, 939,  22,  22, 110, 110, 939, 939, 939, 939, 939, 939, 939, 939,  22, 110, 939, 939, 939, 939, 939,  22, 110, 939, 939, 939, 939, 110, 110, 110, 110, 110, 110, 110, 110, 110, 110, 110, 110, 110, 110, 110, 110, 110, 110, 110, 939,  22, 110, 939, 939, 939,  22, 110, 939, 939, 939, 939, 939, 939, 939, 939, 939, 110, 110, 110, 110, 110, 110, 110, 110, 110, 110, 110, 110, 110, 110, 110, 110, 939, 939, 939,  22,  22, 110, 110, 939, 939, 939, 939, 939, 939, 939, 939,  22, 110, 939, 939, 939,  22, 110, 939, 939, 939, 939, 939, 939, 939, 939,  22,  22, 110, 110,
0278   9200             
0001   9200                ds (10000h - $) & 0FFh
0002   9200             
0003   9200             city1bTails:  ; count 255
0004   9200                 db 000h, 033h, 03Ch, 0FFh, 000h, 0FFh, 000h, 03Fh, 0FFh, 001h, 0FFh, 0FCh, 000h, 0FFh, 000h, 0FFh
0004   9200 00333CFF00FF003FFF01FFFC00FF00FF
0005   9210                 db 00Fh, 09Ch, 0D7h, 039h, 0F0h, 07Bh, 0B5h, 003h, 0C0h, 0ADh, 000h, 0FEh, 000h, 07Fh, 0E7h, 0C7h
0005   9210 0F9CD739F07BB503C0AD00FE007FE7C7
0006   9220                 db 0E7h, 0E3h, 078h, 01Eh, 000h, 000h, 000h, 000h, 000h, 0FFh, 000h, 000h, 03Ch, 03Ch, 000h, 006h
0006   9220 E7E3781E0000000000FF00003C3C0006
0007   9230                 db 000h, 000h, 060h, 0F7h, 049h, 092h, 04Fh, 0FEh, 000h, 06Dh, 0B6h, 03Ch, 07Fh, 000h, 000h, 000h
0007   9230 000060F749924FFE006DB63C7F000000
0008   9240                 db 0AAh, 0F7h, 000h, 000h, 07Fh, 0FEh, 0E0h, 000h, 000h, 000h, 007h, 0FFh, 0F7h, 0FFh, 0ADh, 0FFh
0008   9240 AAF700007FFEE000000007FFF7FFADFF
0009   9250                 db 0FFh, 0E0h, 000h, 000h, 007h, 000h, 0FEh, 0EAh, 0AFh, 0F7h, 0F8h, 0F7h, 08Fh, 0FFh, 0FFh, 0FFh
0009   9250 FFE000000700FEEAAFF7F8F78FFFFFFF
0010   9260                 db 0F7h, 0FFh, 07Fh, 0C0h, 07Eh, 003h, 0EFh, 0EFh, 0F7h, 000h, 0FCh, 047h, 0C7h, 0FFh, 0C0h, 00Fh
0010   9260 F7FF7FC07E03EFEFF700FC47C7FFC00F
0011   9270                 db 0E2h, 000h, 000h, 000h, 03Fh, 0EFh, 0FFh, 0FFh, 0FFh, 0F8h, 01Fh, 047h, 0C7h, 0FFh, 0E2h, 0F0h
0011   9270 E20000003FEFFFFFFFF81F47C7FFE2F0
0012   9280                 db 00Fh, 0E0h, 007h, 000h, 0C0h, 003h, 090h, 080h, 001h, 0FEh, 0FFh, 000h, 0BBh, 05Bh, 000h, 000h
0012   9280 0FE00700C003908001FEFF00BB5B0000
0013   9290                 db 000h, 000h, 000h, 000h, 000h, 000h, 000h, 000h, 000h, 000h, 000h, 000h, 000h, 000h, 000h, 000h
0013   9290 00000000000000000000000000000000
0014   92A0                 db 000h, 000h, 000h, 000h, 000h, 000h, 000h, 000h, 000h, 000h, 000h, 000h, 000h, 000h, 000h, 000h
0014   92A0 00000000000000000000000000000000
0015   92B0                 db 000h, 000h, 000h, 000h, 000h, 000h, 000h, 000h, 000h, 000h, 000h, 000h, 000h, 000h, 000h, 000h
0015   92B0 00000000000000000000000000000000
0016   92C0                 db 000h, 000h, 000h, 000h, 000h, 000h, 000h, 000h, 000h, 000h, 000h, 000h, 000h, 000h, 000h, 000h
0016   92C0 00000000000000000000000000000000
0017   92D0                 db 000h, 000h, 000h, 000h, 000h, 000h, 000h, 000h, 000h, 000h, 000h, 000h, 000h, 000h, 000h, 000h
0017   92D0 00000000000000000000000000000000
0018   92E0                 db 000h, 000h, 000h, 000h, 000h, 000h, 000h, 000h, 000h, 000h, 000h, 000h, 000h, 000h, 000h, 000h
0018   92E0 00000000000000000000000000000000
0019   92F0                 db 000h, 000h, 000h, 000h, 000h, 000h, 000h, 000h, 000h, 000h, 000h, 000h, 000h, 000h, 000h, 000h
0019   92F0 00000000000000000000000000000000
0020   9300                 db 000h, 070h, 066h, 0FFh, 000h, 0FFh, 000h, 03Fh, 0FFh, 083h, 0FFh, 0FCh, 000h, 0FFh, 000h, 0FFh
0020   9300 007066FF00FF003FFF83FFFC00FF00FF
0021   9310                 db 00Fh, 0BCh, 0EFh, 03Dh, 0F0h, 078h, 097h, 003h, 0C0h, 0E9h, 000h, 0FEh, 0FFh, 07Fh, 0E7h, 0C7h
0021   9310 0FBCEF3DF0789703C0E900FEFF7FE7C7
0022   9320                 db 0E7h, 0E3h, 0FFh, 0FFh, 000h, 000h, 000h, 0FFh, 0FFh, 0FFh, 07Fh, 0FEh, 0E8h, 017h, 0FFh, 0F6h
0022   9320 E7E3FFFF000000FFFFFF7FFEE817FFF6
0023   9330                 db 06Dh, 0B6h, 06Fh, 0F7h, 055h, 0AAh, 05Fh, 0FEh, 000h, 06Dh, 0B6h, 06Ah, 07Fh, 0FFh, 0F7h, 0FFh
0023   9330 6DB66FF755AA5FFE006DB66A7FFFF7FF
0024   9340                 db 0AAh, 0F7h, 007h, 0E0h, 07Fh, 0FEh, 0E0h, 000h, 000h, 000h, 007h, 0F7h, 077h, 077h, 085h, 0FFh
0024   9340 AAF707E07FFEE000000007F7777785FF
0025   9350                 db 0FFh, 0E0h, 000h, 000h, 007h, 0FFh, 0FEh, 0E7h, 0CFh, 0F7h, 0FFh, 0F7h, 0FFh, 0FFh, 0FFh, 0FFh
0025   9350 FFE0000007FFFEE7CFF7FFF7FFFFFFFF
0026   9360                 db 0F7h, 0FFh, 07Fh, 0C0h, 0FFh, 003h, 0EFh, 0EFh, 0F7h, 0F7h, 0FCh, 040h, 000h, 000h, 000h, 000h
0026   9360 F7FF7FC0FF03EFEFF7F7FC4000000000
0027   9370                 db 002h, 0FFh, 0FFh, 0FFh, 03Fh, 0EFh, 0FFh, 0BDh, 0FFh, 0F8h, 01Fh, 040h, 000h, 000h, 002h, 0F0h
0027   9370 02FFFFFF3FEFFFBDFFF81F40000002F0
0028   9380                 db 00Fh, 0E0h, 007h, 000h, 0C0h, 003h, 050h, 080h, 001h, 044h, 000h, 097h, 099h, 079h, 000h, 000h
0028   9380 0FE00700C00350800144009799790000
0029   9390                 db 000h, 000h, 000h, 000h, 000h, 000h, 000h, 000h, 000h, 000h, 000h, 000h, 000h, 000h, 000h, 000h
0029   9390 00000000000000000000000000000000
0030   93A0                 db 000h, 000h, 000h, 000h, 000h, 000h, 000h, 000h, 000h, 000h, 000h, 000h, 000h, 000h, 000h, 000h
0030   93A0 00000000000000000000000000000000
0031   93B0                 db 000h, 000h, 000h, 000h, 000h, 000h, 000h, 000h, 000h, 000h, 000h, 000h, 000h, 000h, 000h, 000h
0031   93B0 00000000000000000000000000000000
0032   93C0                 db 000h, 000h, 000h, 000h, 000h, 000h, 000h, 000h, 000h, 000h, 000h, 000h, 000h, 000h, 000h, 000h
0032   93C0 00000000000000000000000000000000
0033   93D0                 db 000h, 000h, 000h, 000h, 000h, 000h, 000h, 000h, 000h, 000h, 000h, 000h, 000h, 000h, 000h, 000h
0033   93D0 00000000000000000000000000000000
0034   93E0                 db 000h, 000h, 000h, 000h, 000h, 000h, 000h, 000h, 000h, 000h, 000h, 000h, 000h, 000h, 000h, 000h
0034   93E0 00000000000000000000000000000000
0035   93F0                 db 000h, 000h, 000h, 000h, 000h, 000h, 000h, 000h, 000h, 000h, 000h, 000h, 000h, 000h, 000h, 000h
0035   93F0 00000000000000000000000000000000
0036   9400                 db 000h, 0E6h, 05Ah, 0FFh, 000h, 0FFh, 000h, 03Fh, 0FFh, 0C7h, 0FFh, 0FCh, 000h, 0FFh, 000h, 0FFh
0036   9400 00E65AFF00FF003FFFC7FFFC00FF00FF
0037   9410                 db 00Fh, 004h, 0D7h, 020h, 0F0h, 0FFh, 0D6h, 003h, 0C0h, 06Bh, 000h, 0FEh, 0FFh, 07Fh, 0E7h, 0D5h
0037   9410 0F04D720F0FFD603C06B00FEFF7FE7D5
0038   9420                 db 0E7h, 0E3h, 0CFh, 0F3h, 00Fh, 0FFh, 0F0h, 0FFh, 0FFh, 0FFh, 063h, 0C6h, 0F1h, 08Fh, 0FFh, 0F6h
0038   9420 E7E3CFF30FFFF0FFFFFF63C6F18FFFF6
0039   9430                 db 06Dh, 0B6h, 06Fh, 0F7h, 063h, 0C6h, 05Fh, 0FEh, 000h, 06Dh, 0B6h, 0D5h, 07Fh, 0FFh, 0F7h, 0FFh
0039   9430 6DB66FF763C65FFE006DB6D57FFFF7FF
0040   9440                 db 0B6h, 0F7h, 03Fh, 0FCh, 07Fh, 0FEh, 0FFh, 0FFh, 0FFh, 0FFh, 0FFh, 0F8h, 0F7h, 08Fh, 081h, 0FFh
0040   9440 B6F73FFC7FFEFFFFFFFFFFF8F78F81FF
0041   9450                 db 0FFh, 0FFh, 0FFh, 0FFh, 0FFh, 0FFh, 0FEh, 0E0h, 00Fh, 0F7h, 000h, 000h, 000h, 0FFh, 0FFh, 0FFh
0041   9450 FFFFFFFFFFFFFEE00FF7000000FFFFFF
0042   9460                 db 0F7h, 0FFh, 07Fh, 0C0h, 0C3h, 003h, 0EFh, 0EFh, 0F7h, 0F7h, 0FCh, 07Fh, 0FFh, 0FFh, 0FFh, 0FFh
0042   9460 F7FF7FC0C303EFEFF7F7FC7FFFFFFFFF
0043   9470                 db 0FEh, 0FFh, 0FFh, 0FFh, 03Fh, 0EFh, 0FFh, 0C3h, 0FFh, 0F8h, 01Fh, 07Fh, 0FFh, 0FFh, 0FEh, 0F0h
0043   9470 FEFFFFFF3FEFFFC3FFF81F7FFFFFFEF0
0044   9480                 db 00Fh, 0E0h, 007h, 010h, 0C0h, 003h, 020h, 080h, 001h, 07Ch, 0CFh, 0D6h, 0DDh, 06Dh, 000h, 000h
0044   9480 0FE00710C0032080017CCFD6DD6D0000
0045   9490                 db 000h, 000h, 000h, 000h, 000h, 000h, 000h, 000h, 000h, 000h, 000h, 000h, 000h, 000h, 000h, 000h
0045   9490 00000000000000000000000000000000
0046   94A0                 db 000h, 000h, 000h, 000h, 000h, 000h, 000h, 000h, 000h, 000h, 000h, 000h, 000h, 000h, 000h, 000h
0046   94A0 00000000000000000000000000000000
0047   94B0                 db 000h, 000h, 000h, 000h, 000h, 000h, 000h, 000h, 000h, 000h, 000h, 000h, 000h, 000h, 000h, 000h
0047   94B0 00000000000000000000000000000000
0048   94C0                 db 000h, 000h, 000h, 000h, 000h, 000h, 000h, 000h, 000h, 000h, 000h, 000h, 000h, 000h, 000h, 000h
0048   94C0 00000000000000000000000000000000
0049   94D0                 db 000h, 000h, 000h, 000h, 000h, 000h, 000h, 000h, 000h, 000h, 000h, 000h, 000h, 000h, 000h, 000h
0049   94D0 00000000000000000000000000000000
0050   94E0                 db 000h, 000h, 000h, 000h, 000h, 000h, 000h, 000h, 000h, 000h, 000h, 000h, 000h, 000h, 000h, 000h
0050   94E0 00000000000000000000000000000000
0051   94F0                 db 000h, 000h, 000h, 000h, 000h, 000h, 000h, 000h, 000h, 000h, 000h, 000h, 000h, 000h, 000h, 000h
0051   94F0 00000000000000000000000000000000
0052   9500                 db 000h, 0CEh, 07Eh, 0FFh, 000h, 0FFh, 000h, 03Fh, 0FFh, 0EFh, 0FFh, 0FCh, 000h, 0FFh, 000h, 0FFh
0052   9500 00CE7EFF00FF003FFFEFFFFC00FF00FF
0053   9510                 db 00Fh, 08Dh, 0D7h, 0B1h, 0F0h, 0FFh, 06Eh, 003h, 0C0h, 076h, 000h, 0FEh, 0FFh, 07Fh, 0A5h, 0C7h
0053   9510 0F8DD7B1F0FF6E03C07600FEFF7FA5C7
0054   9520                 db 0A5h, 0EBh, 0C7h, 0E3h, 03Fh, 0FFh, 0FCh, 0FFh, 0FFh, 0FFh, 055h, 0AAh, 0F3h, 0CFh, 0FFh, 0F6h
0054   9520 A5EBC7E33FFFFCFFFFFF55AAF3CFFFF6
0055   9530                 db 06Dh, 0B6h, 06Fh, 0F7h, 055h, 0AAh, 07Fh, 0FEh, 000h, 06Dh, 0B6h, 0ABh, 07Fh, 0F7h, 077h, 077h
0055   9530 6DB66FF755AA7FFE006DB6AB7FF77777
0056   9540                 db 0B6h, 0D5h, 07Fh, 0FEh, 07Fh, 0FEh, 0E0h, 000h, 000h, 000h, 007h, 0FFh, 0F7h, 0FFh, 0ADh, 07Fh
0056   9540 B6D57FFE7FFEE000000007FFF7FFAD7F
0057   9550                 db 0FEh, 0E0h, 000h, 000h, 007h, 0FFh, 0FEh, 0E7h, 0CFh, 0F7h, 0FFh, 0FFh, 0FFh, 0FFh, 0FFh, 0FFh
0057   9550 FEE0000007FFFEE7CFF7FFFFFFFFFFFF
0058   9560                 db 0F7h, 0FFh, 07Fh, 0C0h, 0C3h, 003h, 0EFh, 0EFh, 0F7h, 077h, 0FCh, 07Fh, 0FFh, 0FFh, 0FFh, 0FFh
0058   9560 F7FF7FC0C303EFEFF777FC7FFFFFFFFF
0059   9570                 db 0FEh, 0FFh, 0BDh, 0FFh, 03Fh, 0EFh, 0FFh, 0FFh, 0FFh, 0F8h, 01Fh, 07Fh, 0FFh, 0FFh, 0FEh, 0F0h
0059   9570 FEFFBDFF3FEFFFFFFFF81F7FFFFFFEF0
0060   9580                 db 007h, 0E0h, 007h, 0BAh, 0C0h, 003h, 026h, 080h, 001h, 074h, 000h, 06Eh, 066h, 0E6h, 000h, 000h
0060   9580 07E007BAC00326800174006E66E60000
0061   9590                 db 000h, 000h, 000h, 000h, 000h, 000h, 000h, 000h, 000h, 000h, 000h, 000h, 000h, 000h, 000h, 000h
0061   9590 00000000000000000000000000000000
0062   95A0                 db 000h, 000h, 000h, 000h, 000h, 000h, 000h, 000h, 000h, 000h, 000h, 000h, 000h, 000h, 000h, 000h
0062   95A0 00000000000000000000000000000000
0063   95B0                 db 000h, 000h, 000h, 000h, 000h, 000h, 000h, 000h, 000h, 000h, 000h, 000h, 000h, 000h, 000h, 000h
0063   95B0 00000000000000000000000000000000
0064   95C0                 db 000h, 000h, 000h, 000h, 000h, 000h, 000h, 000h, 000h, 000h, 000h, 000h, 000h, 000h, 000h, 000h
0064   95C0 00000000000000000000000000000000
0065   95D0                 db 000h, 000h, 000h, 000h, 000h, 000h, 000h, 000h, 000h, 000h, 000h, 000h, 000h, 000h, 000h, 000h
0065   95D0 00000000000000000000000000000000
0066   95E0                 db 000h, 000h, 000h, 000h, 000h, 000h, 000h, 000h, 000h, 000h, 000h, 000h, 000h, 000h, 000h, 000h
0066   95E0 00000000000000000000000000000000
0067   95F0                 db 000h, 000h, 000h, 000h, 000h, 000h, 000h, 000h, 000h, 000h, 000h, 000h, 000h, 000h, 000h, 000h
0067   95F0 00000000000000000000000000000000
0068   9600                 db 000h, 01Eh, 05Ah, 07Fh, 000h, 0FEh, 000h, 01Fh, 0FFh, 0D7h, 0FFh, 0F8h, 000h, 0FFh, 000h, 0FFh
0068   9600 001E5A7F00FE001FFFD7FFF800FF00FF
0069   9610                 db 007h, 0D8h, 06Eh, 01Bh, 0E0h, 0FFh, 06Eh, 001h, 080h, 076h, 000h, 0FEh, 000h, 07Fh, 0E5h, 0D5h
0069   9610 07D86E1BE0FF6E01807600FE007FE5D5
0070   9620                 db 0E5h, 0EBh, 063h, 0C7h, 000h, 000h, 000h, 000h, 000h, 0FFh, 049h, 092h, 06Dh, 0B6h, 000h, 006h
0070   9620 E5EB63C70000000000FF49926DB60006
0071   9630                 db 0ADh, 0B6h, 060h, 0F7h, 049h, 092h, 07Fh, 0FEh, 000h, 06Dh, 0B6h, 0D5h, 07Fh, 0F8h, 0F7h, 08Fh
0071   9630 ADB660F749927FFE006DB6D57FF8F78F
0072   9640                 db 0B6h, 0D5h, 07Fh, 0FEh, 07Fh, 0FEh, 0E7h, 0C7h, 0F8h, 000h, 007h, 000h, 000h, 000h, 06Dh, 07Fh
0072   9640 B6D57FFE7FFEE7C7F800070000006D7F
0073   9650                 db 0FEh, 0E7h, 0C7h, 0FFh, 0E7h, 0FFh, 0FCh, 0EFh, 0EFh, 0F7h, 0FFh, 0FFh, 0FFh, 000h, 000h, 0FFh
0073   9650 FEE7C7FFE7FFFCEFEFF7FFFFFF0000FF
0074   9660                 db 0F7h, 0FFh, 03Fh, 0C0h, 0C3h, 003h, 0EFh, 0EFh, 0F7h, 0F7h, 0F8h, 07Fh, 0FFh, 0FFh, 0FFh, 0FFh
0074   9660 F7FF3FC0C303EFEFF7F7F87FFFFFFFFF
0075   9670                 db 0FEh, 0FFh, 0C3h, 0FFh, 01Fh, 0EFh, 000h, 000h, 000h, 0F0h, 00Fh, 07Fh, 0FFh, 0FFh, 0FEh, 0E0h
0075   9670 FEFFC3FF1FEF000000F00F7FFFFFFEE0
0076   9680                 db 007h, 0C0h, 003h, 0A6h, 080h, 001h, 028h, 000h, 000h, 064h, 0FCh, 06Eh, 066h, 0E6h, 000h, 000h
0076   9680 07C003A6800128000064FC6E66E60000
0077   9690                 db 000h, 000h, 000h, 000h, 000h, 000h, 000h, 000h, 000h, 000h, 000h, 000h, 000h, 000h, 000h, 000h
0077   9690 00000000000000000000000000000000
0078   96A0                 db 000h, 000h, 000h, 000h, 000h, 000h, 000h, 000h, 000h, 000h, 000h, 000h, 000h, 000h, 000h, 000h
0078   96A0 00000000000000000000000000000000
0079   96B0                 db 000h, 000h, 000h, 000h, 000h, 000h, 000h, 000h, 000h, 000h, 000h, 000h, 000h, 000h, 000h, 000h
0079   96B0 00000000000000000000000000000000
0080   96C0                 db 000h, 000h, 000h, 000h, 000h, 000h, 000h, 000h, 000h, 000h, 000h, 000h, 000h, 000h, 000h, 000h
0080   96C0 00000000000000000000000000000000
0081   96D0                 db 000h, 000h, 000h, 000h, 000h, 000h, 000h, 000h, 000h, 000h, 000h, 000h, 000h, 000h, 000h, 000h
0081   96D0 00000000000000000000000000000000
0082   96E0                 db 000h, 000h, 000h, 000h, 000h, 000h, 000h, 000h, 000h, 000h, 000h, 000h, 000h, 000h, 000h, 000h
0082   96E0 00000000000000000000000000000000
0083   96F0                 db 000h, 000h, 000h, 000h, 000h, 000h, 000h, 000h, 000h, 000h, 000h, 000h, 000h, 000h, 000h, 000h
0083   96F0 00000000000000000000000000000000
0084   9700                 db 000h, 0DCh, 066h, 07Fh, 000h, 0FEh, 000h, 01Fh, 0FFh, 0D7h, 0FFh, 0F8h, 000h, 0FFh, 000h, 0FFh
0084   9700 00DC667F00FE001FFFD7FFF800FF00FF
0085   9710                 db 007h, 0DCh, 0EFh, 03Bh, 0E0h, 0FFh, 04Ah, 001h, 080h, 052h, 000h, 0FEh, 0FFh, 07Fh, 0A7h, 0D7h
0085   9710 07DCEF3BE0FF4A01805200FEFF7FA7D7
0086   9720                 db 0A7h, 0A3h, 0F1h, 08Fh, 07Fh, 0FFh, 0FEh, 0EFh, 0F7h, 0FFh, 055h, 0AAh, 0DFh, 0FBh, 000h, 0F6h
0086   9720 A7A3F18F7FFFFEEFF7FF55AADFFB00F6
0087   9730                 db 081h, 0B6h, 06Fh, 0F7h, 055h, 0AAh, 07Fh, 0FEh, 000h, 06Dh, 0B6h, 0ABh, 07Fh, 0FFh, 0F7h, 0FFh
0087   9730 81B66FF755AA7FFE006DB6AB7FFFF7FF
0088   9740                 db 0B6h, 0D5h, 0FFh, 0FFh, 07Fh, 0FEh, 0EFh, 0EFh, 0FFh, 0FFh, 0E7h, 0FFh, 0F7h, 0FFh, 06Dh, 03Fh
0088   9740 B6D5FFFF7FFEEFEFFFFFE7FFF7FF6D3F
0089   9750                 db 0FCh, 0EFh, 0EFh, 0FFh, 0F7h, 0FFh, 0FCh, 0EFh, 0AFh, 0F7h, 0FFh, 0BDh, 0FFh, 0FEh, 07Fh, 0FFh
0089   9750 FCEFEFFFF7FFFCEFAFF7FFBDFFFE7FFF
0090   9760                 db 0F7h, 0FFh, 03Fh, 0C0h, 0C3h, 003h, 0E7h, 0CFh, 0F7h, 0F7h, 0F8h, 07Fh, 0FFh, 0FFh, 0FFh, 0FFh
0090   9760 F7FF3FC0C303E7CFF7F7F87FFFFFFFFF
0091   9770                 db 0FEh, 0FFh, 0FFh, 0FFh, 01Fh, 0EFh, 0E0h, 000h, 007h, 0F0h, 00Fh, 07Fh, 0FFh, 0FFh, 0FEh, 0E0h
0091   9770 FEFFFFFF1FEFE00007F00F7FFFFFFEE0
0092   9780                 db 007h, 0C0h, 003h, 04Eh, 080h, 001h, 010h, 000h, 000h, 06Ch, 000h, 04Ah, 044h, 0A4h, 000h, 000h
0092   9780 07C0034E80011000006C004A44A40000
0093   9790                 db 000h, 000h, 000h, 000h, 000h, 000h, 000h, 000h, 000h, 000h, 000h, 000h, 000h, 000h, 000h, 000h
0093   9790 00000000000000000000000000000000
0094   97A0                 db 000h, 000h, 000h, 000h, 000h, 000h, 000h, 000h, 000h, 000h, 000h, 000h, 000h, 000h, 000h, 000h
0094   97A0 00000000000000000000000000000000
0095   97B0                 db 000h, 000h, 000h, 000h, 000h, 000h, 000h, 000h, 000h, 000h, 000h, 000h, 000h, 000h, 000h, 000h
0095   97B0 00000000000000000000000000000000
0096   97C0                 db 000h, 000h, 000h, 000h, 000h, 000h, 000h, 000h, 000h, 000h, 000h, 000h, 000h, 000h, 000h, 000h
0096   97C0 00000000000000000000000000000000
0097   97D0                 db 000h, 000h, 000h, 000h, 000h, 000h, 000h, 000h, 000h, 000h, 000h, 000h, 000h, 000h, 000h, 000h
0097   97D0 00000000000000000000000000000000
0098   97E0                 db 000h, 000h, 000h, 000h, 000h, 000h, 000h, 000h, 000h, 000h, 000h, 000h, 000h, 000h, 000h, 000h
0098   97E0 00000000000000000000000000000000
0099   97F0                 db 000h, 000h, 000h, 000h, 000h, 000h, 000h, 000h, 000h, 000h, 000h, 000h, 000h, 000h, 000h, 000h
0099   97F0 00000000000000000000000000000000
0100   9800                 db 000h, 0D9h, 03Ch, 07Fh, 000h, 0FEh, 000h, 01Fh, 09Fh, 0EFh, 0F9h, 0F8h, 000h, 09Fh, 000h, 0F9h
0100   9800 00D93C7F00FE001F9FEFF9F8009F00F9
0101   9810                 db 007h, 0E6h, 0C7h, 067h, 0E0h, 0FFh, 05Bh, 001h, 080h, 0DAh, 000h, 0FEh, 0FFh, 07Fh, 0A5h, 0D5h
0101   9810 07E6C767E0FF5B0180DA00FEFF7FA5D5
0102   9820                 db 0A5h, 0ABh, 0F8h, 01Fh, 0FFh, 0FFh, 0FFh, 0EFh, 0F7h, 0FFh, 063h, 0C6h, 0FFh, 0FFh, 000h, 0F6h
0102   9820 A5ABF81FFFFFFFEFF7FF63C6FFFF00F6
0103   9830                 db 085h, 0B6h, 06Fh, 0F7h, 063h, 0C6h, 07Fh, 0FEh, 000h, 06Dh, 0B6h, 0D5h, 07Fh, 000h, 000h, 000h
0103   9830 85B66FF763C67FFE006DB6D57F000000
0104   9840                 db 0B6h, 0F7h, 0FFh, 0FFh, 07Fh, 0FEh, 0EFh, 0AFh, 0FFh, 0FFh, 0F7h, 0FFh, 0F7h, 0FFh, 06Dh, 007h
0104   9840 B6F7FFFF7FFEEFAFFFFFF7FFF7FF6D07
0105   9850                 db 0E0h, 0EFh, 0EFh, 0FFh, 0F7h, 0FFh, 0FCh, 0EFh, 0EFh, 0E7h, 0FFh, 0C3h, 0FFh, 0FEh, 07Fh, 0FFh
0105   9850 E0EFEFFFF7FFFCEFEFE7FFC3FFFE7FFF
0106   9860                 db 0F7h, 0FFh, 03Fh, 080h, 081h, 001h, 0E0h, 00Fh, 0F7h, 000h, 0F8h, 060h, 000h, 000h, 000h, 000h
0106   9860 F7FF3F808101E00FF700F86000000000
0107   9870                 db 006h, 000h, 000h, 000h, 01Fh, 0EFh, 0C0h, 000h, 003h, 0F0h, 00Fh, 060h, 000h, 000h, 006h, 0E0h
0107   9870 060000001FEFC00003F00F60000006E0
0108   9880                 db 007h, 0C0h, 003h, 06Ch, 080h, 001h, 092h, 000h, 000h, 028h, 0EFh, 05Bh, 055h, 0B5h, 000h, 000h
0108   9880 07C0036C800192000028EF5B55B50000
0109   9890                 db 000h, 000h, 000h, 000h, 000h, 000h, 000h, 000h, 000h, 000h, 000h, 000h, 000h, 000h, 000h, 000h
0109   9890 00000000000000000000000000000000
0110   98A0                 db 000h, 000h, 000h, 000h, 000h, 000h, 000h, 000h, 000h, 000h, 000h, 000h, 000h, 000h, 000h, 000h
0110   98A0 00000000000000000000000000000000
0111   98B0                 db 000h, 000h, 000h, 000h, 000h, 000h, 000h, 000h, 000h, 000h, 000h, 000h, 000h, 000h, 000h, 000h
0111   98B0 00000000000000000000000000000000
0112   98C0                 db 000h, 000h, 000h, 000h, 000h, 000h, 000h, 000h, 000h, 000h, 000h, 000h, 000h, 000h, 000h, 000h
0112   98C0 00000000000000000000000000000000
0113   98D0                 db 000h, 000h, 000h, 000h, 000h, 000h, 000h, 000h, 000h, 000h, 000h, 000h, 000h, 000h, 000h, 000h
0113   98D0 00000000000000000000000000000000
0114   98E0                 db 000h, 000h, 000h, 000h, 000h, 000h, 000h, 000h, 000h, 000h, 000h, 000h, 000h, 000h, 000h, 000h
0114   98E0 00000000000000000000000000000000
0115   98F0                 db 000h, 000h, 000h, 000h, 000h, 000h, 000h, 000h, 000h, 000h, 000h, 000h, 000h, 000h, 000h, 000h
0115   98F0 00000000000000000000000000000000
0116   9900                 db 000h, 083h, 042h, 07Fh, 000h, 0FEh, 000h, 01Fh, 09Ch, 0D7h, 039h, 0F8h, 000h, 09Ch, 000h, 039h
0116   9900 0083427F00FE001F9CD739F8009C0039
0117   9910                 db 007h, 0F8h, 038h, 01Fh, 0E0h, 0FFh, 07Bh, 001h, 080h, 0DEh, 000h, 0FEh, 0FFh, 07Fh, 0E7h, 0C7h
0117   9910 07F8381FE0FF7B0180DE00FEFF7FE7C7
0118   9920                 db 0E7h, 0E3h, 0FCh, 03Fh, 0FFh, 0FFh, 0FFh, 0EFh, 0F7h, 000h, 055h, 0AAh, 0FFh, 0FFh, 000h, 0F6h
0118   9920 E7E3FC3FFFFFFFEFF70055AAFFFF00F6
0119   9930                 db 0ADh, 0B6h, 06Fh, 0F7h, 07Fh, 0FEh, 07Fh, 0FEh, 000h, 06Dh, 0B6h, 06Ah, 07Fh, 0FFh, 0F7h, 0FFh
0119   9930 ADB66FF77FFE7FFE006DB66A7FFFF7FF
0120   9940                 db 0B6h, 0F7h, 0FFh, 0FFh, 03Fh, 0FCh, 0EFh, 0EFh, 0FFh, 0FFh, 0F7h, 0F7h, 077h, 077h, 06Dh, 000h
0120   9940 B6F7FFFF3FFCEFEFFFFFF7F777776D00
0121   9950                 db 000h, 0EFh, 0EFh, 0FFh, 0F7h, 0FFh, 0FCh, 0EAh, 0AFh, 0E7h, 0FFh, 0FFh, 0FFh, 000h, 000h, 080h
0121   9950 00EFEFFFF7FFFCEAAFE7FFFFFF000080
0122   9960                 db 000h, 001h, 03Fh, 080h, 081h, 001h, 0E7h, 0CFh, 0F7h, 0FFh, 0F8h, 040h, 000h, 000h, 000h, 000h
0122   9960 00013F808101E7CFF7FFF84000000000
0123   9970                 db 002h, 080h, 000h, 001h, 01Fh, 0EFh, 080h, 000h, 001h, 0F0h, 00Fh, 040h, 000h, 000h, 002h, 0E0h
0123   9970 028000011FEF800001F00F40000002E0
0124   9980                 db 007h, 0C0h, 003h, 038h, 080h, 001h, 054h, 000h, 000h, 038h, 000h, 07Bh, 077h, 0B7h, 000h, 000h
0124   9980 07C00338800154000038007B77B70000
0125   9990                 db 000h, 000h, 000h, 000h, 000h, 000h, 000h, 000h, 000h, 000h, 000h, 000h, 000h, 000h, 000h, 000h
0125   9990 00000000000000000000000000000000
0126   99A0                 db 000h, 000h, 000h, 000h, 000h, 000h, 000h, 000h, 000h, 000h, 000h, 000h, 000h, 000h, 000h, 000h
0126   99A0 00000000000000000000000000000000
0127   99B0                 db 000h, 000h, 000h, 000h, 000h, 000h, 000h, 000h, 000h, 000h, 000h, 000h, 000h, 000h, 000h, 000h
0127   99B0 00000000000000000000000000000000
0128   99C0                 db 000h, 000h, 000h, 000h, 000h, 000h, 000h, 000h, 000h, 000h, 000h, 000h, 000h, 000h, 000h, 000h
0128   99C0 00000000000000000000000000000000
0129   99D0                 db 000h, 000h, 000h, 000h, 000h, 000h, 000h, 000h, 000h, 000h, 000h, 000h, 000h, 000h, 000h, 000h
0129   99D0 00000000000000000000000000000000
0130   99E0                 db 000h, 000h, 000h, 000h, 000h, 000h, 000h, 000h, 000h, 000h, 000h, 000h, 000h, 000h, 000h, 000h
0130   99E0 00000000000000000000000000000000
0131   99F0                 db 000h, 000h, 000h, 000h, 000h, 000h, 000h, 000h, 000h, 000h, 000h, 000h, 000h, 000h, 000h, 000h
0131   99F0 00000000000000000000000000000000
0132   9A00                 db 000h, 044h, 046h, 037h, 03Fh, 037h, 07Fh, 037h, 007h, 017h, 007h, 037h, 036h, 047h, 012h, 047h
0132   9A00 004446373F377F370717073736471247
0133   9A10                 db 037h, 017h, 017h, 017h, 037h, 045h, 002h, 037h, 037h, 002h, 06Dh, 006h, 046h, 006h, 04Ch, 05Dh
0133   9A10 371717173745023737026D0646064C5D
0134   9A20                 db 04Eh, 042h, 046h, 04Eh, 046h, 046h, 046h, 046h, 046h, 042h, 047h, 047h, 04Eh, 046h, 046h, 046h
0134   9A20 4E42464E46464646464247474E464646
0135   9A30                 db 005h, 005h, 046h, 002h, 047h, 047h, 045h, 045h, 052h, 005h, 005h, 047h, 045h, 002h, 002h, 002h
0135   9A30 05054602474745455205054745020202
0136   9A40                 db 005h, 002h, 002h, 002h, 045h, 045h, 045h, 045h, 045h, 045h, 045h, 002h, 002h, 002h, 005h, 002h
0136   9A40 05020202454545454545450202020502
0137   9A50                 db 002h, 047h, 047h, 047h, 047h, 042h, 006h, 045h, 045h, 045h, 002h, 002h, 002h, 002h, 002h, 002h
0137   9A50 02474747474206454545020202020202
0138   9A60                 db 002h, 002h, 006h, 042h, 042h, 042h, 047h, 047h, 047h, 002h, 006h, 005h, 005h, 005h, 005h, 005h
0138   9A60 02020642424247474702060505050505
0139   9A70                 db 005h, 002h, 002h, 002h, 006h, 047h, 002h, 002h, 002h, 006h, 006h, 047h, 047h, 047h, 047h, 006h
0139   9A70 05020202064702020206064747474706
0140   9A80                 db 006h, 006h, 006h, 042h, 006h, 006h, 044h, 006h, 006h, 047h, 046h, 002h, 002h, 002h, 07Fh, 07Fh
0140   9A80 06060642060644060647460202027F7F
0141   9A90                 db 07Fh, 07Fh, 07Fh, 07Fh, 07Fh, 07Fh, 07Fh, 07Fh, 07Fh, 07Fh, 07Fh, 07Fh, 07Fh, 07Fh, 07Fh, 07Fh
0141   9A90 7F7F7F7F7F7F7F7F7F7F7F7F7F7F7F7F
0142   9AA0                 db 07Fh, 07Fh, 07Fh, 07Fh, 07Fh, 07Fh, 07Fh, 07Fh, 07Fh, 07Fh, 07Fh, 07Fh, 07Fh, 07Fh, 07Fh, 07Fh
0142   9AA0 7F7F7F7F7F7F7F7F7F7F7F7F7F7F7F7F
0143   9AB0                 db 07Fh, 07Fh, 07Fh, 07Fh, 07Fh, 07Fh, 07Fh, 07Fh, 07Fh, 07Fh, 07Fh, 07Fh, 07Fh, 07Fh, 07Fh, 07Fh
0143   9AB0 7F7F7F7F7F7F7F7F7F7F7F7F7F7F7F7F
0144   9AC0                 db 07Fh, 07Fh, 07Fh, 07Fh, 07Fh, 07Fh, 07Fh, 07Fh, 07Fh, 07Fh, 07Fh, 07Fh, 07Fh, 07Fh, 07Fh, 07Fh
0144   9AC0 7F7F7F7F7F7F7F7F7F7F7F7F7F7F7F7F
0145   9AD0                 db 07Fh, 07Fh, 07Fh, 07Fh, 07Fh, 07Fh, 07Fh, 07Fh, 07Fh, 07Fh, 07Fh, 07Fh, 07Fh, 07Fh, 07Fh, 07Fh
0145   9AD0 7F7F7F7F7F7F7F7F7F7F7F7F7F7F7F7F
0146   9AE0                 db 07Fh, 07Fh, 07Fh, 07Fh, 07Fh, 07Fh, 07Fh, 07Fh, 07Fh, 07Fh, 07Fh, 07Fh, 07Fh, 07Fh, 07Fh, 07Fh
0146   9AE0 7F7F7F7F7F7F7F7F7F7F7F7F7F7F7F7F
0147   9AF0                 db 07Fh, 07Fh, 07Fh, 07Fh, 07Fh, 07Fh, 07Fh, 07Fh, 07Fh, 07Fh, 07Fh, 07Fh, 07Fh, 07Fh, 07Fh, 000h
0147   9AF0 7F7F7F7F7F7F7F7F7F7F7F7F7F7F7F00
0148   9B00             
0149   9B00             city1bEnemy=142
0150   9B00             city1bWidth=256
0151   9B00             city1bHeight=20
0152   9B00             
0153   9B00             city1bMap:  ; size 256 x 20
0154   9B00                 db 1, 1, 2, 3, 4, 4, 4, 4, 4, 4, 4, 4, 4, 4, 4, 4, 4, 4, 4, 4, 4, 4, 4, 4, 4, 4, 4, 4, 5, 2, 1, 1, 1, 1, 2, 6, 6, 6, 6, 6, 6, 6, 6, 6, 6, 6, 6, 6, 6, 6, 6, 6, 6, 6, 6, 6, 6, 6, 6, 6, 6, 2, 1, 1
0154   9B00 0101020304040404040404040404040404040404040404040404040405020101
0154   9B20 0101020606060606060606060606060606060606060606060606060606020101
0155   9B40                 db 6, 6, 6, 6, 6, 6, 6, 6, 6, 6, 6, 6, 6, 6, 6, 6, 6, 6, 6, 6, 6, 6, 6, 6, 6, 6, 6, 6, 6, 6, 6, 6, 6, 6, 6, 6, 6, 6, 6, 6, 6, 6, 6, 6, 6, 6, 6, 6, 6, 6, 6, 6, 6, 6, 6, 6, 6, 6, 6, 6, 6, 6, 6, 6
0155   9B40 0606060606060606060606060606060606060606060606060606060606060606
0155   9B60 0606060606060606060606060606060606060606060606060606060606060606
0156   9B80                 db 6, 6, 6, 6, 6, 6, 6, 6, 6, 6, 6, 6, 6, 6, 6, 6, 6, 6, 6, 6, 6, 6, 6, 6, 6, 6, 6, 6, 6, 6, 6, 6, 6, 6, 6, 6, 6, 6, 6, 6, 6, 6, 6, 6, 6, 6, 6, 6, 6, 6, 6, 6, 6, 6, 6, 6, 6, 6, 6, 6, 6, 6, 6, 6
0156   9B80 0606060606060606060606060606060606060606060606060606060606060606
0156   9BA0 0606060606060606060606060606060606060606060606060606060606060606
0157   9BC0                 db 6, 6, 6, 6, 6, 6, 6, 6, 6, 6, 6, 6, 6, 6, 6, 6, 6, 6, 6, 6, 6, 6, 6, 6, 6, 6, 6, 6, 6, 6, 6, 6, 6, 6, 6, 6, 6, 6, 6, 6, 6, 6, 6, 6, 6, 6, 6, 6, 6, 6, 6, 6, 6, 6, 6, 6, 6, 6, 6, 6, 6, 6, 6, 6
0157   9BC0 0606060606060606060606060606060606060606060606060606060606060606
0157   9BE0 0606060606060606060606060606060606060606060606060606060606060606
0158   9C00                 db 1, 1, 2, 7, 4, 4, 4, 4, 4, 4, 4, 4, 4, 4, 8, 9, 10, 4, 4, 4, 4, 4, 4, 4, 4, 4, 4, 4, 11, 2, 1, 1, 1, 1, 2, 12, 6, 6, 6, 6, 6, 6, 6, 6, 6, 6, 13, 14, 15, 6, 6, 6, 6, 6, 6, 6, 6, 6, 6, 6, 6, 2, 1, 1
0158   9C00 010102070404040404040404040408090A04040404040404040404040B020101
0158   9C20 0101020C060606060606060606060D0E0F060606060606060606060606020101
0159   9C40                 db 6, 6, 6, 6, 6, 6, 6, 6, 6, 6, 6, 6, 6, 6, 6, 6, 6, 6, 6, 6, 6, 6, 6, 6, 6, 6, 6, 6, 6, 6, 6, 6, 6, 6, 6, 6, 6, 6, 6, 6, 6, 6, 6, 6, 6, 6, 6, 6, 6, 6, 6, 6, 6, 6, 6, 6, 6, 6, 6, 6, 6, 6, 6, 6
0159   9C40 0606060606060606060606060606060606060606060606060606060606060606
0159   9C60 0606060606060606060606060606060606060606060606060606060606060606
0160   9C80                 db 6, 6, 6, 6, 6, 6, 6, 6, 6, 6, 6, 6, 6, 6, 6, 6, 6, 6, 6, 6, 6, 6, 6, 6, 6, 6, 6, 6, 6, 6, 6, 6, 6, 6, 6, 6, 6, 6, 6, 6, 6, 6, 6, 6, 6, 6, 6, 6, 6, 6, 6, 6, 6, 6, 6, 6, 6, 6, 6, 6, 6, 6, 6, 6
0160   9C80 0606060606060606060606060606060606060606060606060606060606060606
0160   9CA0 0606060606060606060606060606060606060606060606060606060606060606
0161   9CC0                 db 6, 6, 6, 6, 6, 6, 6, 6, 6, 6, 6, 6, 6, 6, 6, 6, 6, 6, 6, 6, 6, 6, 6, 6, 6, 6, 6, 6, 6, 6, 6, 6, 6, 6, 6, 6, 6, 6, 6, 6, 6, 6, 6, 6, 6, 6, 6, 6, 6, 6, 6, 6, 6, 6, 6, 6, 6, 6, 6, 6, 6, 6, 6, 6
0161   9CC0 0606060606060606060606060606060606060606060606060606060606060606
0161   9CE0 0606060606060606060606060606060606060606060606060606060606060606
0162   9D00                 db 1, 1, 2, 16, 4, 4, 4, 4, 4, 4, 4, 4, 4, 4, 17, 18, 19, 4, 4, 4, 4, 4, 4, 4, 4, 4, 4, 4, 20, 2, 1, 1, 1, 1, 2, 12, 6, 6, 6, 6, 6, 6, 6, 6, 6, 6, 6, 6, 14, 6, 6, 6, 6, 6, 6, 6, 6, 6, 6, 6, 6, 2, 1, 1
0162   9D00 0101021004040404040404040404111213040404040404040404040414020101
0162   9D20 0101020C0606060606060606060606060E060606060606060606060606020101
0163   9D40                 db 6, 6, 6, 6, 6, 6, 6, 6, 6, 6, 6, 6, 6, 6, 6, 6, 6, 6, 6, 6, 6, 6, 6, 6, 6, 6, 6, 6, 6, 6, 6, 6, 6, 6, 6, 6, 6, 6, 6, 6, 6, 6, 6, 6, 6, 6, 6, 6, 6, 6, 6, 6, 6, 6, 6, 6, 6, 6, 6, 6, 6, 6, 6, 6
0163   9D40 0606060606060606060606060606060606060606060606060606060606060606
0163   9D60 0606060606060606060606060606060606060606060606060606060606060606
0164   9D80                 db 6, 6, 6, 6, 6, 6, 6, 6, 6, 6, 6, 6, 6, 6, 6, 6, 6, 6, 6, 6, 6, 6, 6, 6, 6, 6, 6, 6, 6, 6, 6, 6, 6, 6, 6, 6, 6, 6, 6, 6, 6, 6, 6, 6, 6, 6, 6, 6, 6, 6, 6, 6, 6, 6, 6, 6, 6, 6, 6, 6, 6, 6, 6, 6
0164   9D80 0606060606060606060606060606060606060606060606060606060606060606
0164   9DA0 0606060606060606060606060606060606060606060606060606060606060606
0165   9DC0                 db 6, 6, 6, 6, 6, 6, 6, 6, 6, 6, 6, 6, 6, 6, 6, 6, 6, 6, 6, 6, 6, 6, 6, 6, 6, 6, 6, 6, 6, 6, 6, 6, 6, 6, 6, 6, 6, 6, 6, 6, 6, 6, 6, 6, 6, 6, 6, 6, 6, 6, 6, 6, 6, 6, 6, 6, 6, 6, 6, 6, 6, 6, 6, 6
0165   9DC0 0606060606060606060606060606060606060606060606060606060606060606
0165   9DE0 0606060606060606060606060606060606060606060606060606060606060606
0166   9E00                 db 21, 22, 2, 23, 4, 4, 4, 4, 4, 4, 4, 4, 4, 4, 4, 4, 4, 4, 4, 4, 4, 4, 4, 4, 4, 4, 4, 4, 24, 2, 25, 21, 21, 22, 2, 12, 6, 6, 6, 6, 6, 6, 6, 6, 6, 6, 6, 6, 6, 6, 6, 6, 6, 6, 6, 6, 6, 6, 6, 6, 6, 2, 25, 21
0166   9E00 1516021704040404040404040404040404040404040404040404040418021915
0166   9E20 1516020C06060606060606060606060606060606060606060606060606021915
0167   9E40                 db 6, 6, 6, 6, 6, 6, 6, 6, 6, 6, 6, 6, 6, 6, 6, 6, 6, 6, 6, 6, 6, 6, 6, 6, 6, 6, 6, 6, 6, 6, 6, 6, 6, 6, 6, 6, 6, 6, 6, 6, 6, 6, 6, 6, 6, 6, 6, 6, 6, 6, 6, 6, 6, 6, 6, 6, 6, 6, 6, 6, 6, 6, 6, 6
0167   9E40 0606060606060606060606060606060606060606060606060606060606060606
0167   9E60 0606060606060606060606060606060606060606060606060606060606060606
0168   9E80                 db 6, 6, 6, 6, 6, 6, 6, 6, 6, 6, 6, 6, 6, 6, 6, 6, 6, 6, 6, 6, 6, 6, 6, 6, 6, 6, 6, 6, 6, 6, 6, 6, 6, 6, 6, 6, 6, 6, 6, 6, 6, 6, 6, 6, 6, 6, 6, 6, 6, 6, 6, 6, 6, 6, 6, 6, 6, 6, 6, 6, 6, 6, 6, 6
0168   9E80 0606060606060606060606060606060606060606060606060606060606060606
0168   9EA0 0606060606060606060606060606060606060606060606060606060606060606
0169   9EC0                 db 6, 6, 6, 6, 6, 6, 6, 6, 6, 6, 6, 6, 6, 6, 6, 6, 6, 6, 6, 6, 6, 6, 6, 6, 6, 6, 6, 6, 6, 6, 6, 6, 6, 6, 6, 6, 6, 6, 6, 6, 6, 6, 6, 6, 6, 6, 6, 6, 6, 6, 6, 6, 6, 6, 6, 6, 6, 6, 6, 6, 6, 6, 6, 6
0169   9EC0 0606060606060606060606060606060606060606060606060606060606060606
0169   9EE0 0606060606060606060606060606060606060606060606060606060606060606
0170   9F00                 db 26, 22, 2, 27, 28, 28, 28, 28, 28, 28, 28, 28, 28, 28, 28, 28, 28, 28, 28, 28, 28, 28, 28, 28, 28, 28, 28, 28, 29, 2, 25, 26, 26, 22, 2, 27, 28, 28, 28, 28, 28, 28, 28, 28, 28, 28, 28, 28, 28, 28, 28, 28, 28, 28, 28, 28, 28, 28, 28, 28, 29, 2, 25, 26
0170   9F00 1A16021B1C1C1C1C1C1C1C1C1C1C1C1C1C1C1C1C1C1C1C1C1C1C1C1C1D02191A
0170   9F20 1A16021B1C1C1C1C1C1C1C1C1C1C1C1C1C1C1C1C1C1C1C1C1C1C1C1C1D02191A
0171   9F40                 db 6, 6, 6, 6, 6, 6, 6, 6, 6, 6, 6, 6, 6, 6, 6, 6, 6, 6, 6, 6, 6, 6, 6, 6, 6, 6, 6, 6, 6, 6, 6, 6, 6, 6, 6, 6, 6, 6, 6, 6, 6, 6, 6, 6, 6, 6, 6, 6, 6, 6, 6, 6, 6, 6, 6, 6, 6, 6, 6, 6, 6, 6, 6, 6
0171   9F40 0606060606060606060606060606060606060606060606060606060606060606
0171   9F60 0606060606060606060606060606060606060606060606060606060606060606
0172   9F80                 db 6, 6, 6, 6, 6, 6, 6, 6, 6, 6, 6, 6, 6, 6, 6, 6, 6, 6, 6, 6, 6, 6, 6, 6, 6, 6, 6, 6, 6, 6, 6, 6, 6, 6, 6, 6, 6, 6, 6, 6, 6, 6, 6, 6, 6, 6, 6, 6, 6, 6, 6, 6, 6, 6, 6, 6, 6, 6, 6, 6, 6, 6, 6, 6
0172   9F80 0606060606060606060606060606060606060606060606060606060606060606
0172   9FA0 0606060606060606060606060606060606060606060606060606060606060606
0173   9FC0                 db 6, 6, 6, 6, 6, 6, 6, 6, 6, 6, 6, 6, 6, 6, 6, 6, 6, 6, 6, 6, 6, 6, 6, 6, 6, 6, 6, 6, 6, 6, 6, 6, 6, 6, 6, 6, 6, 6, 6, 6, 6, 6, 6, 6, 6, 6, 6, 6, 6, 6, 6, 6, 6, 6, 6, 6, 6, 6, 6, 6, 6, 6, 6, 6
0173   9FC0 0606060606060606060606060606060606060606060606060606060606060606
0173   9FE0 0606060606060606060606060606060606060606060606060606060606060606
0174   A000                 db 26, 22, 2, 27, 28, 30, 31, 32, 33, 28, 33, 31, 32, 31, 33, 28, 30, 31, 32, 33, 28, 28, 28, 28, 28, 28, 28, 28, 29, 2, 25, 26, 26, 22, 2, 27, 28, 28, 28, 28, 28, 28, 28, 28, 28, 28, 28, 28, 28, 28, 34, 35, 28, 28, 28, 28, 28, 28, 28, 28, 29, 2, 25, 26
0174   A000 1A16021B1C1E1F20211C211F201F211C1E1F20211C1C1C1C1C1C1C1C1D02191A
0174   A020 1A16021B1C1C1C1C1C1C1C1C1C1C1C1C1C1C22231C1C1C1C1C1C1C1C1D02191A
0175   A040                 db 6, 6, 6, 6, 6, 6, 6, 6, 6, 6, 6, 6, 6, 6, 6, 6, 6, 6, 6, 6, 6, 6, 6, 6, 6, 6, 6, 6, 6, 6, 6, 6, 6, 6, 6, 6, 6, 6, 6, 6, 6, 6, 6, 6, 6, 6, 6, 6, 6, 6, 6, 6, 6, 6, 6, 6, 6, 6, 6, 6, 6, 6, 6, 6
0175   A040 0606060606060606060606060606060606060606060606060606060606060606
0175   A060 0606060606060606060606060606060606060606060606060606060606060606
0176   A080                 db 6, 6, 6, 6, 6, 6, 6, 6, 6, 6, 6, 6, 6, 6, 6, 6, 6, 6, 6, 6, 6, 6, 6, 6, 6, 6, 6, 6, 6, 6, 6, 6, 6, 6, 6, 6, 6, 6, 6, 6, 6, 6, 6, 6, 6, 6, 6, 6, 6, 6, 6, 6, 6, 6, 6, 6, 6, 6, 6, 6, 6, 6, 6, 6
0176   A080 0606060606060606060606060606060606060606060606060606060606060606
0176   A0A0 0606060606060606060606060606060606060606060606060606060606060606
0177   A0C0                 db 6, 6, 6, 6, 6, 6, 6, 6, 6, 6, 6, 6, 6, 6, 6, 6, 6, 6, 6, 6, 6, 6, 6, 6, 6, 6, 6, 6, 6, 6, 6, 6, 6, 6, 6, 6, 6, 6, 6, 6, 6, 6, 6, 6, 6, 6, 6, 6, 6, 6, 6, 6, 6, 6, 6, 6, 6, 6, 6, 6, 6, 6, 6, 6
0177   A0C0 0606060606060606060606060606060606060606060606060606060606060606
0177   A0E0 0606060606060606060606060606060606060606060606060606060606060606
0178   A100                 db 26, 22, 2, 27, 28, 36, 37, 37, 38, 28, 36, 37, 37, 37, 38, 28, 36, 37, 37, 38, 28, 39, 28, 28, 40, 41, 41, 41, 29, 2, 25, 26, 26, 22, 2, 27, 41, 41, 41, 39, 28, 28, 40, 28, 28, 28, 42, 43, 28, 28, 44, 45, 28, 28, 42, 43, 28, 46, 46, 46, 29, 2, 25, 26
0178   A100 1A16021B1C242525261C24252525261C242525261C271C1C282929291D02191A
0178   A120 1A16021B292929271C1C281C1C1C2A2B1C1C2C2D1C1C2A2B1C2E2E2E1D02191A
0179   A140                 db 6, 6, 6, 6, 6, 6, 6, 6, 6, 6, 6, 6, 6, 6, 6, 6, 6, 6, 6, 6, 6, 6, 6, 6, 6, 6, 6, 6, 6, 6, 6, 6, 6, 6, 6, 6, 6, 6, 6, 6, 6, 6, 6, 6, 6, 6, 6, 6, 6, 6, 6, 6, 6, 6, 6, 6, 6, 6, 6, 6, 6, 6, 6, 6
0179   A140 0606060606060606060606060606060606060606060606060606060606060606
0179   A160 0606060606060606060606060606060606060606060606060606060606060606
0180   A180                 db 6, 6, 6, 6, 6, 6, 6, 6, 6, 6, 6, 6, 6, 6, 6, 6, 6, 6, 6, 6, 6, 6, 6, 6, 6, 6, 6, 6, 6, 6, 6, 6, 6, 6, 6, 6, 6, 6, 6, 6, 6, 6, 6, 6, 6, 6, 6, 6, 6, 6, 6, 6, 6, 6, 6, 6, 6, 6, 6, 6, 6, 6, 6, 6
0180   A180 0606060606060606060606060606060606060606060606060606060606060606
0180   A1A0 0606060606060606060606060606060606060606060606060606060606060606
0181   A1C0                 db 6, 6, 6, 6, 6, 6, 6, 6, 6, 6, 6, 6, 6, 6, 6, 6, 6, 6, 6, 6, 6, 6, 6, 6, 6, 6, 6, 6, 6, 6, 6, 6, 6, 6, 6, 6, 6, 6, 6, 6, 6, 6, 6, 6, 6, 6, 6, 6, 6, 6, 6, 6, 6, 6, 6, 6, 6, 6, 6, 6, 6, 6, 6, 6
0181   A1C0 0606060606060606060606060606060606060606060606060606060606060606
0181   A1E0 0606060606060606060606060606060606060606060606060606060606060606
0182   A200                 db 26, 22, 2, 27, 28, 28, 42, 43, 28, 28, 28, 28, 28, 28, 28, 28, 28, 42, 43, 28, 28, 47, 48, 49, 50, 14, 51, 14, 29, 2, 25, 26, 26, 22, 2, 27, 14, 51, 14, 47, 48, 49, 50, 28, 28, 28, 52, 53, 28, 28, 28, 28, 28, 28, 52, 53, 28, 54, 26, 55, 29, 2, 25, 26
0182   A200 1A16021B1C1C2A2B1C1C1C1C1C1C1C1C1C2A2B1C1C2F3031320E330E1D02191A
0182   A220 1A16021B0E330E2F3031321C1C1C34351C1C1C1C1C1C34351C361A371D02191A
0183   A240                 db 6, 6, 6, 6, 6, 6, 6, 6, 6, 6, 6, 6, 6, 6, 6, 6, 6, 6, 6, 6, 6, 6, 6, 6, 6, 6, 6, 6, 6, 6, 6, 6, 6, 6, 6, 6, 6, 6, 6, 6, 6, 6, 6, 6, 6, 6, 6, 6, 6, 6, 6, 6, 6, 6, 6, 6, 6, 6, 6, 6, 6, 6, 6, 6
0183   A240 0606060606060606060606060606060606060606060606060606060606060606
0183   A260 0606060606060606060606060606060606060606060606060606060606060606
0184   A280                 db 6, 6, 6, 6, 6, 6, 6, 6, 6, 6, 6, 6, 6, 6, 6, 6, 6, 6, 6, 6, 6, 6, 6, 6, 6, 6, 6, 6, 6, 6, 6, 6, 6, 6, 6, 6, 6, 6, 6, 6, 6, 6, 6, 6, 6, 6, 6, 6, 6, 6, 6, 6, 6, 6, 6, 6, 6, 6, 6, 6, 6, 6, 6, 6
0184   A280 0606060606060606060606060606060606060606060606060606060606060606
0184   A2A0 0606060606060606060606060606060606060606060606060606060606060606
0185   A2C0                 db 6, 6, 6, 6, 6, 6, 6, 6, 6, 6, 6, 6, 6, 6, 6, 6, 6, 6, 6, 6, 6, 6, 6, 6, 6, 6, 6, 6, 6, 6, 6, 6, 6, 6, 6, 6, 6, 6, 6, 6, 6, 6, 6, 6, 6, 6, 6, 6, 6, 6, 6, 6, 6, 6, 6, 6, 6, 6, 6, 6, 6, 6, 6, 6
0185   A2C0 0606060606060606060606060606060606060606060606060606060606060606
0185   A2E0 0606060606060606060606060606060606060606060606060606060606060606
0186   A300                 db 26, 22, 2, 27, 28, 28, 52, 53, 28, 28, 28, 28, 56, 56, 56, 28, 28, 52, 53, 28, 28, 47, 57, 58, 50, 14, 51, 14, 29, 2, 25, 26, 26, 22, 2, 27, 14, 51, 14, 47, 57, 58, 50, 28, 28, 59, 28, 28, 28, 28, 28, 28, 28, 28, 28, 28, 28, 60, 26, 55, 29, 2, 25, 26
0186   A300 1A16021B1C1C34351C1C1C1C3838381C1C34351C1C2F393A320E330E1D02191A
0186   A320 1A16021B0E330E2F393A321C1C3B1C1C1C1C1C1C1C1C1C1C1C3C1A371D02191A
0187   A340                 db 6, 6, 6, 6, 6, 6, 6, 6, 6, 6, 6, 6, 6, 6, 6, 6, 6, 6, 6, 6, 6, 6, 6, 6, 6, 6, 6, 6, 6, 6, 6, 6, 6, 6, 6, 6, 6, 6, 6, 6, 6, 6, 6, 6, 6, 6, 6, 6, 6, 6, 6, 6, 6, 6, 6, 6, 6, 6, 6, 6, 6, 6, 6, 6
0187   A340 0606060606060606060606060606060606060606060606060606060606060606
0187   A360 0606060606060606060606060606060606060606060606060606060606060606
0188   A380                 db 6, 6, 6, 6, 6, 6, 6, 6, 6, 6, 6, 6, 6, 6, 6, 6, 6, 6, 6, 6, 6, 6, 6, 6, 6, 6, 6, 6, 6, 6, 6, 6, 6, 6, 6, 6, 6, 6, 6, 6, 6, 6, 6, 6, 6, 6, 6, 6, 6, 6, 6, 6, 6, 6, 6, 6, 6, 6, 6, 6, 6, 6, 6, 6
0188   A380 0606060606060606060606060606060606060606060606060606060606060606
0188   A3A0 0606060606060606060606060606060606060606060606060606060606060606
0189   A3C0                 db 6, 6, 6, 6, 6, 6, 6, 6, 6, 6, 6, 6, 6, 6, 6, 6, 6, 6, 6, 6, 6, 6, 6, 6, 6, 6, 6, 6, 6, 6, 6, 6, 6, 6, 6, 6, 6, 6, 6, 6, 6, 6, 6, 6, 6, 6, 6, 6, 6, 6, 6, 6, 6, 6, 6, 6, 6, 6, 6, 6, 6, 6, 6, 6
0189   A3C0 0606060606060606060606060606060606060606060606060606060606060606
0189   A3E0 0606060606060606060606060606060606060606060606060606060606060606
0190   A400                 db 26, 22, 2, 27, 28, 28, 28, 28, 28, 28, 28, 28, 61, 62, 63, 28, 28, 28, 28, 28, 33, 47, 57, 64, 50, 14, 65, 14, 29, 2, 25, 26, 26, 22, 2, 27, 14, 65, 14, 47, 57, 64, 50, 66, 14, 14, 14, 67, 28, 28, 28, 28, 28, 28, 28, 28, 28, 68, 26, 69, 29, 2, 25, 26
0190   A400 1A16021B1C1C1C1C1C1C1C1C3D3E3F1C1C1C1C1C212F3940320E410E1D02191A
0190   A420 1A16021B0E410E2F394032420E0E0E431C1C1C1C1C1C1C1C1C441A451D02191A
0191   A440                 db 6, 6, 6, 6, 6, 6, 6, 6, 6, 6, 6, 6, 6, 6, 6, 6, 6, 6, 6, 6, 6, 6, 6, 6, 6, 6, 6, 6, 6, 6, 6, 6, 6, 6, 6, 6, 6, 6, 6, 6, 6, 6, 6, 6, 6, 6, 6, 6, 6, 6, 6, 6, 6, 6, 6, 6, 6, 6, 6, 6, 6, 6, 6, 6
0191   A440 0606060606060606060606060606060606060606060606060606060606060606
0191   A460 0606060606060606060606060606060606060606060606060606060606060606
0192   A480                 db 6, 6, 6, 6, 6, 6, 6, 6, 6, 6, 6, 6, 6, 6, 6, 6, 6, 6, 6, 6, 6, 6, 6, 6, 6, 6, 6, 6, 6, 6, 6, 6, 6, 6, 6, 6, 6, 6, 6, 6, 6, 6, 6, 6, 6, 6, 6, 6, 6, 6, 6, 6, 6, 6, 6, 6, 6, 6, 6, 6, 6, 6, 6, 6
0192   A480 0606060606060606060606060606060606060606060606060606060606060606
0192   A4A0 0606060606060606060606060606060606060606060606060606060606060606
0193   A4C0                 db 6, 6, 6, 6, 6, 6, 6, 6, 6, 6, 6, 6, 6, 6, 6, 6, 6, 6, 6, 6, 6, 6, 6, 6, 6, 6, 6, 6, 6, 6, 6, 6, 6, 6, 6, 6, 6, 6, 6, 6, 6, 6, 6, 6, 6, 6, 6, 6, 6, 6, 6, 6, 6, 6, 6, 6, 6, 6, 6, 6, 6, 6, 6, 6
0193   A4C0 0606060606060606060606060606060606060606060606060606060606060606
0193   A4E0 0606060606060606060606060606060606060606060606060606060606060606
0194   A500                 db 26, 22, 2, 27, 28, 70, 71, 72, 73, 73, 74, 28, 75, 76, 77, 28, 14, 14, 14, 14, 14, 47, 78, 58, 50, 14, 51, 14, 29, 2, 25, 26, 26, 22, 2, 27, 14, 51, 14, 47, 78, 58, 50, 79, 14, 59, 14, 80, 28, 28, 81, 82, 83, 83, 83, 84, 28, 85, 85, 85, 29, 2, 25, 26
0194   A500 1A16021B1C46474849494A1C4B4C4D1C0E0E0E0E0E2F4E3A320E330E1D02191A
0194   A520 1A16021B0E330E2F4E3A324F0E3B0E501C1C5152535353541C5555551D02191A
0195   A540                 db 6, 6, 6, 6, 6, 6, 6, 6, 6, 6, 6, 6, 6, 6, 6, 6, 6, 6, 6, 6, 6, 6, 6, 6, 6, 6, 6, 6, 6, 6, 6, 6, 6, 6, 6, 6, 6, 6, 6, 6, 6, 6, 6, 6, 6, 6, 6, 6, 6, 6, 6, 6, 6, 6, 6, 6, 6, 6, 6, 6, 6, 6, 6, 6
0195   A540 0606060606060606060606060606060606060606060606060606060606060606
0195   A560 0606060606060606060606060606060606060606060606060606060606060606
0196   A580                 db 6, 6, 6, 6, 6, 6, 6, 6, 6, 6, 6, 6, 6, 6, 6, 6, 6, 6, 6, 6, 6, 6, 6, 6, 6, 6, 6, 6, 6, 6, 6, 6, 6, 6, 6, 6, 6, 6, 6, 6, 6, 6, 6, 6, 6, 6, 6, 6, 6, 6, 6, 6, 6, 6, 6, 6, 6, 6, 6, 6, 6, 6, 6, 6
0196   A580 0606060606060606060606060606060606060606060606060606060606060606
0196   A5A0 0606060606060606060606060606060606060606060606060606060606060606
0197   A5C0                 db 6, 6, 6, 6, 6, 6, 6, 6, 6, 6, 6, 6, 6, 6, 6, 6, 6, 6, 6, 6, 6, 6, 6, 6, 6, 6, 6, 6, 6, 6, 6, 6, 6, 6, 6, 6, 6, 6, 6, 6, 6, 6, 6, 6, 6, 6, 6, 6, 6, 6, 6, 6, 6, 6, 6, 6, 6, 6, 6, 6, 6, 6, 6, 6
0197   A5C0 0606060606060606060606060606060606060606060606060606060606060606
0197   A5E0 0606060606060606060606060606060606060606060606060606060606060606
0198   A600                 db 26, 22, 2, 86, 0, 87, 88, 26, 26, 26, 89, 0, 90, 91, 92, 0, 93, 93, 59, 94, 94, 0, 0, 0, 0, 95, 96, 97, 98, 2, 25, 26, 26, 22, 2, 86, 95, 96, 97, 0, 0, 0, 0, 0, 99, 100, 101, 0, 0, 0, 102, 103, 6, 6, 6, 104, 0, 61, 105, 63, 98, 2, 25, 26
0198   A600 1A1602560057581A1A1A59005A5B5C005D5D3B5E5E000000005F60616202191A
0198   A620 1A1602565F60610000000000636465000000666706060668003D693F6202191A
0199   A640                 db 6, 6, 6, 6, 6, 6, 6, 6, 6, 6, 6, 6, 6, 6, 6, 6, 6, 6, 6, 6, 6, 6, 6, 6, 6, 6, 6, 6, 6, 6, 6, 6, 6, 6, 6, 6, 6, 6, 6, 6, 6, 6, 6, 6, 6, 6, 6, 6, 6, 6, 6, 6, 6, 6, 6, 6, 6, 6, 6, 6, 6, 6, 6, 6
0199   A640 0606060606060606060606060606060606060606060606060606060606060606
0199   A660 0606060606060606060606060606060606060606060606060606060606060606
0200   A680                 db 6, 6, 6, 6, 6, 6, 6, 6, 6, 6, 6, 6, 6, 6, 6, 6, 6, 6, 6, 6, 6, 6, 6, 6, 6, 6, 6, 6, 6, 6, 6, 6, 6, 6, 6, 6, 6, 6, 6, 6, 6, 6, 6, 6, 6, 6, 6, 6, 6, 6, 6, 6, 6, 6, 6, 6, 6, 6, 6, 6, 6, 6, 6, 6
0200   A680 0606060606060606060606060606060606060606060606060606060606060606
0200   A6A0 0606060606060606060606060606060606060606060606060606060606060606
0201   A6C0                 db 6, 6, 6, 6, 6, 6, 6, 6, 6, 6, 6, 6, 6, 6, 6, 6, 6, 6, 6, 6, 6, 6, 6, 6, 6, 6, 6, 6, 6, 6, 6, 6, 6, 6, 6, 6, 6, 6, 6, 6, 6, 6, 6, 6, 6, 6, 6, 6, 6, 6, 6, 6, 6, 6, 6, 6, 6, 6, 6, 6, 6, 6, 6, 6
0201   A6C0 0606060606060606060606060606060606060606060606060606060606060606
0201   A6E0 0606060606060606060606060606060606060606060606060606060606060606
0202   A700                 db 26, 22, 2, 106, 0, 107, 108, 109, 110, 111, 112, 0, 113, 114, 115, 0, 99, 0, 100, 0, 101, 0, 0, 0, 0, 0, 0, 0, 116, 2, 25, 26, 26, 22, 2, 106, 0, 0, 0, 0, 0, 0, 0, 0, 0, 0, 0, 0, 0, 0, 117, 117, 6, 6, 6, 104, 0, 118, 119, 120, 116, 2, 25, 26
0202   A700 1A16026A006B6C6D6E6F7000717273006300640065000000000000007402191A
0202   A720 1A16026A0000000000000000000000000000757506060668007677787402191A
0203   A740                 db 6, 6, 6, 6, 6, 6, 6, 6, 6, 6, 6, 6, 6, 6, 6, 6, 6, 6, 6, 6, 6, 6, 6, 6, 6, 6, 6, 6, 6, 6, 6, 6, 6, 6, 6, 6, 6, 6, 6, 6, 6, 6, 6, 6, 6, 6, 6, 6, 6, 6, 6, 6, 6, 6, 6, 6, 6, 6, 6, 6, 6, 6, 6, 6
0203   A740 0606060606060606060606060606060606060606060606060606060606060606
0203   A760 0606060606060606060606060606060606060606060606060606060606060606
0204   A780                 db 6, 6, 6, 6, 6, 6, 6, 6, 6, 6, 6, 6, 6, 6, 6, 6, 6, 6, 6, 6, 6, 6, 6, 6, 6, 6, 6, 6, 6, 6, 6, 6, 6, 6, 6, 6, 6, 6, 6, 6, 6, 6, 6, 6, 6, 6, 6, 6, 6, 6, 6, 6, 6, 6, 6, 6, 6, 6, 6, 6, 6, 6, 6, 6
0204   A780 0606060606060606060606060606060606060606060606060606060606060606
0204   A7A0 0606060606060606060606060606060606060606060606060606060606060606
0205   A7C0                 db 6, 6, 6, 6, 6, 6, 6, 6, 6, 6, 6, 6, 6, 6, 6, 6, 6, 6, 6, 6, 6, 6, 6, 6, 6, 6, 6, 6, 6, 6, 6, 6, 6, 6, 6, 6, 6, 6, 6, 6, 6, 6, 6, 6, 6, 6, 6, 6, 6, 6, 6, 6, 6, 6, 6, 6, 6, 6, 6, 6, 6, 6, 6, 6
0205   A7C0 0606060606060606060606060606060606060606060606060606060606060606
0205   A7E0 0606060606060606060606060606060606060606060606060606060606060606
0206   A800                 db 0, 22, 2, 121, 0, 0, 0, 0, 0, 0, 0, 0, 0, 0, 0, 0, 0, 0, 0, 0, 0, 0, 0, 0, 0, 0, 0, 0, 122, 2, 25, 0, 0, 22, 2, 121, 0, 0, 0, 0, 0, 0, 0, 0, 0, 0, 0, 0, 0, 0, 123, 124, 125, 125, 125, 126, 0, 0, 0, 0, 122, 2, 25, 0
0206   A800 001602790000000000000000000000000000000000000000000000007A021900
0206   A820 0016027900000000000000000000000000007B7C7D7D7D7E000000007A021900
0207   A840                 db 0, 0, 0, 0, 0, 0, 0, 0, 0, 0, 0, 0, 0, 0, 0, 0, 0, 0, 0, 0, 0, 0, 0, 0, 0, 0, 0, 0, 0, 0, 0, 0, 0, 0, 0, 0, 0, 0, 0, 0, 0, 0, 0, 0, 0, 0, 0, 0, 0, 0, 0, 0, 0, 0, 0, 0, 0, 0, 0, 0, 0, 0, 0, 0
0207   A840 0000000000000000000000000000000000000000000000000000000000000000
0207   A860 0000000000000000000000000000000000000000000000000000000000000000
0208   A880                 db 0, 0, 0, 0, 0, 0, 0, 0, 0, 0, 0, 0, 0, 0, 0, 0, 0, 0, 0, 0, 0, 0, 0, 0, 0, 0, 0, 0, 0, 0, 0, 0, 0, 0, 0, 0, 0, 0, 0, 0, 0, 0, 0, 0, 0, 0, 0, 0, 0, 0, 0, 0, 0, 0, 0, 0, 0, 0, 0, 0, 0, 0, 0, 0
0208   A880 0000000000000000000000000000000000000000000000000000000000000000
0208   A8A0 0000000000000000000000000000000000000000000000000000000000000000
0209   A8C0                 db 0, 0, 0, 0, 0, 0, 0, 0, 0, 0, 0, 0, 0, 0, 0, 0, 0, 0, 0, 0, 0, 0, 0, 0, 0, 0, 0, 0, 0, 0, 0, 0, 0, 0, 0, 0, 0, 0, 0, 0, 0, 0, 0, 0, 0, 0, 0, 0, 0, 0, 0, 0, 0, 0, 0, 0, 0, 0, 0, 0, 0, 0, 0, 0
0209   A8C0 0000000000000000000000000000000000000000000000000000000000000000
0209   A8E0 0000000000000000000000000000000000000000000000000000000000000000
0210   A900                 db 26, 22, 2, 127, 0, 0, 0, 0, 0, 0, 0, 0, 0, 0, 0, 0, 0, 0, 0, 0, 0, 0, 0, 0, 0, 0, 0, 0, 128, 2, 25, 26, 26, 22, 2, 127, 0, 0, 0, 0, 0, 0, 0, 0, 0, 0, 0, 0, 0, 0, 0, 0, 0, 0, 0, 0, 0, 0, 0, 0, 128, 2, 25, 26
0210   A900 1A16027F0000000000000000000000000000000000000000000000008002191A
0210   A920 1A16027F0000000000000000000000000000000000000000000000008002191A
0211   A940                 db 6, 6, 6, 6, 6, 6, 6, 6, 6, 6, 6, 6, 6, 6, 6, 6, 6, 6, 6, 6, 6, 6, 6, 6, 6, 6, 6, 6, 6, 6, 6, 6, 6, 6, 6, 6, 6, 6, 6, 6, 6, 6, 6, 6, 6, 6, 6, 6, 6, 6, 6, 6, 6, 6, 6, 6, 6, 6, 6, 6, 6, 6, 6, 6
0211   A940 0606060606060606060606060606060606060606060606060606060606060606
0211   A960 0606060606060606060606060606060606060606060606060606060606060606
0212   A980                 db 6, 6, 6, 6, 6, 6, 6, 6, 6, 6, 6, 6, 6, 6, 6, 6, 6, 6, 6, 6, 6, 6, 6, 6, 6, 6, 6, 6, 6, 6, 6, 6, 6, 6, 6, 6, 6, 6, 6, 6, 6, 6, 6, 6, 6, 6, 6, 6, 6, 6, 6, 6, 6, 6, 6, 6, 6, 6, 6, 6, 6, 6, 6, 6
0212   A980 0606060606060606060606060606060606060606060606060606060606060606
0212   A9A0 0606060606060606060606060606060606060606060606060606060606060606
0213   A9C0                 db 6, 6, 6, 6, 6, 6, 6, 6, 6, 6, 6, 6, 6, 6, 6, 6, 6, 6, 6, 6, 6, 6, 6, 6, 6, 6, 6, 6, 6, 6, 6, 6, 6, 6, 6, 6, 6, 6, 6, 6, 6, 6, 6, 6, 6, 6, 6, 6, 6, 6, 6, 6, 6, 6, 6, 6, 6, 6, 6, 6, 6, 6, 6, 6
0213   A9C0 0606060606060606060606060606060606060606060606060606060606060606
0213   A9E0 0606060606060606060606060606060606060606060606060606060606060606
0214   AA00                 db 26, 22, 2, 129, 0, 0, 0, 0, 0, 0, 0, 0, 0, 0, 0, 0, 0, 0, 0, 0, 0, 0, 0, 0, 0, 0, 0, 0, 130, 2, 25, 26, 26, 22, 2, 129, 131, 0, 0, 0, 0, 0, 0, 0, 0, 0, 0, 0, 0, 0, 0, 0, 0, 0, 0, 0, 0, 0, 0, 131, 130, 2, 25, 26
0214   AA00 1A1602810000000000000000000000000000000000000000000000008202191A
0214   AA20 1A1602818300000000000000000000000000000000000000000000838202191A
0215   AA40                 db 6, 6, 6, 6, 6, 6, 6, 6, 6, 6, 6, 6, 6, 6, 6, 6, 6, 6, 6, 6, 6, 6, 6, 6, 6, 6, 6, 6, 6, 6, 6, 6, 6, 6, 6, 6, 6, 6, 6, 6, 6, 6, 6, 6, 6, 6, 6, 6, 6, 6, 6, 6, 6, 6, 6, 6, 6, 6, 6, 6, 6, 6, 6, 6
0215   AA40 0606060606060606060606060606060606060606060606060606060606060606
0215   AA60 0606060606060606060606060606060606060606060606060606060606060606
0216   AA80                 db 6, 6, 6, 6, 6, 6, 6, 6, 6, 6, 6, 6, 6, 6, 6, 6, 6, 6, 6, 6, 6, 6, 6, 6, 6, 6, 6, 6, 6, 6, 6, 6, 6, 6, 6, 6, 6, 6, 6, 6, 6, 6, 6, 6, 6, 6, 6, 6, 6, 6, 6, 6, 6, 6, 6, 6, 6, 6, 6, 6, 6, 6, 6, 6
0216   AA80 0606060606060606060606060606060606060606060606060606060606060606
0216   AAA0 0606060606060606060606060606060606060606060606060606060606060606
0217   AAC0                 db 6, 6, 6, 6, 6, 6, 6, 6, 6, 6, 6, 6, 6, 6, 6, 6, 6, 6, 6, 6, 6, 6, 6, 6, 6, 6, 6, 6, 6, 6, 6, 6, 6, 6, 6, 6, 6, 6, 6, 6, 6, 6, 6, 6, 6, 6, 6, 6, 6, 6, 6, 6, 6, 6, 6, 6, 6, 6, 6, 6, 6, 6, 6, 6
0217   AAC0 0606060606060606060606060606060606060606060606060606060606060606
0217   AAE0 0606060606060606060606060606060606060606060606060606060606060606
0218   AB00                 db 26, 22, 2, 132, 0, 0, 0, 0, 0, 0, 0, 0, 0, 0, 0, 0, 0, 0, 0, 0, 0, 0, 0, 0, 0, 0, 0, 0, 133, 2, 25, 26, 26, 22, 2, 132, 134, 0, 0, 0, 0, 0, 0, 0, 0, 0, 0, 0, 0, 0, 0, 0, 0, 0, 0, 0, 0, 0, 0, 134, 133, 2, 25, 26
0218   AB00 1A1602840000000000000000000000000000000000000000000000008502191A
0218   AB20 1A1602848600000000000000000000000000000000000000000000868502191A
0219   AB40                 db 6, 6, 6, 6, 6, 6, 6, 6, 6, 6, 6, 6, 6, 6, 6, 6, 6, 6, 6, 6, 6, 6, 6, 6, 6, 6, 6, 6, 6, 6, 6, 6, 6, 6, 6, 6, 6, 6, 6, 6, 6, 6, 6, 6, 6, 6, 6, 6, 6, 6, 6, 6, 6, 6, 6, 6, 6, 6, 6, 6, 6, 6, 6, 6
0219   AB40 0606060606060606060606060606060606060606060606060606060606060606
0219   AB60 0606060606060606060606060606060606060606060606060606060606060606
0220   AB80                 db 6, 6, 6, 6, 6, 6, 6, 6, 6, 6, 6, 6, 6, 6, 6, 6, 6, 6, 6, 6, 6, 6, 6, 6, 6, 6, 6, 6, 6, 6, 6, 6, 6, 6, 6, 6, 6, 6, 6, 6, 6, 6, 6, 6, 6, 6, 6, 6, 6, 6, 6, 6, 6, 6, 6, 6, 6, 6, 6, 6, 6, 6, 6, 6
0220   AB80 0606060606060606060606060606060606060606060606060606060606060606
0220   ABA0 0606060606060606060606060606060606060606060606060606060606060606
0221   ABC0                 db 6, 6, 6, 6, 6, 6, 6, 6, 6, 6, 6, 6, 6, 6, 6, 6, 6, 6, 6, 6, 6, 6, 6, 6, 6, 6, 6, 6, 6, 6, 6, 6, 6, 6, 6, 6, 6, 6, 6, 6, 6, 6, 6, 6, 6, 6, 6, 6, 6, 6, 6, 6, 6, 6, 6, 6, 6, 6, 6, 6, 6, 6, 6, 6
0221   ABC0 0606060606060606060606060606060606060606060606060606060606060606
0221   ABE0 0606060606060606060606060606060606060606060606060606060606060606
0222   AC00                 db 26, 22, 2, 135, 0, 0, 0, 0, 0, 0, 0, 0, 0, 0, 0, 0, 0, 0, 0, 0, 0, 0, 0, 0, 0, 0, 0, 0, 136, 2, 25, 26, 26, 22, 2, 135, 137, 0, 0, 0, 0, 0, 0, 0, 0, 0, 0, 0, 0, 0, 0, 0, 0, 0, 0, 0, 0, 0, 0, 137, 136, 2, 25, 26
0222   AC00 1A1602870000000000000000000000000000000000000000000000008802191A
0222   AC20 1A1602878900000000000000000000000000000000000000000000898802191A
0223   AC40                 db 6, 6, 6, 6, 6, 6, 6, 6, 6, 6, 6, 6, 6, 6, 6, 6, 6, 6, 6, 6, 6, 6, 6, 6, 6, 6, 6, 6, 6, 6, 6, 6, 6, 6, 6, 6, 6, 6, 6, 6, 6, 6, 6, 6, 6, 6, 6, 6, 6, 6, 6, 6, 6, 6, 6, 6, 6, 6, 6, 6, 6, 6, 6, 6
0223   AC40 0606060606060606060606060606060606060606060606060606060606060606
0223   AC60 0606060606060606060606060606060606060606060606060606060606060606
0224   AC80                 db 6, 6, 6, 6, 6, 6, 6, 6, 6, 6, 6, 6, 6, 6, 6, 6, 6, 6, 6, 6, 6, 6, 6, 6, 6, 6, 6, 6, 6, 6, 6, 6, 6, 6, 6, 6, 6, 6, 6, 6, 6, 6, 6, 6, 6, 6, 6, 6, 6, 6, 6, 6, 6, 6, 6, 6, 6, 6, 6, 6, 6, 6, 6, 6
0224   AC80 0606060606060606060606060606060606060606060606060606060606060606
0224   ACA0 0606060606060606060606060606060606060606060606060606060606060606
0225   ACC0                 db 6, 6, 6, 6, 6, 6, 6, 6, 6, 6, 6, 6, 6, 6, 6, 6, 6, 6, 6, 6, 6, 6, 6, 6, 6, 6, 6, 6, 6, 6, 6, 6, 6, 6, 6, 6, 6, 6, 6, 6, 6, 6, 6, 6, 6, 6, 6, 6, 6, 6, 6, 6, 6, 6, 6, 6, 6, 6, 6, 6, 6, 6, 6, 6
0225   ACC0 0606060606060606060606060606060606060606060606060606060606060606
0225   ACE0 0606060606060606060606060606060606060606060606060606060606060606
0226   AD00                 db 26, 22, 2, 138, 138, 138, 138, 138, 138, 138, 138, 138, 138, 138, 138, 138, 138, 138, 138, 138, 138, 138, 138, 138, 138, 138, 138, 138, 138, 2, 25, 26, 26, 22, 2, 138, 138, 138, 138, 138, 138, 138, 138, 138, 138, 138, 138, 138, 138, 138, 138, 138, 138, 138, 138, 138, 138, 138, 138, 138, 138, 2, 25, 26
0226   AD00 1A16028A8A8A8A8A8A8A8A8A8A8A8A8A8A8A8A8A8A8A8A8A8A8A8A8A8A02191A
0226   AD20 1A16028A8A8A8A8A8A8A8A8A8A8A8A8A8A8A8A8A8A8A8A8A8A8A8A8A8A02191A
0227   AD40                 db 6, 6, 6, 6, 6, 6, 6, 6, 6, 6, 6, 6, 6, 6, 6, 6, 6, 6, 6, 6, 6, 6, 6, 6, 6, 6, 6, 6, 6, 6, 6, 6, 6, 6, 6, 6, 6, 6, 6, 6, 6, 6, 6, 6, 6, 6, 6, 6, 6, 6, 6, 6, 6, 6, 6, 6, 6, 6, 6, 6, 6, 6, 6, 6
0227   AD40 0606060606060606060606060606060606060606060606060606060606060606
0227   AD60 0606060606060606060606060606060606060606060606060606060606060606
0228   AD80                 db 6, 6, 6, 6, 6, 6, 6, 6, 6, 6, 6, 6, 6, 6, 6, 6, 6, 6, 6, 6, 6, 6, 6, 6, 6, 6, 6, 6, 6, 6, 6, 6, 6, 6, 6, 6, 6, 6, 6, 6, 6, 6, 6, 6, 6, 6, 6, 6, 6, 6, 6, 6, 6, 6, 6, 6, 6, 6, 6, 6, 6, 6, 6, 6
0228   AD80 0606060606060606060606060606060606060606060606060606060606060606
0228   ADA0 0606060606060606060606060606060606060606060606060606060606060606
0229   ADC0                 db 6, 6, 6, 6, 6, 6, 6, 6, 6, 6, 6, 6, 6, 6, 6, 6, 6, 6, 6, 6, 6, 6, 6, 6, 6, 6, 6, 6, 6, 6, 6, 6, 6, 6, 6, 6, 6, 6, 6, 6, 6, 6, 6, 6, 6, 6, 6, 6, 6, 6, 6, 6, 6, 6, 6, 6, 6, 6, 6, 6, 6, 6, 6, 6
0229   ADC0 0606060606060606060606060606060606060606060606060606060606060606
0229   ADE0 0606060606060606060606060606060606060606060606060606060606060606
0230   AE00                 db 26, 22, 139, 139, 139, 139, 139, 139, 139, 139, 139, 139, 139, 139, 139, 22, 22, 22, 22, 22, 22, 22, 22, 140, 141, 25, 25, 25, 25, 25, 25, 26, 26, 22, 139, 139, 139, 139, 139, 139, 139, 139, 139, 139, 139, 139, 139, 22, 22, 22, 22, 22, 22, 22, 22, 140, 141, 25, 25, 25, 25, 25, 25, 26
0230   AE00 1A168B8B8B8B8B8B8B8B8B8B8B8B8B16161616161616168C8D1919191919191A
0230   AE20 1A168B8B8B8B8B8B8B8B8B8B8B8B8B16161616161616168C8D1919191919191A
0231   AE40                 db 6, 6, 6, 6, 6, 6, 6, 6, 6, 6, 6, 6, 6, 6, 6, 6, 6, 6, 6, 6, 6, 6, 6, 6, 6, 6, 6, 6, 6, 6, 6, 6, 6, 6, 6, 6, 6, 6, 6, 6, 6, 6, 6, 6, 6, 6, 6, 6, 6, 6, 6, 6, 6, 6, 6, 6, 6, 6, 6, 6, 6, 6, 6, 6
0231   AE40 0606060606060606060606060606060606060606060606060606060606060606
0231   AE60 0606060606060606060606060606060606060606060606060606060606060606
0232   AE80                 db 6, 6, 6, 6, 6, 6, 6, 6, 6, 6, 6, 6, 6, 6, 6, 6, 6, 6, 6, 6, 6, 6, 6, 6, 6, 6, 6, 6, 6, 6, 6, 6, 6, 6, 6, 6, 6, 6, 6, 6, 6, 6, 6, 6, 6, 6, 6, 6, 6, 6, 6, 6, 6, 6, 6, 6, 6, 6, 6, 6, 6, 6, 6, 6
0232   AE80 0606060606060606060606060606060606060606060606060606060606060606
0232   AEA0 0606060606060606060606060606060606060606060606060606060606060606
0233   AEC0                 db 6, 6, 6, 6, 6, 6, 6, 6, 6, 6, 6, 6, 6, 6, 6, 6, 6, 6, 6, 6, 6, 6, 6, 6, 6, 6, 6, 6, 6, 6, 6, 6, 6, 6, 6, 6, 6, 6, 6, 6, 6, 6, 6, 6, 6, 6, 6, 6, 6, 6, 6, 6, 6, 6, 6, 6, 6, 6, 6, 6, 6, 6, 6, 6
0233   AEC0 0606060606060606060606060606060606060606060606060606060606060606
0233   AEE0 0606060606060606060606060606060606060606060606060606060606060606
0234   AF00             
0235   AF00             ; maps tails
0236   AF00             ;   1,  1,  2,  3,  4,  4,  4,  4,  4,  4,  4,  4,  4,  4,  4,  4,  4,  4,  4,  4,  4,  4,  4,  4,  4,  4,  4,  4,  5,  2,  1,  1,  1,  1,  2,  6,  6,  6,  6,  6,  6,  6,  6,  6,  6,  6,  6,  6,  6,  6,  6,  6,  6,  6,  6,  6,  6,  6,  6,  6,  6,  2,  1,  1,  6,  6,  6,  6,  6,  6,  6,  6,  6,  6,  6,  6,  6,  6,  6,  6,  6,  6,  6,  6,  6,  6,  6,  6,  6,  6,  6,  6,  6,  6,  6,  6,  6,  6,  6,  6,  6,  6,  6,  6,  6,  6,  6,  6,  6,  6,  6,  6,  6,  6,  6,  6,  6,  6,  6,  6,  6,  6,  6,  6,  6,  6,  6,  6,  6,  6,  6,  6,  6,  6,  6,  6,  6,  6,  6,  6,  6,  6,  6,  6,  6,  6,  6,  6,  6,  6,  6,  6,  6,  6,  6,  6,  6,  6,  6,  6,  6,  6,  6,  6,  6,  6,  6,  6,  6,  6,  6,  6,  6,  6,  6,  6,  6,  6,  6,  6,  6,  6,  6,  6,  6,  6,  6,  6,  6,  6,  6,  6,  6,  6,  6,  6,  6,  6,  6,  6,  6,  6,  6,  6,  6,  6,  6,  6,  6,  6,  6,  6,  6,  6,  6,  6,  6,  6,  6,  6,  6,  6,  6,  6,  6,  6,  6,  6,  6,  6,  6,  6,  6,  6,  6,  6,  6,  6,  6,  6,  6,  6,  6,  6,  6,  6,  6,  6,  6,  6,  6,  6,  6,  6,  6,  6,
0237   AF00             ;   1,  1,  2,  7,  4,  4,  4,  4,  4,  4,  4,  4,  4,  4,  8,  9, 10,  4,  4,  4,  4,  4,  4,  4,  4,  4,  4,  4, 11,  2,  1,  1,  1,  1,  2, 12,  6,  6,  6,  6,  6,  6,  6,  6,  6,  6, 13, 14, 15,  6,  6,  6,  6,  6,  6,  6,  6,  6,  6,  6,  6,  2,  1,  1,  6,  6,  6,  6,  6,  6,  6,  6,  6,  6,  6,  6,  6,  6,  6,  6,  6,  6,  6,  6,  6,  6,  6,  6,  6,  6,  6,  6,  6,  6,  6,  6,  6,  6,  6,  6,  6,  6,  6,  6,  6,  6,  6,  6,  6,  6,  6,  6,  6,  6,  6,  6,  6,  6,  6,  6,  6,  6,  6,  6,  6,  6,  6,  6,  6,  6,  6,  6,  6,  6,  6,  6,  6,  6,  6,  6,  6,  6,  6,  6,  6,  6,  6,  6,  6,  6,  6,  6,  6,  6,  6,  6,  6,  6,  6,  6,  6,  6,  6,  6,  6,  6,  6,  6,  6,  6,  6,  6,  6,  6,  6,  6,  6,  6,  6,  6,  6,  6,  6,  6,  6,  6,  6,  6,  6,  6,  6,  6,  6,  6,  6,  6,  6,  6,  6,  6,  6,  6,  6,  6,  6,  6,  6,  6,  6,  6,  6,  6,  6,  6,  6,  6,  6,  6,  6,  6,  6,  6,  6,  6,  6,  6,  6,  6,  6,  6,  6,  6,  6,  6,  6,  6,  6,  6,  6,  6,  6,  6,  6,  6,  6,  6,  6,  6,  6,  6,  6,  6,  6,  6,  6,  6,
0238   AF00             ;   1,  1,  2, 16,  4,  4,  4,  4,  4,  4,  4,  4,  4,  4, 17, 18, 19,  4,  4,  4,  4,  4,  4,  4,  4,  4,  4,  4, 20,  2,  1,  1,  1,  1,  2, 12,  6,  6,  6,  6,  6,  6,  6,  6,  6,  6,  6,  6, 14,  6,  6,  6,  6,  6,  6,  6,  6,  6,  6,  6,  6,  2,  1,  1,  6,  6,  6,  6,  6,  6,  6,  6,  6,  6,  6,  6,  6,  6,  6,  6,  6,  6,  6,  6,  6,  6,  6,  6,  6,  6,  6,  6,  6,  6,  6,  6,  6,  6,  6,  6,  6,  6,  6,  6,  6,  6,  6,  6,  6,  6,  6,  6,  6,  6,  6,  6,  6,  6,  6,  6,  6,  6,  6,  6,  6,  6,  6,  6,  6,  6,  6,  6,  6,  6,  6,  6,  6,  6,  6,  6,  6,  6,  6,  6,  6,  6,  6,  6,  6,  6,  6,  6,  6,  6,  6,  6,  6,  6,  6,  6,  6,  6,  6,  6,  6,  6,  6,  6,  6,  6,  6,  6,  6,  6,  6,  6,  6,  6,  6,  6,  6,  6,  6,  6,  6,  6,  6,  6,  6,  6,  6,  6,  6,  6,  6,  6,  6,  6,  6,  6,  6,  6,  6,  6,  6,  6,  6,  6,  6,  6,  6,  6,  6,  6,  6,  6,  6,  6,  6,  6,  6,  6,  6,  6,  6,  6,  6,  6,  6,  6,  6,  6,  6,  6,  6,  6,  6,  6,  6,  6,  6,  6,  6,  6,  6,  6,  6,  6,  6,  6,  6,  6,  6,  6,  6,  6,
0239   AF00             ;  21, 22,  2, 23,  4,  4,  4,  4,  4,  4,  4,  4,  4,  4,  4,  4,  4,  4,  4,  4,  4,  4,  4,  4,  4,  4,  4,  4, 24,  2, 25, 21, 21, 22,  2, 12,  6,  6,  6,  6,  6,  6,  6,  6,  6,  6,  6,  6,  6,  6,  6,  6,  6,  6,  6,  6,  6,  6,  6,  6,  6,  2, 25, 21,  6,  6,  6,  6,  6,  6,  6,  6,  6,  6,  6,  6,  6,  6,  6,  6,  6,  6,  6,  6,  6,  6,  6,  6,  6,  6,  6,  6,  6,  6,  6,  6,  6,  6,  6,  6,  6,  6,  6,  6,  6,  6,  6,  6,  6,  6,  6,  6,  6,  6,  6,  6,  6,  6,  6,  6,  6,  6,  6,  6,  6,  6,  6,  6,  6,  6,  6,  6,  6,  6,  6,  6,  6,  6,  6,  6,  6,  6,  6,  6,  6,  6,  6,  6,  6,  6,  6,  6,  6,  6,  6,  6,  6,  6,  6,  6,  6,  6,  6,  6,  6,  6,  6,  6,  6,  6,  6,  6,  6,  6,  6,  6,  6,  6,  6,  6,  6,  6,  6,  6,  6,  6,  6,  6,  6,  6,  6,  6,  6,  6,  6,  6,  6,  6,  6,  6,  6,  6,  6,  6,  6,  6,  6,  6,  6,  6,  6,  6,  6,  6,  6,  6,  6,  6,  6,  6,  6,  6,  6,  6,  6,  6,  6,  6,  6,  6,  6,  6,  6,  6,  6,  6,  6,  6,  6,  6,  6,  6,  6,  6,  6,  6,  6,  6,  6,  6,  6,  6,  6,  6,  6,  6,
0240   AF00             ;  26, 22,  2, 27, 28, 28, 28, 28, 28, 28, 28, 28, 28, 28, 28, 28, 28, 28, 28, 28, 28, 28, 28, 28, 28, 28, 28, 28, 29,  2, 25, 26, 26, 22,  2, 27, 28, 28, 28, 28, 28, 28, 28, 28, 28, 28, 28, 28, 28, 28, 28, 28, 28, 28, 28, 28, 28, 28, 28, 28, 29,  2, 25, 26,  6,  6,  6,  6,  6,  6,  6,  6,  6,  6,  6,  6,  6,  6,  6,  6,  6,  6,  6,  6,  6,  6,  6,  6,  6,  6,  6,  6,  6,  6,  6,  6,  6,  6,  6,  6,  6,  6,  6,  6,  6,  6,  6,  6,  6,  6,  6,  6,  6,  6,  6,  6,  6,  6,  6,  6,  6,  6,  6,  6,  6,  6,  6,  6,  6,  6,  6,  6,  6,  6,  6,  6,  6,  6,  6,  6,  6,  6,  6,  6,  6,  6,  6,  6,  6,  6,  6,  6,  6,  6,  6,  6,  6,  6,  6,  6,  6,  6,  6,  6,  6,  6,  6,  6,  6,  6,  6,  6,  6,  6,  6,  6,  6,  6,  6,  6,  6,  6,  6,  6,  6,  6,  6,  6,  6,  6,  6,  6,  6,  6,  6,  6,  6,  6,  6,  6,  6,  6,  6,  6,  6,  6,  6,  6,  6,  6,  6,  6,  6,  6,  6,  6,  6,  6,  6,  6,  6,  6,  6,  6,  6,  6,  6,  6,  6,  6,  6,  6,  6,  6,  6,  6,  6,  6,  6,  6,  6,  6,  6,  6,  6,  6,  6,  6,  6,  6,  6,  6,  6,  6,  6,  6,
0241   AF00             ;  26, 22,  2, 27, 28, 30, 31, 32, 33, 28, 33, 31, 32, 31, 33, 28, 30, 31, 32, 33, 28, 28, 28, 28, 28, 28, 28, 28, 29,  2, 25, 26, 26, 22,  2, 27, 28, 28, 28, 28, 28, 28, 28, 28, 28, 28, 28, 28, 28, 28, 34, 35, 28, 28, 28, 28, 28, 28, 28, 28, 29,  2, 25, 26,  6,  6,  6,  6,  6,  6,  6,  6,  6,  6,  6,  6,  6,  6,  6,  6,  6,  6,  6,  6,  6,  6,  6,  6,  6,  6,  6,  6,  6,  6,  6,  6,  6,  6,  6,  6,  6,  6,  6,  6,  6,  6,  6,  6,  6,  6,  6,  6,  6,  6,  6,  6,  6,  6,  6,  6,  6,  6,  6,  6,  6,  6,  6,  6,  6,  6,  6,  6,  6,  6,  6,  6,  6,  6,  6,  6,  6,  6,  6,  6,  6,  6,  6,  6,  6,  6,  6,  6,  6,  6,  6,  6,  6,  6,  6,  6,  6,  6,  6,  6,  6,  6,  6,  6,  6,  6,  6,  6,  6,  6,  6,  6,  6,  6,  6,  6,  6,  6,  6,  6,  6,  6,  6,  6,  6,  6,  6,  6,  6,  6,  6,  6,  6,  6,  6,  6,  6,  6,  6,  6,  6,  6,  6,  6,  6,  6,  6,  6,  6,  6,  6,  6,  6,  6,  6,  6,  6,  6,  6,  6,  6,  6,  6,  6,  6,  6,  6,  6,  6,  6,  6,  6,  6,  6,  6,  6,  6,  6,  6,  6,  6,  6,  6,  6,  6,  6,  6,  6,  6,  6,  6,  6,
0242   AF00             ;  26, 22,  2, 27, 28, 36, 37, 37, 38, 28, 36, 37, 37, 37, 38, 28, 36, 37, 37, 38, 28, 39, 28, 28, 40, 41, 41, 41, 29,  2, 25, 26, 26, 22,  2, 27, 41, 41, 41, 39, 28, 28, 40, 28, 28, 28, 42, 43, 28, 28, 44, 45, 28, 28, 42, 43, 28, 46, 46, 46, 29,  2, 25, 26,  6,  6,  6,  6,  6,  6,  6,  6,  6,  6,  6,  6,  6,  6,  6,  6,  6,  6,  6,  6,  6,  6,  6,  6,  6,  6,  6,  6,  6,  6,  6,  6,  6,  6,  6,  6,  6,  6,  6,  6,  6,  6,  6,  6,  6,  6,  6,  6,  6,  6,  6,  6,  6,  6,  6,  6,  6,  6,  6,  6,  6,  6,  6,  6,  6,  6,  6,  6,  6,  6,  6,  6,  6,  6,  6,  6,  6,  6,  6,  6,  6,  6,  6,  6,  6,  6,  6,  6,  6,  6,  6,  6,  6,  6,  6,  6,  6,  6,  6,  6,  6,  6,  6,  6,  6,  6,  6,  6,  6,  6,  6,  6,  6,  6,  6,  6,  6,  6,  6,  6,  6,  6,  6,  6,  6,  6,  6,  6,  6,  6,  6,  6,  6,  6,  6,  6,  6,  6,  6,  6,  6,  6,  6,  6,  6,  6,  6,  6,  6,  6,  6,  6,  6,  6,  6,  6,  6,  6,  6,  6,  6,  6,  6,  6,  6,  6,  6,  6,  6,  6,  6,  6,  6,  6,  6,  6,  6,  6,  6,  6,  6,  6,  6,  6,  6,  6,  6,  6,  6,  6,  6,  6,
0243   AF00             ;  26, 22,  2, 27, 28, 28, 42, 43, 28, 28, 28, 28, 28, 28, 28, 28, 28, 42, 43, 28, 28, 47, 48, 49, 50, 14, 51, 14, 29,  2, 25, 26, 26, 22,  2, 27, 14, 51, 14, 47, 48, 49, 50, 28, 28, 28, 52, 53, 28, 28, 28, 28, 28, 28, 52, 53, 28, 54, 26, 55, 29,  2, 25, 26,  6,  6,  6,  6,  6,  6,  6,  6,  6,  6,  6,  6,  6,  6,  6,  6,  6,  6,  6,  6,  6,  6,  6,  6,  6,  6,  6,  6,  6,  6,  6,  6,  6,  6,  6,  6,  6,  6,  6,  6,  6,  6,  6,  6,  6,  6,  6,  6,  6,  6,  6,  6,  6,  6,  6,  6,  6,  6,  6,  6,  6,  6,  6,  6,  6,  6,  6,  6,  6,  6,  6,  6,  6,  6,  6,  6,  6,  6,  6,  6,  6,  6,  6,  6,  6,  6,  6,  6,  6,  6,  6,  6,  6,  6,  6,  6,  6,  6,  6,  6,  6,  6,  6,  6,  6,  6,  6,  6,  6,  6,  6,  6,  6,  6,  6,  6,  6,  6,  6,  6,  6,  6,  6,  6,  6,  6,  6,  6,  6,  6,  6,  6,  6,  6,  6,  6,  6,  6,  6,  6,  6,  6,  6,  6,  6,  6,  6,  6,  6,  6,  6,  6,  6,  6,  6,  6,  6,  6,  6,  6,  6,  6,  6,  6,  6,  6,  6,  6,  6,  6,  6,  6,  6,  6,  6,  6,  6,  6,  6,  6,  6,  6,  6,  6,  6,  6,  6,  6,  6,  6,  6,  6,
0244   AF00             ;  26, 22,  2, 27, 28, 28, 52, 53, 28, 28, 28, 28, 56, 56, 56, 28, 28, 52, 53, 28, 28, 47, 57, 58, 50, 14, 51, 14, 29,  2, 25, 26, 26, 22,  2, 27, 14, 51, 14, 47, 57, 58, 50, 28, 28, 59, 28, 28, 28, 28, 28, 28, 28, 28, 28, 28, 28, 60, 26, 55, 29,  2, 25, 26,  6,  6,  6,  6,  6,  6,  6,  6,  6,  6,  6,  6,  6,  6,  6,  6,  6,  6,  6,  6,  6,  6,  6,  6,  6,  6,  6,  6,  6,  6,  6,  6,  6,  6,  6,  6,  6,  6,  6,  6,  6,  6,  6,  6,  6,  6,  6,  6,  6,  6,  6,  6,  6,  6,  6,  6,  6,  6,  6,  6,  6,  6,  6,  6,  6,  6,  6,  6,  6,  6,  6,  6,  6,  6,  6,  6,  6,  6,  6,  6,  6,  6,  6,  6,  6,  6,  6,  6,  6,  6,  6,  6,  6,  6,  6,  6,  6,  6,  6,  6,  6,  6,  6,  6,  6,  6,  6,  6,  6,  6,  6,  6,  6,  6,  6,  6,  6,  6,  6,  6,  6,  6,  6,  6,  6,  6,  6,  6,  6,  6,  6,  6,  6,  6,  6,  6,  6,  6,  6,  6,  6,  6,  6,  6,  6,  6,  6,  6,  6,  6,  6,  6,  6,  6,  6,  6,  6,  6,  6,  6,  6,  6,  6,  6,  6,  6,  6,  6,  6,  6,  6,  6,  6,  6,  6,  6,  6,  6,  6,  6,  6,  6,  6,  6,  6,  6,  6,  6,  6,  6,  6,  6,
0245   AF00             ;  26, 22,  2, 27, 28, 28, 28, 28, 28, 28, 28, 28, 61, 62, 63, 28, 28, 28, 28, 28, 33, 47, 57, 64, 50, 14, 65, 14, 29,  2, 25, 26, 26, 22,  2, 27, 14, 65, 14, 47, 57, 64, 50, 66, 14, 14, 14, 67, 28, 28, 28, 28, 28, 28, 28, 28, 28, 68, 26, 69, 29,  2, 25, 26,  6,  6,  6,  6,  6,  6,  6,  6,  6,  6,  6,  6,  6,  6,  6,  6,  6,  6,  6,  6,  6,  6,  6,  6,  6,  6,  6,  6,  6,  6,  6,  6,  6,  6,  6,  6,  6,  6,  6,  6,  6,  6,  6,  6,  6,  6,  6,  6,  6,  6,  6,  6,  6,  6,  6,  6,  6,  6,  6,  6,  6,  6,  6,  6,  6,  6,  6,  6,  6,  6,  6,  6,  6,  6,  6,  6,  6,  6,  6,  6,  6,  6,  6,  6,  6,  6,  6,  6,  6,  6,  6,  6,  6,  6,  6,  6,  6,  6,  6,  6,  6,  6,  6,  6,  6,  6,  6,  6,  6,  6,  6,  6,  6,  6,  6,  6,  6,  6,  6,  6,  6,  6,  6,  6,  6,  6,  6,  6,  6,  6,  6,  6,  6,  6,  6,  6,  6,  6,  6,  6,  6,  6,  6,  6,  6,  6,  6,  6,  6,  6,  6,  6,  6,  6,  6,  6,  6,  6,  6,  6,  6,  6,  6,  6,  6,  6,  6,  6,  6,  6,  6,  6,  6,  6,  6,  6,  6,  6,  6,  6,  6,  6,  6,  6,  6,  6,  6,  6,  6,  6,  6,  6,
0246   AF00             ;  26, 22,  2, 27, 28, 70, 71, 72, 73, 73, 74, 28, 75, 76, 77, 28, 14, 14, 14, 14, 14, 47, 78, 58, 50, 14, 51, 14, 29,  2, 25, 26, 26, 22,  2, 27, 14, 51, 14, 47, 78, 58, 50, 79, 14, 59, 14, 80, 28, 28, 81, 82, 83, 83, 83, 84, 28, 85, 85, 85, 29,  2, 25, 26,  6,  6,  6,  6,  6,  6,  6,  6,  6,  6,  6,  6,  6,  6,  6,  6,  6,  6,  6,  6,  6,  6,  6,  6,  6,  6,  6,  6,  6,  6,  6,  6,  6,  6,  6,  6,  6,  6,  6,  6,  6,  6,  6,  6,  6,  6,  6,  6,  6,  6,  6,  6,  6,  6,  6,  6,  6,  6,  6,  6,  6,  6,  6,  6,  6,  6,  6,  6,  6,  6,  6,  6,  6,  6,  6,  6,  6,  6,  6,  6,  6,  6,  6,  6,  6,  6,  6,  6,  6,  6,  6,  6,  6,  6,  6,  6,  6,  6,  6,  6,  6,  6,  6,  6,  6,  6,  6,  6,  6,  6,  6,  6,  6,  6,  6,  6,  6,  6,  6,  6,  6,  6,  6,  6,  6,  6,  6,  6,  6,  6,  6,  6,  6,  6,  6,  6,  6,  6,  6,  6,  6,  6,  6,  6,  6,  6,  6,  6,  6,  6,  6,  6,  6,  6,  6,  6,  6,  6,  6,  6,  6,  6,  6,  6,  6,  6,  6,  6,  6,  6,  6,  6,  6,  6,  6,  6,  6,  6,  6,  6,  6,  6,  6,  6,  6,  6,  6,  6,  6,  6,  6,  6,
0247   AF00             ;  26, 22,  2, 86,  0, 87, 88, 26, 26, 26, 89,  0, 90, 91, 92,  0, 93, 93, 59, 94, 94,  0,  0,  0,  0, 95, 96, 97, 98,  2, 25, 26, 26, 22,  2, 86, 95, 96, 97,  0,  0,  0,  0,  0, 99,100,101,  0,  0,  0,102,103,  6,  6,  6,104,  0, 61,105, 63, 98,  2, 25, 26,  6,  6,  6,  6,  6,  6,  6,  6,  6,  6,  6,  6,  6,  6,  6,  6,  6,  6,  6,  6,  6,  6,  6,  6,  6,  6,  6,  6,  6,  6,  6,  6,  6,  6,  6,  6,  6,  6,  6,  6,  6,  6,  6,  6,  6,  6,  6,  6,  6,  6,  6,  6,  6,  6,  6,  6,  6,  6,  6,  6,  6,  6,  6,  6,  6,  6,  6,  6,  6,  6,  6,  6,  6,  6,  6,  6,  6,  6,  6,  6,  6,  6,  6,  6,  6,  6,  6,  6,  6,  6,  6,  6,  6,  6,  6,  6,  6,  6,  6,  6,  6,  6,  6,  6,  6,  6,  6,  6,  6,  6,  6,  6,  6,  6,  6,  6,  6,  6,  6,  6,  6,  6,  6,  6,  6,  6,  6,  6,  6,  6,  6,  6,  6,  6,  6,  6,  6,  6,  6,  6,  6,  6,  6,  6,  6,  6,  6,  6,  6,  6,  6,  6,  6,  6,  6,  6,  6,  6,  6,  6,  6,  6,  6,  6,  6,  6,  6,  6,  6,  6,  6,  6,  6,  6,  6,  6,  6,  6,  6,  6,  6,  6,  6,  6,  6,  6,  6,  6,  6,  6,  6,  6,
0248   AF00             ;  26, 22,  2,106,  0,107,108,109,110,111,112,  0,113,114,115,  0, 99,  0,100,  0,101,  0,  0,  0,  0,  0,  0,  0,116,  2, 25, 26, 26, 22,  2,106,  0,  0,  0,  0,  0,  0,  0,  0,  0,  0,  0,  0,  0,  0,117,117,  6,  6,  6,104,  0,118,119,120,116,  2, 25, 26,  6,  6,  6,  6,  6,  6,  6,  6,  6,  6,  6,  6,  6,  6,  6,  6,  6,  6,  6,  6,  6,  6,  6,  6,  6,  6,  6,  6,  6,  6,  6,  6,  6,  6,  6,  6,  6,  6,  6,  6,  6,  6,  6,  6,  6,  6,  6,  6,  6,  6,  6,  6,  6,  6,  6,  6,  6,  6,  6,  6,  6,  6,  6,  6,  6,  6,  6,  6,  6,  6,  6,  6,  6,  6,  6,  6,  6,  6,  6,  6,  6,  6,  6,  6,  6,  6,  6,  6,  6,  6,  6,  6,  6,  6,  6,  6,  6,  6,  6,  6,  6,  6,  6,  6,  6,  6,  6,  6,  6,  6,  6,  6,  6,  6,  6,  6,  6,  6,  6,  6,  6,  6,  6,  6,  6,  6,  6,  6,  6,  6,  6,  6,  6,  6,  6,  6,  6,  6,  6,  6,  6,  6,  6,  6,  6,  6,  6,  6,  6,  6,  6,  6,  6,  6,  6,  6,  6,  6,  6,  6,  6,  6,  6,  6,  6,  6,  6,  6,  6,  6,  6,  6,  6,  6,  6,  6,  6,  6,  6,  6,  6,  6,  6,  6,  6,  6,  6,  6,  6,  6,  6,  6,
0249   AF00             ;   0, 22,  2,121,  0,  0,  0,  0,  0,  0,  0,  0,  0,  0,  0,  0,  0,  0,  0,  0,  0,  0,  0,  0,  0,  0,  0,  0,122,  2, 25,  0,  0, 22,  2,121,  0,  0,  0,  0,  0,  0,  0,  0,  0,  0,  0,  0,  0,  0,123,124,125,125,125,126,  0,  0,  0,  0,122,  2, 25,  0,  0,  0,  0,  0,  0,  0,  0,  0,  0,  0,  0,  0,  0,  0,  0,  0,  0,  0,  0,  0,  0,  0,  0,  0,  0,  0,  0,  0,  0,  0,  0,  0,  0,  0,  0,  0,  0,  0,  0,  0,  0,  0,  0,  0,  0,  0,  0,  0,  0,  0,  0,  0,  0,  0,  0,  0,  0,  0,  0,  0,  0,  0,  0,  0,  0,  0,  0,  0,  0,  0,  0,  0,  0,  0,  0,  0,  0,  0,  0,  0,  0,  0,  0,  0,  0,  0,  0,  0,  0,  0,  0,  0,  0,  0,  0,  0,  0,  0,  0,  0,  0,  0,  0,  0,  0,  0,  0,  0,  0,  0,  0,  0,  0,  0,  0,  0,  0,  0,  0,  0,  0,  0,  0,  0,  0,  0,  0,  0,  0,  0,  0,  0,  0,  0,  0,  0,  0,  0,  0,  0,  0,  0,  0,  0,  0,  0,  0,  0,  0,  0,  0,  0,  0,  0,  0,  0,  0,  0,  0,  0,  0,  0,  0,  0,  0,  0,  0,  0,  0,  0,  0,  0,  0,  0,  0,  0,  0,  0,  0,  0,  0,  0,  0,  0,  0,  0,  0,  0,  0,  0,  0,  0,
0250   AF00             ;  26, 22,  2,127,  0,  0,  0,  0,  0,  0,  0,  0,  0,  0,  0,  0,  0,  0,  0,  0,  0,  0,  0,  0,  0,  0,  0,  0,128,  2, 25, 26, 26, 22,  2,127,  0,  0,  0,  0,  0,  0,  0,  0,  0,  0,  0,  0,  0,  0,  0,  0,  0,  0,  0,  0,  0,  0,  0,  0,128,  2, 25, 26,  6,  6,  6,  6,  6,  6,  6,  6,  6,  6,  6,  6,  6,  6,  6,  6,  6,  6,  6,  6,  6,  6,  6,  6,  6,  6,  6,  6,  6,  6,  6,  6,  6,  6,  6,  6,  6,  6,  6,  6,  6,  6,  6,  6,  6,  6,  6,  6,  6,  6,  6,  6,  6,  6,  6,  6,  6,  6,  6,  6,  6,  6,  6,  6,  6,  6,  6,  6,  6,  6,  6,  6,  6,  6,  6,  6,  6,  6,  6,  6,  6,  6,  6,  6,  6,  6,  6,  6,  6,  6,  6,  6,  6,  6,  6,  6,  6,  6,  6,  6,  6,  6,  6,  6,  6,  6,  6,  6,  6,  6,  6,  6,  6,  6,  6,  6,  6,  6,  6,  6,  6,  6,  6,  6,  6,  6,  6,  6,  6,  6,  6,  6,  6,  6,  6,  6,  6,  6,  6,  6,  6,  6,  6,  6,  6,  6,  6,  6,  6,  6,  6,  6,  6,  6,  6,  6,  6,  6,  6,  6,  6,  6,  6,  6,  6,  6,  6,  6,  6,  6,  6,  6,  6,  6,  6,  6,  6,  6,  6,  6,  6,  6,  6,  6,  6,  6,  6,  6,  6,  6,  6,  6,
0251   AF00             ;  26, 22,  2,129,  0,  0,  0,  0,  0,  0,  0,  0,  0,  0,  0,  0,  0,  0,  0,  0,  0,  0,  0,  0,  0,  0,  0,  0,130,  2, 25, 26, 26, 22,  2,129,131,  0,  0,  0,  0,  0,  0,  0,  0,  0,  0,  0,  0,  0,  0,  0,  0,  0,  0,  0,  0,  0,  0,131,130,  2, 25, 26,  6,  6,  6,  6,  6,  6,  6,  6,  6,  6,  6,  6,  6,  6,  6,  6,  6,  6,  6,  6,  6,  6,  6,  6,  6,  6,  6,  6,  6,  6,  6,  6,  6,  6,  6,  6,  6,  6,  6,  6,  6,  6,  6,  6,  6,  6,  6,  6,  6,  6,  6,  6,  6,  6,  6,  6,  6,  6,  6,  6,  6,  6,  6,  6,  6,  6,  6,  6,  6,  6,  6,  6,  6,  6,  6,  6,  6,  6,  6,  6,  6,  6,  6,  6,  6,  6,  6,  6,  6,  6,  6,  6,  6,  6,  6,  6,  6,  6,  6,  6,  6,  6,  6,  6,  6,  6,  6,  6,  6,  6,  6,  6,  6,  6,  6,  6,  6,  6,  6,  6,  6,  6,  6,  6,  6,  6,  6,  6,  6,  6,  6,  6,  6,  6,  6,  6,  6,  6,  6,  6,  6,  6,  6,  6,  6,  6,  6,  6,  6,  6,  6,  6,  6,  6,  6,  6,  6,  6,  6,  6,  6,  6,  6,  6,  6,  6,  6,  6,  6,  6,  6,  6,  6,  6,  6,  6,  6,  6,  6,  6,  6,  6,  6,  6,  6,  6,  6,  6,  6,  6,  6,  6,
0252   AF00             ;  26, 22,  2,132,  0,  0,  0,  0,  0,  0,  0,  0,  0,  0,  0,  0,  0,  0,  0,  0,  0,  0,  0,  0,  0,  0,  0,  0,133,  2, 25, 26, 26, 22,  2,132,134,  0,  0,  0,  0,  0,  0,  0,  0,  0,  0,  0,  0,  0,  0,  0,  0,  0,  0,  0,  0,  0,  0,134,133,  2, 25, 26,  6,  6,  6,  6,  6,  6,  6,  6,  6,  6,  6,  6,  6,  6,  6,  6,  6,  6,  6,  6,  6,  6,  6,  6,  6,  6,  6,  6,  6,  6,  6,  6,  6,  6,  6,  6,  6,  6,  6,  6,  6,  6,  6,  6,  6,  6,  6,  6,  6,  6,  6,  6,  6,  6,  6,  6,  6,  6,  6,  6,  6,  6,  6,  6,  6,  6,  6,  6,  6,  6,  6,  6,  6,  6,  6,  6,  6,  6,  6,  6,  6,  6,  6,  6,  6,  6,  6,  6,  6,  6,  6,  6,  6,  6,  6,  6,  6,  6,  6,  6,  6,  6,  6,  6,  6,  6,  6,  6,  6,  6,  6,  6,  6,  6,  6,  6,  6,  6,  6,  6,  6,  6,  6,  6,  6,  6,  6,  6,  6,  6,  6,  6,  6,  6,  6,  6,  6,  6,  6,  6,  6,  6,  6,  6,  6,  6,  6,  6,  6,  6,  6,  6,  6,  6,  6,  6,  6,  6,  6,  6,  6,  6,  6,  6,  6,  6,  6,  6,  6,  6,  6,  6,  6,  6,  6,  6,  6,  6,  6,  6,  6,  6,  6,  6,  6,  6,  6,  6,  6,  6,  6,  6,
0253   AF00             ;  26, 22,  2,135,  0,  0,  0,  0,  0,  0,  0,  0,  0,  0,  0,  0,  0,  0,  0,  0,  0,  0,  0,  0,  0,  0,  0,  0,136,  2, 25, 26, 26, 22,  2,135,137,  0,  0,  0,  0,  0,  0,  0,  0,  0,  0,  0,  0,  0,  0,  0,  0,  0,  0,  0,  0,  0,  0,137,136,  2, 25, 26,  6,  6,  6,  6,  6,  6,  6,  6,  6,  6,  6,  6,  6,  6,  6,  6,  6,  6,  6,  6,  6,  6,  6,  6,  6,  6,  6,  6,  6,  6,  6,  6,  6,  6,  6,  6,  6,  6,  6,  6,  6,  6,  6,  6,  6,  6,  6,  6,  6,  6,  6,  6,  6,  6,  6,  6,  6,  6,  6,  6,  6,  6,  6,  6,  6,  6,  6,  6,  6,  6,  6,  6,  6,  6,  6,  6,  6,  6,  6,  6,  6,  6,  6,  6,  6,  6,  6,  6,  6,  6,  6,  6,  6,  6,  6,  6,  6,  6,  6,  6,  6,  6,  6,  6,  6,  6,  6,  6,  6,  6,  6,  6,  6,  6,  6,  6,  6,  6,  6,  6,  6,  6,  6,  6,  6,  6,  6,  6,  6,  6,  6,  6,  6,  6,  6,  6,  6,  6,  6,  6,  6,  6,  6,  6,  6,  6,  6,  6,  6,  6,  6,  6,  6,  6,  6,  6,  6,  6,  6,  6,  6,  6,  6,  6,  6,  6,  6,  6,  6,  6,  6,  6,  6,  6,  6,  6,  6,  6,  6,  6,  6,  6,  6,  6,  6,  6,  6,  6,  6,  6,  6,  6,
0254   AF00             ;  26, 22,  2,138,138,138,138,138,138,138,138,138,138,138,138,138,138,138,138,138,138,138,138,138,138,138,138,138,138,  2, 25, 26, 26, 22,  2,138,138,138,138,138,138,138,138,138,138,138,138,138,138,138,138,138,138,138,138,138,138,138,138,138,138,  2, 25, 26,  6,  6,  6,  6,  6,  6,  6,  6,  6,  6,  6,  6,  6,  6,  6,  6,  6,  6,  6,  6,  6,  6,  6,  6,  6,  6,  6,  6,  6,  6,  6,  6,  6,  6,  6,  6,  6,  6,  6,  6,  6,  6,  6,  6,  6,  6,  6,  6,  6,  6,  6,  6,  6,  6,  6,  6,  6,  6,  6,  6,  6,  6,  6,  6,  6,  6,  6,  6,  6,  6,  6,  6,  6,  6,  6,  6,  6,  6,  6,  6,  6,  6,  6,  6,  6,  6,  6,  6,  6,  6,  6,  6,  6,  6,  6,  6,  6,  6,  6,  6,  6,  6,  6,  6,  6,  6,  6,  6,  6,  6,  6,  6,  6,  6,  6,  6,  6,  6,  6,  6,  6,  6,  6,  6,  6,  6,  6,  6,  6,  6,  6,  6,  6,  6,  6,  6,  6,  6,  6,  6,  6,  6,  6,  6,  6,  6,  6,  6,  6,  6,  6,  6,  6,  6,  6,  6,  6,  6,  6,  6,  6,  6,  6,  6,  6,  6,  6,  6,  6,  6,  6,  6,  6,  6,  6,  6,  6,  6,  6,  6,  6,  6,  6,  6,  6,  6,  6,  6,  6,  6,  6,  6,
0255   AF00             ;  26, 22,139,139,139,139,139,139,139,139,139,139,139,139,139, 22, 22, 22, 22, 22, 22, 22, 22,140,141, 25, 25, 25, 25, 25, 25, 26, 26, 22,139,139,139,139,139,139,139,139,139,139,139,139,139, 22, 22, 22, 22, 22, 22, 22, 22,140,141, 25, 25, 25, 25, 25, 25, 26,  6,  6,  6,  6,  6,  6,  6,  6,  6,  6,  6,  6,  6,  6,  6,  6,  6,  6,  6,  6,  6,  6,  6,  6,  6,  6,  6,  6,  6,  6,  6,  6,  6,  6,  6,  6,  6,  6,  6,  6,  6,  6,  6,  6,  6,  6,  6,  6,  6,  6,  6,  6,  6,  6,  6,  6,  6,  6,  6,  6,  6,  6,  6,  6,  6,  6,  6,  6,  6,  6,  6,  6,  6,  6,  6,  6,  6,  6,  6,  6,  6,  6,  6,  6,  6,  6,  6,  6,  6,  6,  6,  6,  6,  6,  6,  6,  6,  6,  6,  6,  6,  6,  6,  6,  6,  6,  6,  6,  6,  6,  6,  6,  6,  6,  6,  6,  6,  6,  6,  6,  6,  6,  6,  6,  6,  6,  6,  6,  6,  6,  6,  6,  6,  6,  6,  6,  6,  6,  6,  6,  6,  6,  6,  6,  6,  6,  6,  6,  6,  6,  6,  6,  6,  6,  6,  6,  6,  6,  6,  6,  6,  6,  6,  6,  6,  6,  6,  6,  6,  6,  6,  6,  6,  6,  6,  6,  6,  6,  6,  6,  6,  6,  6,  6,  6,  6,  6,  6,  6,  6,  6,  6,
0256   AF00             
0257   AF00             ; tail using
0258   AF00             ;   24,  24,  76,   1,  90,  90,  90,  90,  90,  90,  90,  90,  90,  90,  90,  90,  90,  90,  90,  90,  90,  90,  90,  90,  90,  90,  90,  90,   1,  76,  24,  24,  24,  24,  76,3751,3751,3751,3751,3751,3751,3751,3751,3751,3751,3751,3751,3751,3751,3751,3751,3751,3751,3751,3751,3751,3751,3751,3751,3751,3751,  76,  24,  24,3751,3751,3751,3751,3751,3751,3751,3751,3751,3751,3751,3751,3751,3751,3751,3751,3751,3751,3751,3751,3751,3751,3751,3751,3751,3751,3751,3751,3751,3751,3751,3751,3751,3751,3751,3751,3751,3751,3751,3751,3751,3751,3751,3751,3751,3751,3751,3751,3751,3751,3751,3751,3751,3751,3751,3751,3751,3751,3751,3751,3751,3751,3751,3751,3751,3751,3751,3751,3751,3751,3751,3751,3751,3751,3751,3751,3751,3751,3751,3751,3751,3751,3751,3751,3751,3751,3751,3751,3751,3751,3751,3751,3751,3751,3751,3751,3751,3751,3751,3751,3751,3751,3751,3751,3751,3751,3751,3751,3751,3751,3751,3751,3751,3751,3751,3751,3751,3751,3751,3751,3751,3751,3751,3751,3751,3751,3751,3751,3751,3751,3751,3751,3751,3751,3751,3751,3751,3751,3751,3751,3751,3751,3751,3751,3751,3751,3751,3751,3751,3751,3751,3751,3751,3751,3751,3751,3751,3751,3751,3751,3751,3751,3751,3751,3751,3751,3751,3751,3751,3751,3751,3751,3751,3751,3751,3751,3751,3751,3751,3751,3751,3751,3751,3751,3751,3751,3751,3751,3751,3751,3751,3751,
0259   AF00             ;   24,  24,  76,   1,  90,  90,  90,  90,  90,  90,  90,  90,  90,  90,   1,   1,   1,  90,  90,  90,  90,  90,  90,  90,  90,  90,  90,  90,   1,  76,  24,  24,  24,  24,  76,   3,3751,3751,3751,3751,3751,3751,3751,3751,3751,3751,   1,  28,   1,3751,3751,3751,3751,3751,3751,3751,3751,3751,3751,3751,3751,  76,  24,  24,3751,3751,3751,3751,3751,3751,3751,3751,3751,3751,3751,3751,3751,3751,3751,3751,3751,3751,3751,3751,3751,3751,3751,3751,3751,3751,3751,3751,3751,3751,3751,3751,3751,3751,3751,3751,3751,3751,3751,3751,3751,3751,3751,3751,3751,3751,3751,3751,3751,3751,3751,3751,3751,3751,3751,3751,3751,3751,3751,3751,3751,3751,3751,3751,3751,3751,3751,3751,3751,3751,3751,3751,3751,3751,3751,3751,3751,3751,3751,3751,3751,3751,3751,3751,3751,3751,3751,3751,3751,3751,3751,3751,3751,3751,3751,3751,3751,3751,3751,3751,3751,3751,3751,3751,3751,3751,3751,3751,3751,3751,3751,3751,3751,3751,3751,3751,3751,3751,3751,3751,3751,3751,3751,3751,3751,3751,3751,3751,3751,3751,3751,3751,3751,3751,3751,3751,3751,3751,3751,3751,3751,3751,3751,3751,3751,3751,3751,3751,3751,3751,3751,3751,3751,3751,3751,3751,3751,3751,3751,3751,3751,3751,3751,3751,3751,3751,3751,3751,3751,3751,3751,3751,3751,3751,3751,3751,3751,3751,3751,3751,3751,3751,3751,3751,3751,3751,3751,3751,3751,3751,3751,3751,
0260   AF00             ;   24,  24,  76,   1,  90,  90,  90,  90,  90,  90,  90,  90,  90,  90,   1,   1,   1,  90,  90,  90,  90,  90,  90,  90,  90,  90,  90,  90,   1,  76,  24,  24,  24,  24,  76,   3,3751,3751,3751,3751,3751,3751,3751,3751,3751,3751,3751,3751,  28,3751,3751,3751,3751,3751,3751,3751,3751,3751,3751,3751,3751,  76,  24,  24,3751,3751,3751,3751,3751,3751,3751,3751,3751,3751,3751,3751,3751,3751,3751,3751,3751,3751,3751,3751,3751,3751,3751,3751,3751,3751,3751,3751,3751,3751,3751,3751,3751,3751,3751,3751,3751,3751,3751,3751,3751,3751,3751,3751,3751,3751,3751,3751,3751,3751,3751,3751,3751,3751,3751,3751,3751,3751,3751,3751,3751,3751,3751,3751,3751,3751,3751,3751,3751,3751,3751,3751,3751,3751,3751,3751,3751,3751,3751,3751,3751,3751,3751,3751,3751,3751,3751,3751,3751,3751,3751,3751,3751,3751,3751,3751,3751,3751,3751,3751,3751,3751,3751,3751,3751,3751,3751,3751,3751,3751,3751,3751,3751,3751,3751,3751,3751,3751,3751,3751,3751,3751,3751,3751,3751,3751,3751,3751,3751,3751,3751,3751,3751,3751,3751,3751,3751,3751,3751,3751,3751,3751,3751,3751,3751,3751,3751,3751,3751,3751,3751,3751,3751,3751,3751,3751,3751,3751,3751,3751,3751,3751,3751,3751,3751,3751,3751,3751,3751,3751,3751,3751,3751,3751,3751,3751,3751,3751,3751,3751,3751,3751,3751,3751,3751,3751,3751,3751,3751,3751,3751,3751,
0261   AF00             ;    4,  50,  76,   1,  90,  90,  90,  90,  90,  90,  90,  90,  90,  90,  90,  90,  90,  90,  90,  90,  90,  90,  90,  90,  90,  90,  90,  90,   1,  76,  44,   4,   4,  50,  76,   3,3751,3751,3751,3751,3751,3751,3751,3751,3751,3751,3751,3751,3751,3751,3751,3751,3751,3751,3751,3751,3751,3751,3751,3751,3751,  76,  44,   4,3751,3751,3751,3751,3751,3751,3751,3751,3751,3751,3751,3751,3751,3751,3751,3751,3751,3751,3751,3751,3751,3751,3751,3751,3751,3751,3751,3751,3751,3751,3751,3751,3751,3751,3751,3751,3751,3751,3751,3751,3751,3751,3751,3751,3751,3751,3751,3751,3751,3751,3751,3751,3751,3751,3751,3751,3751,3751,3751,3751,3751,3751,3751,3751,3751,3751,3751,3751,3751,3751,3751,3751,3751,3751,3751,3751,3751,3751,3751,3751,3751,3751,3751,3751,3751,3751,3751,3751,3751,3751,3751,3751,3751,3751,3751,3751,3751,3751,3751,3751,3751,3751,3751,3751,3751,3751,3751,3751,3751,3751,3751,3751,3751,3751,3751,3751,3751,3751,3751,3751,3751,3751,3751,3751,3751,3751,3751,3751,3751,3751,3751,3751,3751,3751,3751,3751,3751,3751,3751,3751,3751,3751,3751,3751,3751,3751,3751,3751,3751,3751,3751,3751,3751,3751,3751,3751,3751,3751,3751,3751,3751,3751,3751,3751,3751,3751,3751,3751,3751,3751,3751,3751,3751,3751,3751,3751,3751,3751,3751,3751,3751,3751,3751,3751,3751,3751,3751,3751,3751,3751,3751,3751,
0262   AF00             ;   66,  50,  76,  14, 171, 171, 171, 171, 171, 171, 171, 171, 171, 171, 171, 171, 171, 171, 171, 171, 171, 171, 171, 171, 171, 171, 171, 171,  14,  76,  44,  66,  66,  50,  76,  14, 171, 171, 171, 171, 171, 171, 171, 171, 171, 171, 171, 171, 171, 171, 171, 171, 171, 171, 171, 171, 171, 171, 171, 171,  14,  76,  44,  66,3751,3751,3751,3751,3751,3751,3751,3751,3751,3751,3751,3751,3751,3751,3751,3751,3751,3751,3751,3751,3751,3751,3751,3751,3751,3751,3751,3751,3751,3751,3751,3751,3751,3751,3751,3751,3751,3751,3751,3751,3751,3751,3751,3751,3751,3751,3751,3751,3751,3751,3751,3751,3751,3751,3751,3751,3751,3751,3751,3751,3751,3751,3751,3751,3751,3751,3751,3751,3751,3751,3751,3751,3751,3751,3751,3751,3751,3751,3751,3751,3751,3751,3751,3751,3751,3751,3751,3751,3751,3751,3751,3751,3751,3751,3751,3751,3751,3751,3751,3751,3751,3751,3751,3751,3751,3751,3751,3751,3751,3751,3751,3751,3751,3751,3751,3751,3751,3751,3751,3751,3751,3751,3751,3751,3751,3751,3751,3751,3751,3751,3751,3751,3751,3751,3751,3751,3751,3751,3751,3751,3751,3751,3751,3751,3751,3751,3751,3751,3751,3751,3751,3751,3751,3751,3751,3751,3751,3751,3751,3751,3751,3751,3751,3751,3751,3751,3751,3751,3751,3751,3751,3751,3751,3751,3751,3751,3751,3751,3751,3751,3751,3751,3751,3751,3751,3751,3751,3751,3751,3751,3751,3751,
0263   AF00             ;   66,  50,  76,  14, 171,   2,   4,   3,   5, 171,   5,   4,   3,   4,   5, 171,   2,   4,   3,   5, 171, 171, 171, 171, 171, 171, 171, 171,  14,  76,  44,  66,  66,  50,  76,  14, 171, 171, 171, 171, 171, 171, 171, 171, 171, 171, 171, 171, 171, 171,   1,   1, 171, 171, 171, 171, 171, 171, 171, 171,  14,  76,  44,  66,3751,3751,3751,3751,3751,3751,3751,3751,3751,3751,3751,3751,3751,3751,3751,3751,3751,3751,3751,3751,3751,3751,3751,3751,3751,3751,3751,3751,3751,3751,3751,3751,3751,3751,3751,3751,3751,3751,3751,3751,3751,3751,3751,3751,3751,3751,3751,3751,3751,3751,3751,3751,3751,3751,3751,3751,3751,3751,3751,3751,3751,3751,3751,3751,3751,3751,3751,3751,3751,3751,3751,3751,3751,3751,3751,3751,3751,3751,3751,3751,3751,3751,3751,3751,3751,3751,3751,3751,3751,3751,3751,3751,3751,3751,3751,3751,3751,3751,3751,3751,3751,3751,3751,3751,3751,3751,3751,3751,3751,3751,3751,3751,3751,3751,3751,3751,3751,3751,3751,3751,3751,3751,3751,3751,3751,3751,3751,3751,3751,3751,3751,3751,3751,3751,3751,3751,3751,3751,3751,3751,3751,3751,3751,3751,3751,3751,3751,3751,3751,3751,3751,3751,3751,3751,3751,3751,3751,3751,3751,3751,3751,3751,3751,3751,3751,3751,3751,3751,3751,3751,3751,3751,3751,3751,3751,3751,3751,3751,3751,3751,3751,3751,3751,3751,3751,3751,3751,3751,3751,3751,3751,3751,
0264   AF00             ;   66,  50,  76,  14, 171,   3,   7,   7,   3, 171,   3,   7,   7,   7,   3, 171,   3,   7,   7,   3, 171,   2, 171, 171,   2,   6,   6,   6,  14,  76,  44,  66,  66,  50,  76,  14,   6,   6,   6,   2, 171, 171,   2, 171, 171, 171,   4,   4, 171, 171,   1,   1, 171, 171,   4,   4, 171,   3,   3,   3,  14,  76,  44,  66,3751,3751,3751,3751,3751,3751,3751,3751,3751,3751,3751,3751,3751,3751,3751,3751,3751,3751,3751,3751,3751,3751,3751,3751,3751,3751,3751,3751,3751,3751,3751,3751,3751,3751,3751,3751,3751,3751,3751,3751,3751,3751,3751,3751,3751,3751,3751,3751,3751,3751,3751,3751,3751,3751,3751,3751,3751,3751,3751,3751,3751,3751,3751,3751,3751,3751,3751,3751,3751,3751,3751,3751,3751,3751,3751,3751,3751,3751,3751,3751,3751,3751,3751,3751,3751,3751,3751,3751,3751,3751,3751,3751,3751,3751,3751,3751,3751,3751,3751,3751,3751,3751,3751,3751,3751,3751,3751,3751,3751,3751,3751,3751,3751,3751,3751,3751,3751,3751,3751,3751,3751,3751,3751,3751,3751,3751,3751,3751,3751,3751,3751,3751,3751,3751,3751,3751,3751,3751,3751,3751,3751,3751,3751,3751,3751,3751,3751,3751,3751,3751,3751,3751,3751,3751,3751,3751,3751,3751,3751,3751,3751,3751,3751,3751,3751,3751,3751,3751,3751,3751,3751,3751,3751,3751,3751,3751,3751,3751,3751,3751,3751,3751,3751,3751,3751,3751,3751,3751,3751,3751,3751,3751,
0265   AF00             ;   66,  50,  76,  14, 171, 171,   4,   4, 171, 171, 171, 171, 171, 171, 171, 171, 171,   4,   4, 171, 171,   8,   2,   2,   8,  28,   6,  28,  14,  76,  44,  66,  66,  50,  76,  14,  28,   6,  28,   8,   2,   2,   8, 171, 171, 171,   4,   4, 171, 171, 171, 171, 171, 171,   4,   4, 171,   1,  66,   2,  14,  76,  44,  66,3751,3751,3751,3751,3751,3751,3751,3751,3751,3751,3751,3751,3751,3751,3751,3751,3751,3751,3751,3751,3751,3751,3751,3751,3751,3751,3751,3751,3751,3751,3751,3751,3751,3751,3751,3751,3751,3751,3751,3751,3751,3751,3751,3751,3751,3751,3751,3751,3751,3751,3751,3751,3751,3751,3751,3751,3751,3751,3751,3751,3751,3751,3751,3751,3751,3751,3751,3751,3751,3751,3751,3751,3751,3751,3751,3751,3751,3751,3751,3751,3751,3751,3751,3751,3751,3751,3751,3751,3751,3751,3751,3751,3751,3751,3751,3751,3751,3751,3751,3751,3751,3751,3751,3751,3751,3751,3751,3751,3751,3751,3751,3751,3751,3751,3751,3751,3751,3751,3751,3751,3751,3751,3751,3751,3751,3751,3751,3751,3751,3751,3751,3751,3751,3751,3751,3751,3751,3751,3751,3751,3751,3751,3751,3751,3751,3751,3751,3751,3751,3751,3751,3751,3751,3751,3751,3751,3751,3751,3751,3751,3751,3751,3751,3751,3751,3751,3751,3751,3751,3751,3751,3751,3751,3751,3751,3751,3751,3751,3751,3751,3751,3751,3751,3751,3751,3751,3751,3751,3751,3751,3751,3751,
0266   AF00             ;   66,  50,  76,  14, 171, 171,   4,   4, 171, 171, 171, 171,   3,   3,   3, 171, 171,   4,   4, 171, 171,   8,   4,   4,   8,  28,   6,  28,  14,  76,  44,  66,  66,  50,  76,  14,  28,   6,  28,   8,   4,   4,   8, 171, 171,   3, 171, 171, 171, 171, 171, 171, 171, 171, 171, 171, 171,   1,  66,   2,  14,  76,  44,  66,3751,3751,3751,3751,3751,3751,3751,3751,3751,3751,3751,3751,3751,3751,3751,3751,3751,3751,3751,3751,3751,3751,3751,3751,3751,3751,3751,3751,3751,3751,3751,3751,3751,3751,3751,3751,3751,3751,3751,3751,3751,3751,3751,3751,3751,3751,3751,3751,3751,3751,3751,3751,3751,3751,3751,3751,3751,3751,3751,3751,3751,3751,3751,3751,3751,3751,3751,3751,3751,3751,3751,3751,3751,3751,3751,3751,3751,3751,3751,3751,3751,3751,3751,3751,3751,3751,3751,3751,3751,3751,3751,3751,3751,3751,3751,3751,3751,3751,3751,3751,3751,3751,3751,3751,3751,3751,3751,3751,3751,3751,3751,3751,3751,3751,3751,3751,3751,3751,3751,3751,3751,3751,3751,3751,3751,3751,3751,3751,3751,3751,3751,3751,3751,3751,3751,3751,3751,3751,3751,3751,3751,3751,3751,3751,3751,3751,3751,3751,3751,3751,3751,3751,3751,3751,3751,3751,3751,3751,3751,3751,3751,3751,3751,3751,3751,3751,3751,3751,3751,3751,3751,3751,3751,3751,3751,3751,3751,3751,3751,3751,3751,3751,3751,3751,3751,3751,3751,3751,3751,3751,3751,3751,
0267   AF00             ;   66,  50,  76,  14, 171, 171, 171, 171, 171, 171, 171, 171,   2,   1,   2, 171, 171, 171, 171, 171,   5,   8,   4,   2,   8,  28,   2,  28,  14,  76,  44,  66,  66,  50,  76,  14,  28,   2,  28,   8,   4,   2,   8,   1,  28,  28,  28,   1, 171, 171, 171, 171, 171, 171, 171, 171, 171,   1,  66,   1,  14,  76,  44,  66,3751,3751,3751,3751,3751,3751,3751,3751,3751,3751,3751,3751,3751,3751,3751,3751,3751,3751,3751,3751,3751,3751,3751,3751,3751,3751,3751,3751,3751,3751,3751,3751,3751,3751,3751,3751,3751,3751,3751,3751,3751,3751,3751,3751,3751,3751,3751,3751,3751,3751,3751,3751,3751,3751,3751,3751,3751,3751,3751,3751,3751,3751,3751,3751,3751,3751,3751,3751,3751,3751,3751,3751,3751,3751,3751,3751,3751,3751,3751,3751,3751,3751,3751,3751,3751,3751,3751,3751,3751,3751,3751,3751,3751,3751,3751,3751,3751,3751,3751,3751,3751,3751,3751,3751,3751,3751,3751,3751,3751,3751,3751,3751,3751,3751,3751,3751,3751,3751,3751,3751,3751,3751,3751,3751,3751,3751,3751,3751,3751,3751,3751,3751,3751,3751,3751,3751,3751,3751,3751,3751,3751,3751,3751,3751,3751,3751,3751,3751,3751,3751,3751,3751,3751,3751,3751,3751,3751,3751,3751,3751,3751,3751,3751,3751,3751,3751,3751,3751,3751,3751,3751,3751,3751,3751,3751,3751,3751,3751,3751,3751,3751,3751,3751,3751,3751,3751,3751,3751,3751,3751,3751,3751,
0268   AF00             ;   66,  50,  76,  14, 171,   1,   1,   1,   2,   2,   1, 171,   1,   1,   1, 171,  28,  28,  28,  28,  28,   8,   2,   4,   8,  28,   6,  28,  14,  76,  44,  66,  66,  50,  76,  14,  28,   6,  28,   8,   2,   4,   8,   1,  28,   3,  28,   1, 171, 171,   1,   1,   3,   3,   3,   1, 171,   3,   3,   3,  14,  76,  44,  66,3751,3751,3751,3751,3751,3751,3751,3751,3751,3751,3751,3751,3751,3751,3751,3751,3751,3751,3751,3751,3751,3751,3751,3751,3751,3751,3751,3751,3751,3751,3751,3751,3751,3751,3751,3751,3751,3751,3751,3751,3751,3751,3751,3751,3751,3751,3751,3751,3751,3751,3751,3751,3751,3751,3751,3751,3751,3751,3751,3751,3751,3751,3751,3751,3751,3751,3751,3751,3751,3751,3751,3751,3751,3751,3751,3751,3751,3751,3751,3751,3751,3751,3751,3751,3751,3751,3751,3751,3751,3751,3751,3751,3751,3751,3751,3751,3751,3751,3751,3751,3751,3751,3751,3751,3751,3751,3751,3751,3751,3751,3751,3751,3751,3751,3751,3751,3751,3751,3751,3751,3751,3751,3751,3751,3751,3751,3751,3751,3751,3751,3751,3751,3751,3751,3751,3751,3751,3751,3751,3751,3751,3751,3751,3751,3751,3751,3751,3751,3751,3751,3751,3751,3751,3751,3751,3751,3751,3751,3751,3751,3751,3751,3751,3751,3751,3751,3751,3751,3751,3751,3751,3751,3751,3751,3751,3751,3751,3751,3751,3751,3751,3751,3751,3751,3751,3751,3751,3751,3751,3751,3751,3751,
0269   AF00             ;   66,  50,  76,   2, 467,   1,   1,  66,  66,  66,   1, 467,   1,   1,   1, 467,   2,   2,   3,   2,   2, 467, 467, 467, 467,   2,   2,   2,   2,  76,  44,  66,  66,  50,  76,   2,   2,   2,   2, 467, 467, 467, 467, 467,   2,   2,   2, 467, 467, 467,   1,   1,3751,3751,3751,   2, 467,   2,   1,   2,   2,  76,  44,  66,3751,3751,3751,3751,3751,3751,3751,3751,3751,3751,3751,3751,3751,3751,3751,3751,3751,3751,3751,3751,3751,3751,3751,3751,3751,3751,3751,3751,3751,3751,3751,3751,3751,3751,3751,3751,3751,3751,3751,3751,3751,3751,3751,3751,3751,3751,3751,3751,3751,3751,3751,3751,3751,3751,3751,3751,3751,3751,3751,3751,3751,3751,3751,3751,3751,3751,3751,3751,3751,3751,3751,3751,3751,3751,3751,3751,3751,3751,3751,3751,3751,3751,3751,3751,3751,3751,3751,3751,3751,3751,3751,3751,3751,3751,3751,3751,3751,3751,3751,3751,3751,3751,3751,3751,3751,3751,3751,3751,3751,3751,3751,3751,3751,3751,3751,3751,3751,3751,3751,3751,3751,3751,3751,3751,3751,3751,3751,3751,3751,3751,3751,3751,3751,3751,3751,3751,3751,3751,3751,3751,3751,3751,3751,3751,3751,3751,3751,3751,3751,3751,3751,3751,3751,3751,3751,3751,3751,3751,3751,3751,3751,3751,3751,3751,3751,3751,3751,3751,3751,3751,3751,3751,3751,3751,3751,3751,3751,3751,3751,3751,3751,3751,3751,3751,3751,3751,3751,3751,3751,3751,3751,3751,
0270   AF00             ;   66,  50,  76,   2, 467,   1,   1,   1,   1,   1,   1, 467,   1,   1,   1, 467,   2, 467,   2, 467,   2, 467, 467, 467, 467, 467, 467, 467,   2,  76,  44,  66,  66,  50,  76,   2, 467, 467, 467, 467, 467, 467, 467, 467, 467, 467, 467, 467, 467, 467,   2,   2,3751,3751,3751,   2, 467,   1,   1,   1,   2,  76,  44,  66,3751,3751,3751,3751,3751,3751,3751,3751,3751,3751,3751,3751,3751,3751,3751,3751,3751,3751,3751,3751,3751,3751,3751,3751,3751,3751,3751,3751,3751,3751,3751,3751,3751,3751,3751,3751,3751,3751,3751,3751,3751,3751,3751,3751,3751,3751,3751,3751,3751,3751,3751,3751,3751,3751,3751,3751,3751,3751,3751,3751,3751,3751,3751,3751,3751,3751,3751,3751,3751,3751,3751,3751,3751,3751,3751,3751,3751,3751,3751,3751,3751,3751,3751,3751,3751,3751,3751,3751,3751,3751,3751,3751,3751,3751,3751,3751,3751,3751,3751,3751,3751,3751,3751,3751,3751,3751,3751,3751,3751,3751,3751,3751,3751,3751,3751,3751,3751,3751,3751,3751,3751,3751,3751,3751,3751,3751,3751,3751,3751,3751,3751,3751,3751,3751,3751,3751,3751,3751,3751,3751,3751,3751,3751,3751,3751,3751,3751,3751,3751,3751,3751,3751,3751,3751,3751,3751,3751,3751,3751,3751,3751,3751,3751,3751,3751,3751,3751,3751,3751,3751,3751,3751,3751,3751,3751,3751,3751,3751,3751,3751,3751,3751,3751,3751,3751,3751,3751,3751,3751,3751,3751,3751,
0271   AF00             ;  467,  50,  76,   2, 467, 467, 467, 467, 467, 467, 467, 467, 467, 467, 467, 467, 467, 467, 467, 467, 467, 467, 467, 467, 467, 467, 467, 467,   2,  76,  44, 467, 467,  50,  76,   2, 467, 467, 467, 467, 467, 467, 467, 467, 467, 467, 467, 467, 467, 467,   1,   1,   3,   3,   3,   1, 467, 467, 467, 467,   2,  76,  44, 467, 467, 467, 467, 467, 467, 467, 467, 467, 467, 467, 467, 467, 467, 467, 467, 467, 467, 467, 467, 467, 467, 467, 467, 467, 467, 467, 467, 467, 467, 467, 467, 467, 467, 467, 467, 467, 467, 467, 467, 467, 467, 467, 467, 467, 467, 467, 467, 467, 467, 467, 467, 467, 467, 467, 467, 467, 467, 467, 467, 467, 467, 467, 467, 467, 467, 467, 467, 467, 467, 467, 467, 467, 467, 467, 467, 467, 467, 467, 467, 467, 467, 467, 467, 467, 467, 467, 467, 467, 467, 467, 467, 467, 467, 467, 467, 467, 467, 467, 467, 467, 467, 467, 467, 467, 467, 467, 467, 467, 467, 467, 467, 467, 467, 467, 467, 467, 467, 467, 467, 467, 467, 467, 467, 467, 467, 467, 467, 467, 467, 467, 467, 467, 467, 467, 467, 467, 467, 467, 467, 467, 467, 467, 467, 467, 467, 467, 467, 467, 467, 467, 467, 467, 467, 467, 467, 467, 467, 467, 467, 467, 467, 467, 467, 467, 467, 467, 467, 467, 467, 467, 467, 467, 467, 467, 467, 467, 467, 467, 467, 467, 467, 467, 467, 467, 467, 467, 467, 467, 467, 467, 467, 467,
0272   AF00             ;   66,  50,  76,   2, 467, 467, 467, 467, 467, 467, 467, 467, 467, 467, 467, 467, 467, 467, 467, 467, 467, 467, 467, 467, 467, 467, 467, 467,   2,  76,  44,  66,  66,  50,  76,   2, 467, 467, 467, 467, 467, 467, 467, 467, 467, 467, 467, 467, 467, 467, 467, 467, 467, 467, 467, 467, 467, 467, 467, 467,   2,  76,  44,  66,3751,3751,3751,3751,3751,3751,3751,3751,3751,3751,3751,3751,3751,3751,3751,3751,3751,3751,3751,3751,3751,3751,3751,3751,3751,3751,3751,3751,3751,3751,3751,3751,3751,3751,3751,3751,3751,3751,3751,3751,3751,3751,3751,3751,3751,3751,3751,3751,3751,3751,3751,3751,3751,3751,3751,3751,3751,3751,3751,3751,3751,3751,3751,3751,3751,3751,3751,3751,3751,3751,3751,3751,3751,3751,3751,3751,3751,3751,3751,3751,3751,3751,3751,3751,3751,3751,3751,3751,3751,3751,3751,3751,3751,3751,3751,3751,3751,3751,3751,3751,3751,3751,3751,3751,3751,3751,3751,3751,3751,3751,3751,3751,3751,3751,3751,3751,3751,3751,3751,3751,3751,3751,3751,3751,3751,3751,3751,3751,3751,3751,3751,3751,3751,3751,3751,3751,3751,3751,3751,3751,3751,3751,3751,3751,3751,3751,3751,3751,3751,3751,3751,3751,3751,3751,3751,3751,3751,3751,3751,3751,3751,3751,3751,3751,3751,3751,3751,3751,3751,3751,3751,3751,3751,3751,3751,3751,3751,3751,3751,3751,3751,3751,3751,3751,3751,3751,3751,3751,3751,3751,3751,3751,
0273   AF00             ;   66,  50,  76,   2, 467, 467, 467, 467, 467, 467, 467, 467, 467, 467, 467, 467, 467, 467, 467, 467, 467, 467, 467, 467, 467, 467, 467, 467,   2,  76,  44,  66,  66,  50,  76,   2,   2, 467, 467, 467, 467, 467, 467, 467, 467, 467, 467, 467, 467, 467, 467, 467, 467, 467, 467, 467, 467, 467, 467,   2,   2,  76,  44,  66,3751,3751,3751,3751,3751,3751,3751,3751,3751,3751,3751,3751,3751,3751,3751,3751,3751,3751,3751,3751,3751,3751,3751,3751,3751,3751,3751,3751,3751,3751,3751,3751,3751,3751,3751,3751,3751,3751,3751,3751,3751,3751,3751,3751,3751,3751,3751,3751,3751,3751,3751,3751,3751,3751,3751,3751,3751,3751,3751,3751,3751,3751,3751,3751,3751,3751,3751,3751,3751,3751,3751,3751,3751,3751,3751,3751,3751,3751,3751,3751,3751,3751,3751,3751,3751,3751,3751,3751,3751,3751,3751,3751,3751,3751,3751,3751,3751,3751,3751,3751,3751,3751,3751,3751,3751,3751,3751,3751,3751,3751,3751,3751,3751,3751,3751,3751,3751,3751,3751,3751,3751,3751,3751,3751,3751,3751,3751,3751,3751,3751,3751,3751,3751,3751,3751,3751,3751,3751,3751,3751,3751,3751,3751,3751,3751,3751,3751,3751,3751,3751,3751,3751,3751,3751,3751,3751,3751,3751,3751,3751,3751,3751,3751,3751,3751,3751,3751,3751,3751,3751,3751,3751,3751,3751,3751,3751,3751,3751,3751,3751,3751,3751,3751,3751,3751,3751,3751,3751,3751,3751,3751,3751,
0274   AF00             ;   66,  50,  76,   2, 467, 467, 467, 467, 467, 467, 467, 467, 467, 467, 467, 467, 467, 467, 467, 467, 467, 467, 467, 467, 467, 467, 467, 467,   2,  76,  44,  66,  66,  50,  76,   2,   2, 467, 467, 467, 467, 467, 467, 467, 467, 467, 467, 467, 467, 467, 467, 467, 467, 467, 467, 467, 467, 467, 467,   2,   2,  76,  44,  66,3751,3751,3751,3751,3751,3751,3751,3751,3751,3751,3751,3751,3751,3751,3751,3751,3751,3751,3751,3751,3751,3751,3751,3751,3751,3751,3751,3751,3751,3751,3751,3751,3751,3751,3751,3751,3751,3751,3751,3751,3751,3751,3751,3751,3751,3751,3751,3751,3751,3751,3751,3751,3751,3751,3751,3751,3751,3751,3751,3751,3751,3751,3751,3751,3751,3751,3751,3751,3751,3751,3751,3751,3751,3751,3751,3751,3751,3751,3751,3751,3751,3751,3751,3751,3751,3751,3751,3751,3751,3751,3751,3751,3751,3751,3751,3751,3751,3751,3751,3751,3751,3751,3751,3751,3751,3751,3751,3751,3751,3751,3751,3751,3751,3751,3751,3751,3751,3751,3751,3751,3751,3751,3751,3751,3751,3751,3751,3751,3751,3751,3751,3751,3751,3751,3751,3751,3751,3751,3751,3751,3751,3751,3751,3751,3751,3751,3751,3751,3751,3751,3751,3751,3751,3751,3751,3751,3751,3751,3751,3751,3751,3751,3751,3751,3751,3751,3751,3751,3751,3751,3751,3751,3751,3751,3751,3751,3751,3751,3751,3751,3751,3751,3751,3751,3751,3751,3751,3751,3751,3751,3751,3751,
0275   AF00             ;   66,  50,  76,   2, 467, 467, 467, 467, 467, 467, 467, 467, 467, 467, 467, 467, 467, 467, 467, 467, 467, 467, 467, 467, 467, 467, 467, 467,   2,  76,  44,  66,  66,  50,  76,   2,   2, 467, 467, 467, 467, 467, 467, 467, 467, 467, 467, 467, 467, 467, 467, 467, 467, 467, 467, 467, 467, 467, 467,   2,   2,  76,  44,  66,3751,3751,3751,3751,3751,3751,3751,3751,3751,3751,3751,3751,3751,3751,3751,3751,3751,3751,3751,3751,3751,3751,3751,3751,3751,3751,3751,3751,3751,3751,3751,3751,3751,3751,3751,3751,3751,3751,3751,3751,3751,3751,3751,3751,3751,3751,3751,3751,3751,3751,3751,3751,3751,3751,3751,3751,3751,3751,3751,3751,3751,3751,3751,3751,3751,3751,3751,3751,3751,3751,3751,3751,3751,3751,3751,3751,3751,3751,3751,3751,3751,3751,3751,3751,3751,3751,3751,3751,3751,3751,3751,3751,3751,3751,3751,3751,3751,3751,3751,3751,3751,3751,3751,3751,3751,3751,3751,3751,3751,3751,3751,3751,3751,3751,3751,3751,3751,3751,3751,3751,3751,3751,3751,3751,3751,3751,3751,3751,3751,3751,3751,3751,3751,3751,3751,3751,3751,3751,3751,3751,3751,3751,3751,3751,3751,3751,3751,3751,3751,3751,3751,3751,3751,3751,3751,3751,3751,3751,3751,3751,3751,3751,3751,3751,3751,3751,3751,3751,3751,3751,3751,3751,3751,3751,3751,3751,3751,3751,3751,3751,3751,3751,3751,3751,3751,3751,3751,3751,3751,3751,3751,3751,
0276   AF00             ;   66,  50,  76,  52,  52,  52,  52,  52,  52,  52,  52,  52,  52,  52,  52,  52,  52,  52,  52,  52,  52,  52,  52,  52,  52,  52,  52,  52,  52,  76,  44,  66,  66,  50,  76,  52,  52,  52,  52,  52,  52,  52,  52,  52,  52,  52,  52,  52,  52,  52,  52,  52,  52,  52,  52,  52,  52,  52,  52,  52,  52,  76,  44,  66,3751,3751,3751,3751,3751,3751,3751,3751,3751,3751,3751,3751,3751,3751,3751,3751,3751,3751,3751,3751,3751,3751,3751,3751,3751,3751,3751,3751,3751,3751,3751,3751,3751,3751,3751,3751,3751,3751,3751,3751,3751,3751,3751,3751,3751,3751,3751,3751,3751,3751,3751,3751,3751,3751,3751,3751,3751,3751,3751,3751,3751,3751,3751,3751,3751,3751,3751,3751,3751,3751,3751,3751,3751,3751,3751,3751,3751,3751,3751,3751,3751,3751,3751,3751,3751,3751,3751,3751,3751,3751,3751,3751,3751,3751,3751,3751,3751,3751,3751,3751,3751,3751,3751,3751,3751,3751,3751,3751,3751,3751,3751,3751,3751,3751,3751,3751,3751,3751,3751,3751,3751,3751,3751,3751,3751,3751,3751,3751,3751,3751,3751,3751,3751,3751,3751,3751,3751,3751,3751,3751,3751,3751,3751,3751,3751,3751,3751,3751,3751,3751,3751,3751,3751,3751,3751,3751,3751,3751,3751,3751,3751,3751,3751,3751,3751,3751,3751,3751,3751,3751,3751,3751,3751,3751,3751,3751,3751,3751,3751,3751,3751,3751,3751,3751,3751,3751,3751,3751,3751,3751,3751,3751,
0277   AF00             ;   66,  50,  26,  26,  26,  26,  26,  26,  26,  26,  26,  26,  26,  26,  26,  50,  50,  50,  50,  50,  50,  50,  50,   2,   2,  44,  44,  44,  44,  44,  44,  66,  66,  50,  26,  26,  26,  26,  26,  26,  26,  26,  26,  26,  26,  26,  26,  50,  50,  50,  50,  50,  50,  50,  50,   2,   2,  44,  44,  44,  44,  44,  44,  66,3751,3751,3751,3751,3751,3751,3751,3751,3751,3751,3751,3751,3751,3751,3751,3751,3751,3751,3751,3751,3751,3751,3751,3751,3751,3751,3751,3751,3751,3751,3751,3751,3751,3751,3751,3751,3751,3751,3751,3751,3751,3751,3751,3751,3751,3751,3751,3751,3751,3751,3751,3751,3751,3751,3751,3751,3751,3751,3751,3751,3751,3751,3751,3751,3751,3751,3751,3751,3751,3751,3751,3751,3751,3751,3751,3751,3751,3751,3751,3751,3751,3751,3751,3751,3751,3751,3751,3751,3751,3751,3751,3751,3751,3751,3751,3751,3751,3751,3751,3751,3751,3751,3751,3751,3751,3751,3751,3751,3751,3751,3751,3751,3751,3751,3751,3751,3751,3751,3751,3751,3751,3751,3751,3751,3751,3751,3751,3751,3751,3751,3751,3751,3751,3751,3751,3751,3751,3751,3751,3751,3751,3751,3751,3751,3751,3751,3751,3751,3751,3751,3751,3751,3751,3751,3751,3751,3751,3751,3751,3751,3751,3751,3751,3751,3751,3751,3751,3751,3751,3751,3751,3751,3751,3751,3751,3751,3751,3751,3751,3751,3751,3751,3751,3751,3751,3751,3751,3751,3751,3751,3751,3751,
0278   AF00             
0001   AF00                 ds (10000h - $) & 0FFh
0002   AF00             city1s_0:  ; 0
0003   AF00 01              db 1
0004   AF01                 db 000h, 070h, 0F8h, 098h, 0ECh, 0F4h, 074h, 004h, 046h
0004   AF01 0070F898ECF4740446
0005   AF0A                 db 07Ch, 09Eh, 0AFh, 0B7h, 0B2h, 0B4h, 0B4h, 0B4h, 042h
0005   AF0A 7C9EAFB7B2B4B4B442
0006   AF13                 db 0B4h, 0B4h, 0B4h, 0B4h, 0B4h, 0CEh, 0FEh, 0FEh, 042h
0006   AF13 B4B4B4B4B4CEFEFE42
0007   AF1C                 db 0FEh, 0FEh, 0FEh, 0FEh, 0FEh, 030h, 030h, 070h, 042h
0007   AF1C FEFEFEFEFE30307042
0008   AF25             city1s_1:  ; 25
0009   AF25 02              db 2
0010   AF26                 db 000h, 000h, 000h, 000h, 000h, 000h, 000h, 000h, 000h
0010   AF26 000000000000000000
0011   AF2F                 db 000h, 000h, 000h, 000h, 000h, 000h, 000h, 000h, 000h
0011   AF2F 000000000000000000
0012   AF38                 db 000h, 000h, 000h, 001h, 001h, 001h, 001h, 001h, 042h
0012   AF38 000000010101010142
0013   AF41                 db 001h, 003h, 003h, 003h, 003h, 003h, 003h, 007h, 042h
0013   AF41 010303030303030742
0014   AF4A                 db 000h, 070h, 0F8h, 098h, 0ECh, 0F4h, 074h, 004h, 046h
0014   AF4A 0070F898ECF4740446
0015   AF53                 db 07Ch, 09Eh, 0AFh, 0B7h, 0B2h, 0B4h, 0B4h, 0DAh, 042h
0015   AF53 7C9EAFB7B2B4B4DA42
0016   AF5C                 db 0DAh, 0DAh, 0DAh, 0DAh, 0DAh, 0E6h, 0FEh, 0FEh, 042h
0016   AF5C DADADADADAE6FEFE42
0017   AF65                 db 0FEh, 0FBh, 0FBh, 0FBh, 0FBh, 003h, 003h, 007h, 042h
0017   AF65 FEFBFBFBFB03030742
0018   AF6E             city1s_2:  ; 6e
0019   AF6E 02              db 2
0020   AF6F                 db 000h, 007h, 00Fh, 009h, 00Eh, 00Fh, 007h, 000h, 046h
0020   AF6F 00070F090E0F070046
0021   AF78                 db 007h, 009h, 00Ah, 00Bh, 00Bh, 00Bh, 00Bh, 00Dh, 042h
0021   AF78 07090A0B0B0B0B0D42
0022   AF81                 db 00Dh, 00Dh, 00Dh, 01Dh, 01Dh, 01Eh, 01Fh, 01Fh, 042h
0022   AF81 0D0D0D1D1D1E1F1F42
0023   AF8A                 db 01Fh, 03Fh, 03Fh, 03Fh, 03Fh, 030h, 030h, 070h, 042h
0023   AF8A 1F3F3F3F3F30307042
0024   AF93                 db 000h, 000h, 080h, 080h, 0C0h, 040h, 040h, 040h, 046h
0024   AF93 00008080C040404046
0025   AF9C                 db 0C0h, 0E0h, 0F0h, 070h, 020h, 040h, 040h, 0A0h, 042h
0025   AF9C C0E0F070204040A042
0026   AFA5                 db 0A0h, 0A0h, 0A0h, 0A0h, 0A0h, 060h, 0E0h, 0E0h, 042h
0026   AFA5 A0A0A0A0A060E0E042
0027   AFAE                 db 0E0h, 0B0h, 0B0h, 0B0h, 0B0h, 030h, 030h, 070h, 042h
0027   AFAE E0B0B0B0B030307042
0028   AFB7             city1s_3:  ; b7
0029   AFB7 01              db 1
0030   AFB8                 db 000h, 00Eh, 01Fh, 019h, 037h, 02Fh, 02Eh, 020h, 046h
0030   AFB8 000E1F19372F2E2046
0031   AFC1                 db 03Eh, 079h, 0F5h, 0EDh, 04Dh, 02Dh, 02Dh, 02Dh, 042h
0031   AFC1 3E79F5ED4D2D2D2D42
0032   AFCA                 db 02Dh, 02Dh, 02Dh, 02Dh, 02Dh, 073h, 07Fh, 07Fh, 042h
0032   AFCA 2D2D2D2D2D737F7F42
0033   AFD3                 db 07Fh, 07Fh, 07Fh, 07Fh, 07Fh, 00Ch, 00Ch, 00Eh, 042h
0033   AFD3 7F7F7F7F7F0C0C0E42
0034   AFDC 00              ds (10000h - $) & 0FFh
0035   B000             city1s_4:  ; 0
0036   B000 02              db 2
0037   B001                 db 000h, 00Eh, 01Fh, 019h, 037h, 02Fh, 02Eh, 020h, 046h
0037   B001 000E1F19372F2E2046
0038   B00A                 db 03Eh, 079h, 0F5h, 0EDh, 04Dh, 02Dh, 02Dh, 05Bh, 042h
0038   B00A 3E79F5ED4D2D2D5B42
0039   B013                 db 05Bh, 05Bh, 05Bh, 05Bh, 05Bh, 067h, 07Fh, 07Fh, 042h
0039   B013 5B5B5B5B5B677F7F42
0040   B01C                 db 07Fh, 0DFh, 0DFh, 0DFh, 0DFh, 0C0h, 0C0h, 0E0h, 042h
0040   B01C 7FDFDFDFDFC0C0E042
0041   B025                 db 000h, 000h, 000h, 000h, 000h, 000h, 000h, 000h, 000h
0041   B025 000000000000000000
0042   B02E                 db 000h, 000h, 000h, 000h, 000h, 000h, 000h, 000h, 000h
0042   B02E 000000000000000000
0043   B037                 db 000h, 000h, 000h, 080h, 080h, 080h, 080h, 080h, 042h
0043   B037 000000808080808042
0044   B040                 db 080h, 0C0h, 0C0h, 0C0h, 0C0h, 0C0h, 0C0h, 0E0h, 042h
0044   B040 80C0C0C0C0C0C0E042
0045   B049             city1s_5:  ; 49
0046   B049 02              db 2
0047   B04A                 db 000h, 000h, 001h, 001h, 003h, 002h, 002h, 002h, 046h
0047   B04A 000001010302020246
0048   B053                 db 003h, 007h, 00Fh, 00Eh, 004h, 002h, 002h, 005h, 042h
0048   B053 03070F0E0402020542
0049   B05C                 db 005h, 005h, 005h, 005h, 005h, 006h, 007h, 007h, 042h
0049   B05C 050505050506070742
0050   B065                 db 007h, 00Dh, 00Dh, 00Dh, 00Dh, 00Ch, 00Ch, 00Eh, 042h
0050   B065 070D0D0D0D0C0C0E42
0051   B06E                 db 000h, 0E0h, 0F0h, 090h, 070h, 0F0h, 0E0h, 000h, 046h
0051   B06E 00E0F09070F0E00046
0052   B077                 db 0E0h, 090h, 050h, 0D0h, 0D0h, 0D0h, 0D0h, 0B0h, 042h
0052   B077 E09050D0D0D0D0B042
0053   B080                 db 0B0h, 0B0h, 0B0h, 0B8h, 0B8h, 078h, 0F8h, 0F8h, 042h
0053   B080 B0B0B0B8B878F8F842
0054   B089                 db 0F8h, 0FCh, 0FCh, 0FCh, 0FCh, 00Ch, 00Ch, 00Eh, 042h
0054   B089 F8FCFCFCFC0C0C0E42
0055   B092             city1s_6:  ; 92
0056   B092 01              db 1
0057   B093                 db 000h, 038h, 07Ch, 04Eh, 076h, 07Ah, 03Bh, 003h, 047h
0057   B093 00387C4E767A3B0347
0058   B09C                 db 03Bh, 03Dh, 066h, 06Ah, 06Ah, 06Ah, 02Ah, 02Ah, 045h
0058   B09C 3B3D666A6A6A2A2A45
0059   B0A5                 db 02Ah, 02Ah, 06Bh, 06Bh, 063h, 07Fh, 07Fh, 07Fh, 045h
0059   B0A5 2A2A6B6B637F7F7F45
0060   B0AE                 db 018h, 018h, 018h, 018h, 010h, 010h, 018h, 038h, 007h
0060   B0AE 181818181010183807
0061   B0B7 00              ds (10000h - $) & 0FFh
0062   B100             city1s_7:  ; 0
0063   B100 02              db 2
0064   B101                 db 000h, 00Eh, 01Fh, 013h, 01Dh, 01Eh, 00Eh, 000h, 047h
0064   B101 000E1F131D1E0E0047
0065   B10A                 db 00Eh, 00Fh, 019h, 01Ah, 01Ah, 01Ah, 00Ah, 00Ah, 045h
0065   B10A 0E0F191A1A1A0A0A45
0066   B113                 db 005h, 005h, 015h, 015h, 011h, 01Fh, 01Fh, 01Fh, 045h
0066   B113 05051515111F1F1F45
0067   B11C                 db 01Dh, 018h, 018h, 018h, 010h, 010h, 018h, 039h, 007h
0067   B11C 1D1818181010183907
0068   B125                 db 000h, 000h, 000h, 080h, 080h, 080h, 0C0h, 0C0h, 047h
0068   B125 000000808080C0C047
0069   B12E                 db 0C0h, 040h, 080h, 080h, 080h, 080h, 080h, 080h, 045h
0069   B12E C04080808080808045
0070   B137                 db 080h, 080h, 0C0h, 0C0h, 0C0h, 0C0h, 0C0h, 0C0h, 045h
0070   B137 8080C0C0C0C0C0C045
0071   B140                 db 0C0h, 0C0h, 0C0h, 0C0h, 040h, 040h, 0C0h, 0C0h, 007h
0071   B140 C0C0C0C04040C0C007
0072   B149             city1s_8:  ; 49
0073   B149 02              db 2
0074   B14A                 db 000h, 003h, 007h, 004h, 007h, 007h, 003h, 000h, 047h
0074   B14A 000307040707030047
0075   B153                 db 003h, 003h, 006h, 006h, 006h, 006h, 002h, 002h, 045h
0075   B153 030306060606020245
0076   B15C                 db 002h, 002h, 006h, 006h, 006h, 007h, 00Fh, 00Fh, 045h
0076   B15C 0202060606070F0F45
0077   B165                 db 00Eh, 00Eh, 00Ch, 00Ch, 00Ch, 008h, 018h, 038h, 007h
0077   B165 0E0E0C0C0C08183807
0078   B16E                 db 000h, 080h, 0C0h, 0E0h, 060h, 0A0h, 0B0h, 030h, 047h
0078   B16E 0080C0E060A0B03047
0079   B177                 db 0B0h, 0D0h, 060h, 0A0h, 0A0h, 0A0h, 0A0h, 0A0h, 045h
0079   B177 B0D060A0A0A0A0A045
0080   B180                 db 0A0h, 0A0h, 0B0h, 0B0h, 030h, 0F0h, 0F8h, 0F8h, 045h
0080   B180 A0A0B0B030F0F8F845
0081   B189                 db 038h, 038h, 018h, 018h, 018h, 008h, 018h, 038h, 007h
0081   B189 383818181808183807
0082   B192             city1s_9:  ; 92
0083   B192 02              db 2
0084   B193                 db 000h, 000h, 001h, 001h, 001h, 001h, 000h, 000h, 047h
0084   B193 000001010101000047
0085   B19C                 db 000h, 000h, 001h, 001h, 001h, 001h, 000h, 000h, 045h
0085   B19C 000001010101000045
0086   B1A5                 db 000h, 000h, 001h, 001h, 001h, 001h, 001h, 001h, 045h
0086   B1A5 000001010101010145
0087   B1AE                 db 001h, 001h, 001h, 001h, 001h, 001h, 003h, 007h, 007h
0087   B1AE 010101010101030707
0088   B1B7                 db 000h, 0E0h, 0F0h, 038h, 0D8h, 0E8h, 0ECh, 00Ch, 047h
0088   B1B7 00E0F038D8E8EC0C47
0089   B1C0                 db 0ECh, 0F4h, 098h, 0A8h, 0A8h, 0A8h, 0A8h, 0A8h, 045h
0089   B1C0 ECF498A8A8A8A8A845
0090   B1C9                 db 0D0h, 0D0h, 0D4h, 0D4h, 0C4h, 0FCh, 0FCh, 0FCh, 045h
0090   B1C9 D0D0D4D4C4FCFCFC45
0091   B1D2                 db 0D8h, 098h, 098h, 098h, 090h, 010h, 018h, 038h, 007h
0091   B1D2 D89898989010183807
0092   B1DB 00              ds (10000h - $) & 0FFh
0093   B200             city1s_10:  ; 0
0094   B200 01              db 1
0095   B201                 db 000h, 00Eh, 01Fh, 039h, 037h, 02Fh, 06Eh, 060h, 047h
0095   B201 000E1F39372F6E6047
0096   B20A                 db 06Eh, 05Eh, 033h, 02Bh, 02Bh, 02Bh, 02Ah, 02Ah, 045h
0096   B20A 6E5E332B2B2B2A2A45
0097   B213                 db 02Ah, 02Ah, 06Bh, 06Bh, 063h, 07Fh, 07Fh, 07Fh, 045h
0097   B213 2A2A6B6B637F7F7F45
0098   B21C                 db 00Ch, 00Ch, 00Ch, 00Ch, 004h, 004h, 00Ch, 00Eh, 007h
0098   B21C 0C0C0C0C04040C0E07
0099   B225             city1s_11:  ; 25
0100   B225 02              db 2
0101   B226                 db 000h, 003h, 007h, 00Eh, 00Dh, 00Bh, 01Bh, 018h, 047h
0101   B226 0003070E0D0B1B1847
0102   B22F                 db 01Bh, 017h, 00Ch, 00Ah, 00Ah, 00Ah, 00Ah, 00Ah, 045h
0102   B22F 1B170C0A0A0A0A0A45
0103   B238                 db 005h, 005h, 015h, 015h, 011h, 01Fh, 01Fh, 01Fh, 045h
0103   B238 05051515111F1F1F45
0104   B241                 db 00Dh, 00Ch, 00Ch, 00Ch, 004h, 004h, 00Ch, 00Eh, 007h
0104   B241 0D0C0C0C04040C0E07
0105   B24A                 db 000h, 080h, 0C0h, 040h, 0C0h, 0C0h, 080h, 000h, 047h
0105   B24A 0080C040C0C0800047
0106   B253                 db 080h, 080h, 0C0h, 0C0h, 0C0h, 0C0h, 080h, 080h, 045h
0106   B253 8080C0C0C0C0808045
0107   B25C                 db 080h, 080h, 0C0h, 0C0h, 0C0h, 0C0h, 0C0h, 0C0h, 045h
0107   B25C 8080C0C0C0C0C0C045
0108   B265                 db 0C0h, 0C0h, 0C0h, 0C0h, 0C0h, 040h, 060h, 070h, 007h
0108   B265 C0C0C0C0C040607007
0109   B26E             city1s_12:  ; 6e
0110   B26E 02              db 2
0111   B26F                 db 000h, 000h, 001h, 003h, 003h, 002h, 006h, 006h, 047h
0111   B26F 000001030302060647
0112   B278                 db 006h, 005h, 003h, 002h, 002h, 002h, 002h, 002h, 045h
0112   B278 060503020202020245
0113   B281                 db 002h, 002h, 006h, 006h, 006h, 007h, 00Fh, 00Fh, 045h
0113   B281 0202060606070F0F45
0114   B28A                 db 00Eh, 00Eh, 00Ch, 00Ch, 00Ch, 008h, 00Ch, 00Eh, 007h
0114   B28A 0E0E0C0C0C080C0E07
0115   B293                 db 000h, 0E0h, 0F0h, 090h, 070h, 0F0h, 0E0h, 000h, 047h
0115   B293 00E0F09070F0E00047
0116   B29C                 db 0E0h, 0E0h, 030h, 0B0h, 0B0h, 0B0h, 0A0h, 0A0h, 045h
0116   B29C E0E030B0B0B0A0A045
0117   B2A5                 db 0A0h, 0A0h, 0B0h, 0B0h, 030h, 0F0h, 0F8h, 0F8h, 045h
0117   B2A5 A0A0B0B030F0F8F845
0118   B2AE                 db 038h, 038h, 018h, 018h, 018h, 008h, 00Ch, 00Eh, 007h
0118   B2AE 3838181818080C0E07
0119   B2B7 00              ds (10000h - $) & 0FFh
0120   B300             city1s_13:  ; 0
0121   B300 02              db 2
0122   B301                 db 000h, 000h, 000h, 000h, 000h, 000h, 001h, 001h, 047h
0122   B301 000000000000010147
0123   B30A                 db 001h, 001h, 000h, 000h, 000h, 000h, 000h, 000h, 045h
0123   B30A 010100000000000045
0124   B313                 db 000h, 000h, 001h, 001h, 001h, 001h, 001h, 001h, 045h
0124   B313 000001010101010145
0125   B31C                 db 001h, 001h, 001h, 001h, 001h, 001h, 001h, 001h, 007h
0125   B31C 010101010101010107
0126   B325                 db 000h, 038h, 07Ch, 0E4h, 0DCh, 0BCh, 0B8h, 080h, 047h
0126   B325 00387CE4DCBCB88047
0127   B32E                 db 0B8h, 078h, 0CCh, 0ACh, 0ACh, 0ACh, 0A8h, 0A8h, 045h
0127   B32E B878CCACACACA8A845
0128   B337                 db 0D0h, 0D0h, 0D4h, 0D4h, 0C4h, 0FCh, 0FCh, 0FCh, 045h
0128   B337 D0D0D4D4C4FCFCFC45
0129   B340                 db 0DCh, 08Ch, 08Ch, 08Ch, 004h, 004h, 08Ch, 0CEh, 007h
0129   B340 DC8C8C8C04048CCE07
0130   B349             city1s_14:  ; 49
0131   B349 01              db 1
0132   B34A                 db 000h, 01Ch, 03Eh, 026h, 03Ah, 03Ch, 01Eh, 00Ch, 047h
0132   B34A 001C3E263A3C1E0C47
0133   B353                 db 00Eh, 011h, 035h, 035h, 035h, 035h, 035h, 035h, 045h
0133   B353 0E1135353535353545
0134   B35C                 db 035h, 015h, 015h, 015h, 01Bh, 01Eh, 00Eh, 00Eh, 045h
0134   B35C 351515151B1E0E0E45
0135   B365                 db 00Eh, 00Eh, 00Eh, 00Eh, 00Ch, 00Ch, 00Ch, 01Ch, 006h
0135   B365 0E0E0E0E0C0C0C1C06
0136   B36E             city1s_15:  ; 6e
0137   B36E 02              db 2
0138   B36F                 db 000h, 000h, 000h, 000h, 000h, 000h, 000h, 000h, 000h
0138   B36F 000000000000000000
0139   B378                 db 000h, 000h, 000h, 000h, 000h, 000h, 000h, 000h, 000h
0139   B378 000000000000000000
0140   B381                 db 000h, 000h, 000h, 000h, 000h, 000h, 000h, 000h, 000h
0140   B381 000000000000000000
0141   B38A                 db 000h, 000h, 001h, 001h, 001h, 001h, 001h, 003h, 006h
0141   B38A 000001010101010306
0142   B393                 db 000h, 070h, 0F8h, 098h, 0E8h, 0F0h, 078h, 030h, 047h
0142   B393 0070F898E8F0783047
0143   B39C                 db 038h, 044h, 0D4h, 0D4h, 0D4h, 0D4h, 0D4h, 0ACh, 045h
0143   B39C 3844D4D4D4D4D4AC45
0144   B3A5                 db 0A8h, 0A8h, 0A8h, 0A8h, 0DCh, 0FCh, 0FCh, 0FCh, 045h
0144   B3A5 A8A8A8A8DCFCFCFC45
0145   B3AE                 db 0DCh, 0DCh, 0DCh, 0DCh, 08Ch, 08Ch, 08Ch, 09Ch, 006h
0145   B3AE DCDCDCDC8C8C8C9C06
0146   B3B7 00              ds (10000h - $) & 0FFh
0147   B400             city1s_16:  ; 0
0148   B400 02              db 2
0149   B401                 db 000h, 001h, 003h, 002h, 003h, 003h, 001h, 000h, 047h
0149   B401 000103020303010047
0150   B40A                 db 000h, 001h, 003h, 003h, 003h, 003h, 003h, 003h, 045h
0150   B40A 000103030303030345
0151   B413                 db 003h, 001h, 001h, 001h, 003h, 003h, 003h, 007h, 045h
0151   B413 030101010303030745
0152   B41C                 db 007h, 007h, 00Eh, 00Eh, 00Eh, 00Ch, 00Ch, 01Ch, 006h
0152   B41C 07070E0E0E0C0C1C06
0153   B425                 db 000h, 0C0h, 0E0h, 060h, 0A0h, 0C0h, 0E0h, 0C0h, 047h
0153   B425 00C0E060A0C0E0C047
0154   B42E                 db 0E0h, 010h, 050h, 050h, 050h, 050h, 050h, 050h, 045h
0154   B42E E01050505050505045
0155   B437                 db 050h, 050h, 050h, 050h, 0B0h, 0F0h, 0F0h, 0F8h, 045h
0155   B437 50505050B0F0F0F845
0156   B440                 db 078h, 038h, 038h, 01Ch, 01Ch, 00Ch, 00Ch, 01Ch, 006h
0156   B440 7838381C1C0C0C1C06
0157   B449             city1s_17:  ; 49
0158   B449 02              db 2
0159   B44A                 db 000h, 007h, 00Fh, 009h, 00Eh, 00Fh, 007h, 003h, 047h
0159   B44A 00070F090E0F070347
0160   B453                 db 003h, 004h, 00Dh, 00Dh, 00Dh, 00Dh, 00Dh, 00Eh, 045h
0160   B453 03040D0D0D0D0D0E45
0161   B45C                 db 00Eh, 006h, 006h, 006h, 007h, 007h, 007h, 00Fh, 045h
0161   B45C 0E0606060707070F45
0162   B465                 db 00Fh, 00Eh, 00Eh, 00Eh, 00Ch, 00Ch, 00Ch, 01Ch, 006h
0162   B465 0F0E0E0E0C0C0C1C06
0163   B46E                 db 000h, 000h, 080h, 080h, 080h, 000h, 080h, 000h, 047h
0163   B46E 000080808000800047
0164   B477                 db 080h, 040h, 040h, 040h, 040h, 040h, 040h, 0C0h, 045h
0164   B477 80404040404040C045
0165   B480                 db 0C0h, 0C0h, 0C0h, 0C0h, 040h, 0C0h, 0E0h, 0E0h, 045h
0165   B480 C0C0C0C040C0E0E045
0166   B489                 db 0E0h, 0E0h, 060h, 060h, 070h, 030h, 030h, 070h, 006h
0166   B489 E0E060607030307006
0167   B492             city1s_18:  ; 92
0168   B492 02              db 2
0169   B493                 db 000h, 000h, 001h, 001h, 001h, 000h, 001h, 000h, 047h
0169   B493 000001010100010047
0170   B49C                 db 001h, 002h, 002h, 002h, 002h, 002h, 002h, 003h, 045h
0170   B49C 010202020202020345
0171   B4A5                 db 003h, 003h, 003h, 003h, 002h, 003h, 007h, 007h, 045h
0171   B4A5 030303030203070745
0172   B4AE                 db 007h, 007h, 006h, 006h, 00Eh, 00Ch, 00Ch, 00Eh, 006h
0172   B4AE 070706060E0C0C0E06
0173   B4B7                 db 000h, 0E0h, 0F0h, 090h, 070h, 0F0h, 0E0h, 0C0h, 047h
0173   B4B7 00E0F09070F0E0C047
0174   B4C0                 db 0C0h, 020h, 0B0h, 0B0h, 0B0h, 0B0h, 0B0h, 070h, 045h
0174   B4C0 C020B0B0B0B0B07045
0175   B4C9                 db 070h, 060h, 060h, 060h, 0E0h, 0E0h, 0E0h, 0F0h, 045h
0175   B4C9 70606060E0E0E0F045
0176   B4D2                 db 0F0h, 070h, 070h, 070h, 030h, 030h, 030h, 038h, 006h
0176   B4D2 F07070703030303806
0177   B4DB 00              ds (10000h - $) & 0FFh
0178   B500             city1s_19:  ; 0
0179   B500 02              db 2
0180   B501                 db 000h, 003h, 007h, 006h, 005h, 003h, 007h, 003h, 047h
0180   B501 000307060503070347
0181   B50A                 db 007h, 008h, 00Ah, 00Ah, 00Ah, 00Ah, 00Ah, 00Ah, 045h
0181   B50A 07080A0A0A0A0A0A45
0182   B513                 db 00Ah, 00Ah, 00Ah, 00Ah, 00Dh, 00Fh, 00Fh, 01Fh, 045h
0182   B513 0A0A0A0A0D0F0F1F45
0183   B51C                 db 01Eh, 01Ch, 01Ch, 038h, 038h, 030h, 030h, 038h, 006h
0183   B51C 1E1C1C383830303806
0184   B525                 db 000h, 080h, 0C0h, 040h, 0C0h, 0C0h, 080h, 000h, 047h
0184   B525 0080C040C0C0800047
0185   B52E                 db 000h, 080h, 0C0h, 0C0h, 0C0h, 0C0h, 0C0h, 0C0h, 045h
0185   B52E 0080C0C0C0C0C0C045
0186   B537                 db 0C0h, 080h, 080h, 080h, 0C0h, 0C0h, 0C0h, 0E0h, 045h
0186   B537 C0808080C0C0C0E045
0187   B540                 db 0E0h, 0E0h, 070h, 070h, 070h, 030h, 030h, 038h, 006h
0187   B540 E0E070707030303806
0188   B549             city1s_20:  ; 49
0189   B549 02              db 2
0190   B54A                 db 000h, 00Eh, 01Fh, 019h, 017h, 00Fh, 01Eh, 00Ch, 047h
0190   B54A 000E1F19170F1E0C47
0191   B553                 db 01Ch, 022h, 02Bh, 02Bh, 02Bh, 02Bh, 02Bh, 035h, 045h
0191   B553 1C222B2B2B2B2B3545
0192   B55C                 db 015h, 015h, 015h, 015h, 03Bh, 03Fh, 03Fh, 03Fh, 045h
0192   B55C 151515153B3F3F3F45
0193   B565                 db 03Bh, 03Bh, 03Bh, 03Bh, 031h, 031h, 031h, 039h, 006h
0193   B565 3B3B3B3B3131313906
0194   B56E                 db 000h, 000h, 000h, 000h, 000h, 000h, 000h, 000h, 000h
0194   B56E 000000000000000000
0195   B577                 db 000h, 000h, 000h, 000h, 000h, 000h, 000h, 000h, 000h
0195   B577 000000000000000000
0196   B580                 db 000h, 000h, 000h, 000h, 000h, 000h, 000h, 000h, 000h
0196   B580 000000000000000000
0197   B589                 db 000h, 000h, 080h, 080h, 080h, 080h, 080h, 0C0h, 006h
0197   B589 00008080808080C006
0198   B592             city1s_21:  ; 92
0199   B592 01              db 1
0200   B593                 db 000h, 038h, 07Ch, 064h, 05Ch, 03Ch, 078h, 030h, 047h
0200   B593 00387C645C3C783047
0201   B59C                 db 070h, 088h, 0ACh, 0ACh, 0ACh, 0ACh, 0ACh, 0ACh, 045h
0201   B59C 7088ACACACACACAC45
0202   B5A5                 db 0ACh, 0A8h, 0A8h, 0A8h, 0D8h, 078h, 070h, 070h, 045h
0202   B5A5 ACA8A8A8D878707045
0203   B5AE                 db 070h, 070h, 070h, 070h, 030h, 030h, 030h, 038h, 006h
0203   B5AE 707070703030303806
0204   B5B7             
0001   B5B7                 ; 3 void getItemOfArray8()
0002   B5B7             getItemOfArray8: 
0003   B5B7                 ; 4 {
0004   B5B7                 ; 5 l = (a += l);
0005   B5B7 85              add  l
0006   B5B8 6F              ld   l, a
0007   B5B9                 ; 6 h = ((a +@= h) -= l);
0008   B5B9 8C              adc  h
0009   B5BA 95              sub  l
0010   B5BB 67              ld   h, a
0011   B5BC                 ; 7 a = *hl;
0012   B5BC 7E              ld   a, (hl)
0013   B5BD                 ; 8 }
0014   B5BD C9              ret
0015   B5BE                 ; 10 void getItemOfArray16()
0016   B5BE             getItemOfArray16: 
0017   B5BE                 ; 11 {
0018   B5BE                 ; 12 push(a)
0019   B5BE                 ; 13 {
0020   B5BE F5              push af
0021   B5BF                 ; 14 l = ((a += a) += l);
0022   B5BF 87              add  a
0023   B5C0 85              add  l
0024   B5C1 6F              ld   l, a
0025   B5C2                 ; 15 h = ((a +@= h) -= l);
0026   B5C2 8C              adc  h
0027   B5C3 95              sub  l
0028   B5C4 67              ld   h, a
0029   B5C5                 ; 16 a = *hl; hl++; h = *hl; l = a;
0030   B5C5 7E              ld   a, (hl)
0031   B5C6 23              inc  hl
0032   B5C7 66              ld   h, (hl)
0033   B5C8 6F              ld   l, a
0034   B5C9                 ; 17 }
0035   B5C9 F1              pop  af
0036   B5CA                 ; 18 }
0037   B5CA C9              ret
0038   B5CB                 ; 20 // b - указывает на максимальное кол-во копируемых символов, размер буфера должен быть на 1 байт больше.
0039   B5CB                 ; 22 void strcpyn(hl, de, b)
0040   B5CB             strcpyn: 
0041   B5CB                 ; 23 {
0042   B5CB                 ; 24 do
0043   B5CB             l7000: 
0044   B5CB                 ; 25 {
0045   B5CB                 ; 26 a = *de; de++;
0046   B5CB 1A              ld   a, (de)
0047   B5CC 13              inc  de
0048   B5CD                 ; 27 if (flag_z a |= a) break;
0049   B5CD B7              or   a
0050   B5CE CA D5 B5        jp   z, l7001
0051   B5D1                 ; 28 *hl = a; hl++;
0052   B5D1 77              ld   (hl), a
0053   B5D2 23              inc  hl
0054   B5D3                 ; 29 } while(--b);
0055   B5D3 10 F6           djnz l7000
0056   B5D5             l7001: 
0057   B5D5                 ; 30 *hl = 0;
0058   B5D5 36 00           ld   (hl), 0
0059   B5D7                 ; 31 }
0060   B5D7 C9              ret
0061   B5D8                 ; 33 void numberToString16(hl, de)
0062   B5D8             numberToString16: 
0063   B5D8                 ; 34 {
0064   B5D8                 ; 35 *[&uint16_to_str_addr + 1] = hl;
0065   B5D8 22 EE B5        ld   ((uint16_to_str_addr) + (1)), hl
0066   B5DB                 ; 37 // Терминатор
0067   B5DB                 ; 38 a ^= a;
0068   B5DB AF              xor  a
0069   B5DC                 ; 39 push(a);
0070   B5DC F5              push af
0071   B5DD                 ; 41 // Разделение числа на цифры
0072   B5DD                 ; 42 ex(hl, de);
0073   B5DD EB              ex de, hl
0074   B5DE                 ; 43 do
0075   B5DE             l7002: 
0076   B5DE                 ; 44 {
0077   B5DE                 ; 45 div16(hl, de = 10);
0078   B5DE 11 0A 00        ld   de, 10
0079   B5E1 CD 3D B6        call div16
0080   B5E4                 ; 46 (a = e) += '0';
0081   B5E4 7B              ld   a, e
0082   B5E5 C6 30           add  48
0083   B5E7                 ; 47 push(a);
0084   B5E7 F5              push af
0085   B5E8                 ; 48 } while (flag_nz (a = h) |= l);
0086   B5E8 7C              ld   a, h
0087   B5E9 B5              or   l
0088   B5EA C2 DE B5        jp   nz, l7002
0089   B5ED             l7003: 
0090   B5ED                 ; 50 // Вывод в строку
0091   B5ED                 ; 51 uint16_to_str_addr:
0092   B5ED             uint16_to_str_addr: 
0093   B5ED                 ; 52 de = 0;
0094   B5ED 11 00 00        ld   de, 0
0095   B5F0                 ; 53 do
0096   B5F0             l7004: 
0097   B5F0                 ; 54 {
0098   B5F0                 ; 55 pop(a);
0099   B5F0 F1              pop  af
0100   B5F1                 ; 56 *de = a; de++;
0101   B5F1 12              ld   (de), a
0102   B5F2 13              inc  de
0103   B5F3                 ; 57 } while(flag_nz a |= a);
0104   B5F3 B7              or   a
0105   B5F4 C2 F0 B5        jp   nz, l7004
0106   B5F7             l7005: 
0107   B5F7                 ; 58 de--;
0108   B5F7 1B              dec  de
0109   B5F8                 ; 59 hl = de;
0110   B5F8 62              ld   h, d
0111   B5F9 6B              ld   l, e
0112   B5FA                 ; 60 }
0113   B5FA C9              ret
0114   B5FB                 ; 62 // Умножение HL на DE, результат в HL. BC портить нельзя
0115   B5FB                 ; 64 void mul16()
0116   B5FB             mul16: 
0117   B5FB                 ; 65 {
0118   B5FB                 ; 66 bc = hl;
0119   B5FB 44              ld   b, h
0120   B5FC 4D              ld   c, l
0121   B5FD                 ; 67 hl = 0;
0122   B5FD 21 00 00        ld   hl, 0
0123   B600                 ; 68 a = 17;
0124   B600 3E 11           ld   a, 17
0125   B602                 ; 69 while()
0126   B602             l7006: 
0127   B602                 ; 70 {
0128   B602                 ; 71 a--;
0129   B602 3D              dec  a
0130   B603                 ; 72 if (flag_z) return;
0131   B603 C8              ret  z
0132   B604                 ; 73 hl += hl;
0133   B604 29              add  hl, hl
0134   B605                 ; 74 ex(hl, de);
0135   B605 EB              ex de, hl
0136   B606                 ; 75 if (flag_c)
0137   B606                 ; 76 {
0138   B606 D2 0E B6        jp   nc, l7008
0139   B609                 ; 77 hl += hl;
0140   B609 29              add  hl, hl
0141   B60A                 ; 78 hl++;
0142   B60A 23              inc  hl
0143   B60B                 ; 79 }
0144   B60B                 ; 80 else
0145   B60B C3 0F B6        jp   l7009
0146   B60E             l7008: 
0147   B60E                 ; 81 {
0148   B60E                 ; 82 hl += hl;
0149   B60E 29              add  hl, hl
0150   B60F                 ; 83 }
0151   B60F             l7009: 
0152   B60F                 ; 84 ex(hl, de);
0153   B60F EB              ex de, hl
0154   B610                 ; 85 if (flag_nc) continue;
0155   B610 D2 02 B6        jp   nc, l7006
0156   B613                 ; 86 hl += bc;
0157   B613 09              add  hl, bc
0158   B614                 ; 87 if (flag_nc) continue;
0159   B614 D2 02 B6        jp   nc, l7006
0160   B617                 ; 88 de++;
0161   B617 13              inc  de
0162   B618                 ; 89 }
0163   B618 C3 02 B6        jp   l7006
0164   B61B             l7007: 
0165   B61B                 ; 90 }
0166   B61B C9              ret
0167   B61C                 ; 92 // Добавить элемент в конец массива uint8_t[]
0168   B61C                 ; 93 //
0169   B61C                 ; 94 // Вход:
0170   B61C                 ; 95 //   de - адрес начала массива
0171   B61C                 ; 96 //   hl - адрес, где хранится длинна массива
0172   B61C                 ; 97 //   c  - максимальное кол-во элементов в массиве
0173   B61C                 ; 98 // Выход:
0174   B61C                 ; 99 //   z  - В массиве нет места
0175   B61C                 ; 101 void addElement(de, hl, c, a)
0176   B61C             addElement: 
0177   B61C                 ; 102 {
0178   B61C                 ; 103 b = a;
0179   B61C 47              ld   b, a
0180   B61D                 ; 104 a = *hl;
0181   B61D 7E              ld   a, (hl)
0182   B61E                 ; 105 if (a == c) return; // z
0183   B61E B9              cp   c
0184   B61F C8              ret  z
0185   B620                 ; 106 (*hl)++;
0186   B620 34              inc  (hl)
0187   B621                 ; 107 l = (a += e); h = ((a +@= d) -= l);
0188   B621 83              add  e
0189   B622 6F              ld   l, a
0190   B623 8A              adc  d
0191   B624 95              sub  l
0192   B625 67              ld   h, a
0193   B626                 ; 108 *hl = b;
0194   B626 70              ld   (hl), b
0195   B627                 ; 109 ++(a ^= a); // return nz
0196   B627 AF              xor  a
0197   B628 3C              inc  a
0198   B629                 ; 110 }
0199   B629 C9              ret
0200   B62A                 ; 112 // Удалить элемент из массива
0201   B62A                 ; 113 //
0202   B62A                 ; 114 // Вход:
0203   B62A                 ; 115 //   de - адрес начала массива
0204   B62A                 ; 116 //   hl - адрес, где хранится длинна массива
0205   B62A                 ; 117 //   c  - максимальное кол-во элементов в массиве
0206   B62A                 ; 118 // Выход:
0207   B62A                 ; 119 //   z  - В массиве нет места
0208   B62A                 ; 121 void removeElement(de, hl, a)
0209   B62A             removeElement: 
0210   B62A                 ; 122 {
0211   B62A                 ; 123 (*hl)--;
0212   B62A 35              dec  (hl)
0213   B62B                 ; 124 removeElement2:
0214   B62B             removeElement2: 
0215   B62B                 ; 125 b = a;
0216   B62B 47              ld   b, a
0217   B62C                 ; 126 e = (a += e); d = ((a +@= d) -= e); // de += a
0218   B62C 83              add  e
0219   B62D 5F              ld   e, a
0220   B62E 8A              adc  d
0221   B62F 93              sub  e
0222   B630 57              ld   d, a
0223   B631                 ; 127 (a = *hl) -= b;
0224   B631 7E              ld   a, (hl)
0225   B632 90              sub  b
0226   B633                 ; 128 if (flag_z) return;
0227   B633 C8              ret  z
0228   B634                 ; 129 b = 0; c = a;
0229   B634 06 00           ld   b, 0
0230   B636 4F              ld   c, a
0231   B637                 ; 130 hl = de;
0232   B637 62              ld   h, d
0233   B638 6B              ld   l, e
0234   B639                 ; 131 hl++;
0235   B639 23              inc  hl
0236   B63A                 ; 132 ldir();
0237   B63A ED B0           ldir
0238   B63C                 ; 133 }
0239   B63C C9              ret
0240   B63D                 ; 135 // HL делится на DE, результат в HL, остаток в DE
0241   B63D                 ; 137 void div16()
0242   B63D             div16: 
0243   B63D                 ; 138 {
0244   B63D                 ; 139 ex(hl, de);
0245   B63D EB              ex de, hl
0246   B63E                 ; 140 if (flag_z (a = h) |= l) return; // Деление на ноль
0247   B63E 7C              ld   a, h
0248   B63F B5              or   l
0249   B640 C8              ret  z
0250   B641                 ; 141 bc = 0;
0251   B641 01 00 00        ld   bc, 0
0252   B644                 ; 142 push(bc);
0253   B644 C5              push bc
0254   B645                 ; 143 do
0255   B645             l7010: 
0256   B645                 ; 144 {
0257   B645                 ; 145 (a = e) -= l;
0258   B645 7B              ld   a, e
0259   B646 95              sub  l
0260   B647                 ; 146 (a = d) -@= h;
0261   B647 7A              ld   a, d
0262   B648 9C              sbc  h
0263   B649                 ; 147 if (flag_c) break;
0264   B649 DA 51 B6        jp   c, l7011
0265   B64C                 ; 148 push(hl);
0266   B64C E5              push hl
0267   B64D                 ; 149 hl += hl;
0268   B64D 29              add  hl, hl
0269   B64E                 ; 150 } while(flag_nc);
0270   B64E D2 45 B6        jp   nc, l7010
0271   B651             l7011: 
0272   B651                 ; 151 hl = 0;
0273   B651 21 00 00        ld   hl, 0
0274   B654                 ; 152 while()
0275   B654             l7012: 
0276   B654                 ; 153 {
0277   B654                 ; 154 pop(bc);
0278   B654 C1              pop  bc
0279   B655                 ; 155 (a = b) |= c;
0280   B655 78              ld   a, b
0281   B656 B1              or   c
0282   B657                 ; 156 if (flag_z) return;
0283   B657 C8              ret  z
0284   B658                 ; 157 hl += hl;
0285   B658 29              add  hl, hl
0286   B659                 ; 158 push(de);
0287   B659 D5              push de
0288   B65A                 ; 159 e = ((a = e) -= c);
0289   B65A 7B              ld   a, e
0290   B65B 91              sub  c
0291   B65C 5F              ld   e, a
0292   B65D                 ; 160 d = ((a = d) -@= b);
0293   B65D 7A              ld   a, d
0294   B65E 98              sbc  b
0295   B65F 57              ld   d, a
0296   B660                 ; 161 if (flag_c)
0297   B660                 ; 162 {
0298   B660 D2 67 B6        jp   nc, l7014
0299   B663                 ; 163 pop(de);
0300   B663 D1              pop  de
0301   B664                 ; 164 continue;
0302   B664 C3 54 B6        jp l7012
0303   B667                 ; 165 }
0304   B667                 ; 166 hl++;
0305   B667             l7014: 
0306   B667 23              inc  hl
0307   B668                 ; 167 pop(bc);
0308   B668 C1              pop  bc
0309   B669                 ; 168 }
0310   B669 C3 54 B6        jp   l7012
0311   B66C             l7013: 
0312   B66C                 ; 169 }
0313   B66C C9              ret
0314   B66D             
0001   B66D                 savebin "city/city.C", begin, $ - begin ; city/city.asm city/city2.asm city/rand.asm levels/city1.asm levels/city1b.asm levels/city1s.asm city/state.asm city/tools.asm
0002   B66D             
