001   0000                 DEVICE ZXSPECTRUM128
002   0000             
003   0000                 include "../module.inc"
001+  0000             ;romAddr        = 0
002+  0000             ;screenAddr     = 4000h
003+  0000             ;cacheAddr      = 5B00h
004+  0000             
005+  0000             gPanelChanged1  = 0x5D80
006+  0000             gPanelChanged2  = 0x5D80 | 0x8000
007+  0000             
008+  0000             irqTableAddr      = 5F00h
009+  0000             irqAddr           = 6060h
010+  0000             stackBeginAddr    = 6001h
011+  0000             stackEndAddr      = 605Fh
012+  0000             baseAddr          = 6063h
013+  0000             moduleLoadAddr    = 7000h
014+  0000             moverAddr         = 8000h
015+  0000             
016+  0000             gEnd = baseAddr
017+  0000             
018+  0000             ; Функции
019+  0000             gDrawText         = gEnd
020+  0000             gEnd = gEnd + 3
021+  0000             gDrawTextCenter   = gEnd
022+  0000             gEnd = gEnd + 3
023+  0000             gDrawTextEx       = gEnd
024+  0000             gEnd = gEnd + 3
025+  0000             gClearScreen      = gEnd
026+  0000             gEnd = gEnd + 3
027+  0000             gDrawImage        = gEnd
028+  0000             gEnd = gEnd + 3
029+  0000             gMeasureText      = gEnd
030+  0000             gEnd = gEnd + 3
031+  0000             gCalcCoords       = gEnd
032+  0000             gEnd = gEnd + 3
033+  0000             gDrawCharSub      = gEnd
034+  0000             gEnd = gEnd + 3
035+  0000             gExec             = gEnd
036+  0000             gEnd = gEnd + 3
037+  0000             gIrqHandler       = gEnd
038+  0000             gEnd = gEnd + 3
039+  0000             gDrawPanel        = gEnd
040+  0000             gEnd = gEnd + 3
041+  0000             
042+  0000             ; Переменные
043+  0000             gFrame            = gEnd
044+  0000             gEnd = gEnd + 1
045+  0000             gVideoPage        = gEnd
046+  0000             gEnd = gEnd + 1
047+  0000             gSystemPage       = gEnd
048+  0000             gEnd = gEnd + 1
049+  0000             gKeyTrigger       = gEnd
050+  0000             gEnd = gEnd + 1
051+  0000             gKeyPressed       = gEnd
052+  0000             gEnd = gEnd + 1
053+  0000             gPlayerMoney      = gEnd
054+  0000             gEnd = gEnd + 2
055+  0000             
004   0000             
005   0000                 org moduleLoadAddr
006   7000             
007   7000             begin: 
008   7000 C3 22 94        jp main
001   7003             ; ZX Spectrum test (c) 30-10-2019 Alemorf aleksey.f.morozov@gmail.com
002   7003             
003   7003             intro: 
004   7003 11 94 70            LD     DE, introText0  ; Текст
005   7006 21 01 00            LD     HL, 1           ; Координаты текста (H=y,L=x)
006   7009 D9                  EXX
007   700A 11 00 58            LD     DE, 0x5800      ; Координаты Рейстлина (адрес в памяти атрубутов)
008   700D 21 05 89            LD     HL, image_rast  ; Рейстлин
009   7010 CD 26 70            CALL   introUniversal
010   7013             
011   7013 11 38 72            LD     DE, introText1  ; Текст
012   7016 21 00 00            LD     HL, 0           ; Координаты текста (H=y,L=x)
013   7019 D9                  EXX
014   701A 11 10 58            LD     DE, 0x5810      ; Координаты Такхизис (адрес в памяти атрубутов)
015   701D 21 83 7B            LD     HL, image_takh  ; Рейстлин
016   7020 CD 26 70            CALL   introUniversal
017   7023             
018   7023 C3 22 94            JP     main
019   7026             
020   7026             ;-------------------------------------------------------------------------------
021   7026             
022   7026             introUniversal: 
023   7026                     ; Сохраняем параметры изображения
024   7026 E5                  PUSH   HL
025   7027 D5                  PUSH   DE
026   7028             
027   7028                     ; Очистка экранов
028   7028 3E 45               LD     A, 45h
029   702A CD 6C 60            CALL   gClearScreen
030   702D             
031   702D                     ; Рисуем изображение
032   702D D1                  POP    DE
033   702E E1                  POP    HL
034   702F CD 6F 60            CALL   gDrawImage
035   7032             
036   7032                     ; Инициализация эффектов
037   7032 CD 34 93            CALL   sparkReset ; Сохраняет EXX, IX, IY
038   7035             
039   7035                     ; Цикл строк. Далее DE - текст, HL - координаты
040   7035 D9                  EXX
041   7036             intro_1: 
042   7036 E5                  PUSH   HL
043   7037             
044   7037                     ; Нужно ли прижать к правому краю?
045   7037 7D                  LD     A, L
046   7038 B7                  OR     A
047   7039 CA 46 70            JP     Z, intro_2
048   703C             
049   703C                     ; Вычисление ширины строки
050   703C D5                  PUSH   DE
051   703D CD 72 60            CALL   gMeasureText
052   7040 D1                  POP    DE
053   7041 E1                  POP    HL
054   7042 E5                  PUSH   HL
055   7043             
056   7043                     ; Вычисление координаты X первого символа
057   7043 AF                  XOR    A
058   7044 91                  SUB    C
059   7045 6F                  LD     L, A
060   7046             intro_2: 
061   7046             
062   7046                     ; Рисование строки
063   7046 CD 66 70            CALL   introDrawText
064   7049             
065   7049                     ; Следующая строка
066   7049 E1                  POP    HL
067   704A 7C                  LD     A, H
068   704B C6 0A               ADD    10
069   704D 67                  LD     H, A
070   704E             
071   704E                     ; Если это не последняя строка, то продолжим
072   704E 1A                  LD     A, (DE)
073   704F B7                  OR     A
074   7050 C2 36 70            JP     NZ, intro_1
075   7053             
076   7053                     ; Новые искры не создавать
077   7053 AF                  XOR    A
078   7054 32 FF F7            LD     (SPARK_INIT_X), A
079   7057             
080   7057             intro_4: 
081   7057                     ; Дожигаем существующие искры
082   7057 CD 42 93            CALL   sparkDo
083   705A             
084   705A                     ; Если не нажата ни одна клавиша, то продолжаем.
085   705A 01 FE 00            LD     BC, 000FEh
086   705D ED 78               IN     A, (C)
087   705F 2F                  CPL
088   7060 E6 1F               AND    1Fh
089   7062 CA 57 70            JP     Z, intro_4
090   7065             
091   7065 C9                  RET
092   7066             
093   7066             ;-------------------------------------------------------------------------------
094   7066             ; Вывод строки текста
095   7066             
096   7066             introDrawText: 
097   7066 7D                  LD     A, L
098   7067 32 FF F7            LD     (SPARK_INIT_X), A
099   706A 7C                  LD     A, H
100   706B 32 FE F7            LD     (SPARK_INIT_Y), A
101   706E CD 75 60            CALL   gCalcCoords
102   7071             introDrawText_1: 
103   7071 1A                  LD     A, (DE)
104   7072 13                  INC    DE
105   7073 B7                  OR     A
106   7074 C8                  RET    Z
107   7075             
108   7075                     ; Анимация
109   7075 CD 85 70            CALL   intro_3
110   7078             
111   7078 CD 78 60            CALL   gDrawCharSub
112   707B             
113   707B                     ; Перемещаем и искру
114   707B 3A FF F7            LD     A, (SPARK_INIT_X)
115   707E 80                  ADD    B
116   707F 32 FF F7            LD     (SPARK_INIT_X), A
117   7082             
118   7082 C3 71 70            JP     introDrawText_1
119   7085             
120   7085             ;-------------------------------------------------------------------------------
121   7085             
122   7085             intro_3: 
123   7085                     ; Анимация
124   7085 F5                  PUSH   AF
125   7086 C5                  PUSH   BC
126   7087 D5                  PUSH   DE
127   7088 E5                  PUSH   HL
128   7089 CD 42 93            CALL   sparkDo
129   708C CD 42 93            CALL   sparkDo
130   708F E1                  POP    HL
131   7090 D1                  POP    DE
132   7091 C1                  POP    BC
133   7092 F1                  POP    AF
134   7093 C9                  RET
135   7094             
136   7094             ;-------------------------------------------------------------------------------
137   7094             
138   7094             introText0: 
139   7094                     db "Величайший маг Рейстлин Маджере", 0
139   7094 C2E5EBE8F7E0E9F8E8E920ECE0E320D0E5E9F1F2EBE8ED20CCE0E4E6E5F0E500
140   70B4                     db "- перед этим именем трепетали", 0
140   70B4 2D20EFE5F0E5E420FDF2E8EC20E8ECE5EDE5EC20F2F0E5EFE5F2E0EBE800
141   70D2                     db "самые искушенные чародеи.", 0
141   70D2 F1E0ECFBE520E8F1EAF3F8E5EDEDFBE520F7E0F0EEE4E5E82E00
142   70EC                     db "Никто из живущих не знал", 0
142   70EC CDE8EAF2EE20E8E720E6E8E2F3F9E8F520EDE520E7EDE0EB00
143   7105                     db "пределов его могущества!", 0
143   7105 EFF0E5E4E5EBEEE220E5E3EE20ECEEE3F3F9E5F1F2E2E02100
144   711E 20 00               db " ", 0
145   7120                     db "Однажды из Бездны вырвалась", 0
145   7120 CEE4EDE0E6E4FB20E8E720C1E5E7E4EDFB20E2FBF0E2E0EBE0F1FC00
146   713C                     db "злая богиня Такхизис. Самые", 0
146   713C E7EBE0FF20E1EEE3E8EDFF20D2E0EAF5E8E7E8F12E20D1E0ECFBE500
147   7158                     db "жуткие кошмары людей стали", 0
147   7158 E6F3F2EAE8E520EAEEF8ECE0F0FB20EBFEE4E5E920F1F2E0EBE800
148   7173                     db "явью. Армии мертвецов сжигали", 0
148   7173 FFE2FCFE2E20C0F0ECE8E820ECE5F0F2E2E5F6EEE220F1E6E8E3E0EBE800
149   7191                     db "города дотла не оставляя живых.", 0
149   7191 E3EEF0EEE4E020E4EEF2EBE020EDE520EEF1F2E0E2EBFFFF20E6E8E2FBF52E00
150   71B1 20 00               db " ", 0
151   71B3                     db "Рейстлин присягнул на верность", 0
151   71B3 D0E5E9F1F2EBE8ED20EFF0E8F1FFE3EDF3EB20EDE020E2E5F0EDEEF1F2FC00
152   71D2                     db "Такхизис и возглавил ее армию.", 0
152   71D2 D2E0EAF5E8E7E8F120E820E2EEE7E3EBE0E2E8EB20E5E520E0F0ECE8FE2E00
153   71F1                     db "Каждый белый маг поклялся", 0
153   71F1 CAE0E6E4FBE920E1E5EBFBE920ECE0E320EFEEEAEBFFEBF1FF00
154   720B                     db "убить его за это.", 0
154   720B F3E1E8F2FC20E5E3EE20E7E020FDF2EE2E00
155   721D 20 00               db " ", 0
156   721F                     db "(Нажмите любую клавишу)", 0
156   721F 28CDE0E6ECE8F2E520EBFEE1F3FE20EAEBE0E2E8F8F32900
157   7237 00                  db 0
158   7238             
159   7238             ;-------------------------------------------------------------------------------
160   7238             
161   7238             introText1: 
162   7238                     db "Никто не знал истинных мотивов", 0
162   7238 CDE8EAF2EE20EDE520E7EDE0EB20E8F1F2E8EDEDFBF520ECEEF2E8E2EEE200
163   7257                     db "Рейстлина. Доказав Такхизис свою", 0
163   7257 D0E5E9F1F2EBE8EDE02E20C4EEEAE0E7E0E220D2E0EAF5E8E7E8F120F1E2EEFE
163   7277 00
164   7278                     db "преданность и дождавшись момента,", 0
164   7278 EFF0E5E4E0EDEDEEF1F2FC20E820E4EEE6E4E0E2F8E8F1FC20ECEEECE5EDF2E0
164   7298 2C00
165   729A                     db "Рейстлин нанес удар ей в спину.", 0
165   729A D0E5E9F1F2EBE8ED20EDE0EDE5F120F3E4E0F020E5E920E220F1EFE8EDF32E00
166   72BA                     db "Он изгнал ее в Бездну и", 0
166   72BA CEED20E8E7E3EDE0EB20E5E520E220C1E5E7E4EDF320E800
167   72D2                     db "навсегда закрыл Врата.", 0
167   72D2 EDE0E2F1E5E3E4E020E7E0EAF0FBEB20C2F0E0F2E02E00
168   72E9 20 00               db " ", 0
169   72EB                     db "И теперь каждый черный маг", 0
169   72EB C820F2E5EFE5F0FC20EAE0E6E4FBE920F7E5F0EDFBE920ECE0E300
170   7306                     db "поклялся убить его. Белые", 0
170   7306 EFEEEAEBFFEBF1FF20F3E1E8F2FC20E5E3EE2E20C1E5EBFBE500
171   7320                     db "же маги его не простили.", 0
171   7320 E6E520ECE0E3E820E5E3EE20EDE520EFF0EEF1F2E8EBE82E00
172   7339 20 00               db " ", 0
173   733B                     db "За магические знания позволившие", 0
173   733B C7E020ECE0E3E8F7E5F1EAE8E520E7EDE0EDE8FF20EFEEE7E2EEEBE8E2F8E8E5
173   735B 00
174   735C                     db "спасти мир Рейстлин заплатил своим", 0
174   735C F1EFE0F1F2E820ECE8F020D0E5E9F1F2EBE8ED20E7E0EFEBE0F2E8EB20F1E2EE
174   737C E8EC00
175   737F                     db "здоровьем. Он был болен и", 0
175   737F E7E4EEF0EEE2FCE5EC2E20CEED20E1FBEB20E1EEEBE5ED20E800
176   7399                     db "чувствовал, что его время уходит.", 0
176   7399 F7F3E2F1F2E2EEE2E0EB2C20F7F2EE20E5E3EE20E2F0E5ECFF20F3F5EEE4E8F2
176   73B9 2E00
177   73BB                     db "Но он знал как все исправить.", 0
177   73BB CDEE20EEED20E7EDE0EB20EAE0EA20E2F1E520E8F1EFF0E0E2E8F2FC2E00
178   73D9                     db "Если он спустится в Бездну", 0
178   73D9 C5F1EBE820EEED20F1EFF3F1F2E8F2F1FF20E220C1E5E7E4EDF300
179   73F4                     db "и убьет Такхизис, то он сам", 0
179   73F4 E820F3E1FCE5F220D2E0EAF5E8E7E8F12C20F2EE20EEED20F1E0EC00
180   7410                     db "станет богом.", 0
180   7410 F1F2E0EDE5F220E1EEE3EEEC2E00
181   741E 00                  db 0
182   741F             
001   741F             image_logo: 
002   741F                 ; Width, height
003   741F 1E 07           db 30, 7
004   7421                 ; Black & white
005   7421                 db 000h, 000h, 000h, 000h, 000h, 000h, 000h, 000h, 000h, 000h, 000h, 000h, 000h, 000h, 000h, 000h, 000h, 000h, 000h, 000h, 000h, 000h, 000h, 000h, 000h, 000h, 000h, 000h, 000h, 000h ; 0
005   7421 000000000000000000000000000000000000000000000000000000000000
006   743F                 db 000h, 000h, 000h, 000h, 000h, 000h, 000h, 000h, 000h, 000h, 000h, 000h, 000h, 000h, 000h, 000h, 000h, 000h, 000h, 000h, 000h, 000h, 000h, 000h, 000h, 000h, 000h, 000h, 000h, 000h
006   743F 000000000000000000000000000000000000000000000000000000000000
007   745D                 db 000h, 000h, 000h, 000h, 000h, 000h, 000h, 000h, 000h, 000h, 000h, 000h, 000h, 000h, 000h, 000h, 000h, 000h, 000h, 000h, 000h, 000h, 000h, 000h, 000h, 000h, 000h, 000h, 000h, 000h
007   745D 000000000000000000000000000000000000000000000000000000000000
008   747B                 db 000h, 000h, 000h, 000h, 000h, 000h, 000h, 000h, 000h, 000h, 010h, 000h, 000h, 000h, 000h, 000h, 000h, 000h, 000h, 002h, 000h, 000h, 000h, 000h, 000h, 000h, 000h, 000h, 000h, 000h
008   747B 000000000000000000001000000000000000000200000000000000000000
009   7499                 db 000h, 000h, 000h, 000h, 000h, 000h, 000h, 000h, 000h, 000h, 038h, 000h, 000h, 000h, 000h, 000h, 000h, 000h, 000h, 007h, 000h, 000h, 000h, 000h, 000h, 000h, 000h, 000h, 000h, 000h
009   7499 000000000000000000003800000000000000000700000000000000000000
010   74B7                 db 000h, 000h, 000h, 000h, 000h, 000h, 000h, 000h, 000h, 000h, 07Ch, 000h, 000h, 000h, 000h, 000h, 000h, 000h, 000h, 00Fh, 080h, 000h, 000h, 000h, 000h, 000h, 000h, 000h, 000h, 000h
010   74B7 000000000000000000007C00000000000000000F80000000000000000000
011   74D5                 db 000h, 000h, 000h, 000h, 000h, 000h, 000h, 000h, 000h, 000h, 0EEh, 000h, 000h, 000h, 000h, 000h, 000h, 000h, 000h, 01Dh, 0C0h, 000h, 000h, 000h, 000h, 000h, 000h, 000h, 000h, 000h
011   74D5 00000000000000000000EE00000000000000001DC0000000000000000000
012   74F3                 db 000h, 000h, 000h, 000h, 000h, 000h, 000h, 000h, 000h, 001h, 0C7h, 000h, 000h, 000h, 000h, 000h, 000h, 000h, 000h, 038h, 0E0h, 000h, 000h, 000h, 000h, 000h, 000h, 000h, 000h, 000h
012   74F3 00000000000000000001C7000000000000000038E0000000000000000000
013   7511                 db 000h, 000h, 000h, 000h, 000h, 000h, 000h, 000h, 000h, 000h, 0EEh, 000h, 000h, 000h, 000h, 000h, 000h, 000h, 000h, 01Dh, 0C0h, 000h, 000h, 000h, 000h, 000h, 000h, 000h, 000h, 000h ; 1
013   7511 00000000000000000000EE00000000000000001DC0000000000000000000
014   752F                 db 000h, 000h, 000h, 000h, 000h, 000h, 000h, 000h, 000h, 000h, 05Dh, 0FFh, 0FFh, 0FFh, 0FFh, 0FFh, 0FFh, 0FFh, 0FFh, 0EEh, 080h, 000h, 000h, 000h, 000h, 000h, 000h, 000h, 000h, 000h
014   752F 000000000000000000005DFFFFFFFFFFFFFFFFEE80000000000000000000
015   754D                 db 000h, 000h, 000h, 000h, 000h, 000h, 000h, 000h, 000h, 000h, 03Bh, 0FFh, 0FFh, 0FFh, 0FFh, 0FFh, 0FFh, 0FFh, 0FFh, 0F7h, 000h, 000h, 000h, 000h, 000h, 000h, 000h, 000h, 000h, 000h
015   754D 000000000000000000003BFFFFFFFFFFFFFFFFF700000000000000000000
016   756B                 db 000h, 000h, 000h, 000h, 000h, 000h, 000h, 000h, 000h, 000h, 070h, 000h, 000h, 000h, 000h, 000h, 000h, 000h, 000h, 003h, 080h, 000h, 000h, 000h, 000h, 000h, 000h, 000h, 000h, 000h
016   756B 000000000000000000007000000000000000000380000000000000000000
017   7589                 db 000h, 000h, 000h, 000h, 000h, 000h, 000h, 000h, 000h, 000h, 0EFh, 0FFh, 0FFh, 0FFh, 0FFh, 0FFh, 0FFh, 0FFh, 0FFh, 0FDh, 0C0h, 000h, 000h, 000h, 000h, 000h, 000h, 000h, 000h, 000h
017   7589 00000000000000000000EFFFFFFFFFFFFFFFFFFDC0000000000000000000
018   75A7                 db 000h, 000h, 000h, 000h, 000h, 000h, 000h, 000h, 000h, 001h, 0DFh, 0FFh, 0FEh, 007h, 0FFh, 0FFh, 0FFh, 0FFh, 0FFh, 0FEh, 0E0h, 000h, 000h, 000h, 000h, 000h, 000h, 000h, 000h, 000h
018   75A7 00000000000000000001DFFFFE07FFFFFFFFFFFEE0000000000000000000
019   75C5                 db 000h, 000h, 000h, 000h, 000h, 000h, 000h, 000h, 000h, 003h, 0BFh, 0FFh, 0FCh, 003h, 0FFh, 0FFh, 0FFh, 0FFh, 0FFh, 0FFh, 070h, 000h, 000h, 000h, 000h, 000h, 000h, 000h, 000h, 000h
019   75C5 00000000000000000003BFFFFC03FFFFFFFFFFFF70000000000000000000
020   75E3                 db 000h, 000h, 000h, 000h, 000h, 000h, 000h, 000h, 000h, 007h, 07Fh, 0FFh, 0FCh, 0F3h, 0FCh, 00Ch, 0FFh, 0FFh, 0FFh, 0FFh, 0B8h, 000h, 000h, 000h, 000h, 000h, 000h, 000h, 000h, 000h
020   75E3 000000000000000000077FFFFCF3FC0CFFFFFFFFB8000000000000000000
021   7601                 db 000h, 000h, 001h, 0FFh, 0FFh, 0FFh, 0FFh, 0FFh, 0FFh, 0FEh, 000h, 000h, 0FCh, 0F3h, 0FEh, 063h, 0FFh, 0FFh, 000h, 000h, 0DFh, 0FFh, 0FFh, 0FFh, 0FFh, 0FFh, 0FFh, 0FCh, 000h, 000h ; 2
021   7601 000001FFFFFFFFFFFFFE0000FCF3FE63FFFF0000DFFFFFFFFFFFFFFC0000
022   761F                 db 000h, 000h, 003h, 0FFh, 0FFh, 0FFh, 0FFh, 0FFh, 0FFh, 0FDh, 000h, 000h, 0FEh, 007h, 0FFh, 03Fh, 0FFh, 0FFh, 000h, 000h, 0EFh, 0FFh, 0FFh, 0FFh, 0FFh, 0FFh, 0FFh, 0FEh, 000h, 000h
022   761F 000003FFFFFFFFFFFFFD0000FE07FF3FFFFF0000EFFFFFFFFFFFFFFE0000
023   763D                 db 000h, 000h, 006h, 000h, 000h, 000h, 000h, 000h, 000h, 003h, 000h, 000h, 0FCh, 0F3h, 0F0h, 01Bh, 09Ah, 04Fh, 000h, 000h, 0F0h, 000h, 000h, 000h, 000h, 000h, 000h, 007h, 000h, 000h
023   763D 000006000000000000030000FCF3F01B9A4F0000F0000000000000070000
024   765B                 db 000h, 000h, 00Dh, 0FFh, 0FFh, 0FFh, 0FFh, 0FFh, 0FFh, 0FFh, 000h, 000h, 0FCh, 0F3h, 0E7h, 093h, 099h, 027h, 000h, 000h, 0FFh, 0FFh, 0FFh, 0FFh, 0FFh, 0FFh, 0FFh, 0FBh, 080h, 000h
024   765B 00000DFFFFFFFFFFFFFF0000FCF3E79399270000FFFFFFFFFFFFFFFB8000
025   7679                 db 01Eh, 000h, 01Bh, 0FFh, 0FFh, 0FFh, 0FFh, 0FFh, 0FFh, 0FFh, 000h, 000h, 0FCh, 003h, 0E3h, 091h, 099h, 027h, 000h, 000h, 0FFh, 0FFh, 0FFh, 0FFh, 0FFh, 0FFh, 0FFh, 0FDh, 0C0h, 000h
025   7679 1E001BFFFFFFFFFFFFFF0000FC03E39199270000FFFFFFFFFFFFFFFDC000
026   7697                 db 07Fh, 000h, 03Fh, 0FFh, 0FFh, 0FFh, 0FFh, 0FFh, 0FFh, 0FFh, 000h, 000h, 0FEh, 007h, 0F0h, 038h, 029h, 033h, 000h, 000h, 0FFh, 0FFh, 0FFh, 0FFh, 0FFh, 0FFh, 0FFh, 0FEh, 0E0h, 000h
026   7697 7F003FFFFFFFFFFFFFFF0000FE07F03829330000FFFFFFFFFFFFFFFEE000
027   76B5                 db 07Fh, 040h, 07Fh, 0FFh, 0FFh, 0FFh, 0FFh, 0FFh, 0FFh, 0FFh, 000h, 000h, 0FFh, 0FFh, 0FFh, 0FFh, 0FFh, 0FFh, 000h, 000h, 0FFh, 0FFh, 0FFh, 0FFh, 0FFh, 0FFh, 0FFh, 0FFh, 070h, 000h
027   76B5 7F407FFFFFFFFFFFFFFF0000FFFFFFFFFFFF0000FFFFFFFFFFFFFFFF7000
028   76D3                 db 0FEh, 070h, 0FFh, 0FFh, 0FFh, 0FFh, 0FFh, 0FFh, 0FFh, 0FFh, 000h, 000h, 0FFh, 0FFh, 0FFh, 0FFh, 0FFh, 0FFh, 000h, 000h, 0FFh, 0FFh, 0FFh, 0FFh, 0FFh, 0FFh, 0FFh, 0FFh, 0B8h, 000h
028   76D3 FE70FFFFFFFFFFFFFFFF0000FFFFFFFFFFFF0000FFFFFFFFFFFFFFFFB800
029   76F1                 db 0FEh, 03Dh, 0E0h, 000h, 007h, 024h, 080h, 000h, 000h, 000h, 000h, 092h, 049h, 000h, 0F0h, 00Fh, 0F7h, 000h, 000h, 000h, 000h, 000h, 000h, 000h, 000h, 000h, 000h, 03Fh, 0DCh, 000h ; 3
029   76F1 FE3DE00007248000000000924900F00FF7000000000000000000003FDC00
030   770F                 db 0FCh, 03Bh, 0C0h, 000h, 01Fh, 012h, 040h, 000h, 000h, 000h, 000h, 049h, 024h, 080h, 0E0h, 01Fh, 0E7h, 000h, 000h, 000h, 000h, 000h, 000h, 000h, 000h, 000h, 000h, 03Fh, 0EEh, 000h
030   770F FC3BC0001F124000000000492480E01FE7000000000000000000003FEE00
031   772D                 db 0F8h, 077h, 0C0h, 000h, 07Fh, 0FFh, 0FFh, 0FFh, 0F8h, 07Fh, 0FFh, 0FFh, 0FFh, 0FFh, 0C0h, 03Fh, 0C7h, 0FFh, 0FFh, 0FFh, 0FFh, 0FFh, 0FFh, 0FFh, 0FFh, 0FFh, 0FFh, 0FFh, 0F7h, 000h
031   772D F877C0007FFFFFFFF87FFFFFFFFFC03FC7FFFFFFFFFFFFFFFFFFFFFFF700
032   774B                 db 060h, 04Eh, 0FCh, 07Fh, 0FFh, 0FFh, 0FFh, 0FFh, 0F1h, 0FFh, 0FFh, 0FFh, 0FFh, 0FFh, 0FFh, 03Fh, 087h, 0FFh, 0FFh, 0FFh, 0FFh, 0FFh, 0FFh, 0FFh, 0FFh, 0FFh, 0FFh, 0FFh, 0FBh, 080h
032   774B 604EFC7FFFFFFFFFF1FFFFFFFFFFFF3F87FFFFFFFFFFFFFFFFFFFFFFFB80
033   7769                 db 071h, 01Dh, 0F8h, 0FFh, 0FFh, 0FFh, 0FFh, 0FFh, 0F1h, 0FFh, 0FFh, 0FFh, 0FFh, 0FFh, 0FEh, 07Fh, 0C7h, 0FFh, 0FFh, 0FFh, 0FFh, 0FFh, 0FFh, 0FFh, 0FFh, 0FFh, 0FFh, 0FFh, 0FDh, 0C0h
033   7769 711DF8FFFFFFFFFFF1FFFFFFFFFFFE7FC7FFFFFFFFFFFFFFFFFFFFFFFDC0
034   7787                 db 01Eh, 03Bh, 0F1h, 0FBh, 0FFh, 0FFh, 0FFh, 0FFh, 0F0h, 0FFh, 0FFh, 0FFh, 0FFh, 0FFh, 0FCh, 07Fh, 0C7h, 0FFh, 0FFh, 0FFh, 0FFh, 0FFh, 0FFh, 0FFh, 0FFh, 0FFh, 0FFh, 0FFh, 0FEh, 0E0h
034   7787 1E3BF1FBFFFFFFFFF0FFFFFFFFFFFC7FC7FFFFFFFFFFFFFFFFFFFFFFFEE0
035   77A5                 db 000h, 077h, 0E3h, 0F3h, 0FFh, 0FFh, 0FFh, 0FFh, 0F8h, 03Fh, 0FFh, 0FFh, 0FFh, 0FFh, 0FCh, 0FFh, 0C7h, 0FFh, 0FFh, 0FFh, 0FFh, 0FFh, 0FFh, 0FFh, 0FFh, 0FFh, 0FFh, 0FFh, 0FFh, 070h
035   77A5 0077E3F3FFFFFFFFF83FFFFFFFFFFCFFC7FFFFFFFFFFFFFFFFFFFFFFFF70
036   77C3                 db 000h, 0EFh, 0C7h, 0F3h, 0FFh, 0FFh, 0FFh, 0FFh, 0FEh, 00Fh, 0FFh, 0FFh, 0FFh, 0FFh, 0F8h, 0FFh, 0C7h, 0FFh, 0FFh, 0FFh, 0FFh, 0FFh, 0FFh, 0FFh, 0FFh, 0FFh, 0FFh, 0FFh, 0FFh, 0B8h
036   77C3 00EFC7F3FFFFFFFFFE0FFFFFFFFFF8FFC7FFFFFFFFFFFFFFFFFFFFFFFFB8
037   77E1                 db 001h, 0DFh, 0C7h, 0E3h, 0FFh, 0FFh, 0FFh, 0FFh, 0FFh, 0C3h, 0FFh, 0FFh, 0FFh, 0FFh, 0F9h, 000h, 0C7h, 0FFh, 0FFh, 0FFh, 0FFh, 0FFh, 0FFh, 0FFh, 0FFh, 0FFh, 0FFh, 0FFh, 0FFh, 0DCh ; 4
037   77E1 01DFC7E3FFFFFFFFFFC3FFFFFFFFF900C7FFFFFFFFFFFFFFFFFFFFFFFFDC
038   77FF                 db 003h, 0BFh, 087h, 0E7h, 0C1h, 0F0h, 07Ch, 07Ch, 00Fh, 0A1h, 0CFh, 0DCh, 00Fh, 003h, 0F1h, 000h, 0C7h, 0E0h, 0CCh, 03Eh, 0FCh, 0E1h, 0E3h, 01Fh, 0CFh, 0D8h, 0F9h, 0E0h, 07Fh, 0EEh
038   77FF 03BF87E7C1F07C7C0FA1CFDC0F03F100C7E0CC3EFCE1E31FCFD8F9E07FEE
039   781D                 db 003h, 0BFh, 08Fh, 0E7h, 098h, 0E7h, 030h, 038h, 046h, 038h, 08Fh, 098h, 046h, 011h, 0F1h, 000h, 0C7h, 0CEh, 000h, 01Ch, 0FCh, 0C0h, 006h, 00Fh, 08Fh, 09Ch, 0F9h, 0C2h, 03Fh, 0EEh
039   781D 03BF8FE798E7303846388F984611F100C7CE001CFCC0060F8F9CF9C23FEE
040   783B                 db 001h, 0DFh, 00Fh, 0E7h, 01Ch, 04Fh, 062h, 031h, 0E4h, 07Ch, 0CFh, 091h, 0E4h, 079h, 0F1h, 000h, 0C7h, 09Eh, 0E3h, 08Ch, 08Eh, 07Ch, 01Dh, 0C7h, 0CFh, 09Dh, 0F9h, 08Fh, 03Fh, 0DCh
040   783B 01DF0FE71C4F6231E47CCF91E479F100C79EE38C8E7C1DC7CF9DF98F3FDC
041   7859                 db 000h, 0EFh, 00Fh, 0C7h, 01Eh, 00Fh, 0E7h, 011h, 0E4h, 0FCh, 04Fh, 091h, 0E4h, 079h, 0E1h, 000h, 0C7h, 01Fh, 0E7h, 08Ch, 006h, 07Bh, 0FFh, 087h, 0CFh, 09Dh, 0F9h, 08Fh, 03Fh, 0B8h
041   7859 00EF0FC71E0FE711E4FC4F91E479E100C71FE78C067BFF87CF9DF98F3FB8
042   7877                 db 000h, 077h, 00Fh, 0C7h, 01Eh, 00Fh, 0C7h, 010h, 00Ch, 0FEh, 043h, 090h, 00Ch, 003h, 0E3h, 000h, 0C7h, 01Fh, 0E7h, 0CCh, 0E2h, 073h, 0FFh, 003h, 0C3h, 099h, 0F9h, 080h, 07Fh, 070h
042   7877 00770FC71E0FC7100CFE43900C03E300C71FE7CCE273FF03C399F9807F70
043   7895                 db 000h, 03Bh, 00Fh, 0C7h, 01Fh, 00Fh, 0C7h, 091h, 0FCh, 07Eh, 041h, 091h, 0FCh, 07Fh, 0E3h, 000h, 0C7h, 01Fh, 0E7h, 0CCh, 0F2h, 073h, 0FEh, 023h, 0C1h, 099h, 0F9h, 08Fh, 0FEh, 0E0h
043   7895 003B0FC71F0FC791FC7E4191FC7FE300C71FE7CCF273FE23C199F98FFEE0
044   78B3                 db 000h, 01Dh, 00Fh, 0C7h, 01Fh, 00Fh, 0E7h, 091h, 0FCh, 07Eh, 048h, 091h, 0FCh, 07Fh, 0E3h, 000h, 0C7h, 01Fh, 0E7h, 0CCh, 0F2h, 063h, 0FEh, 071h, 0C8h, 099h, 0F9h, 08Fh, 0FDh, 0C0h
044   78B3 001D0FC71F0FE791FC7E4891FC7FE300C71FE7CCF263FE71C899F98FFDC0
045   78D1                 db 000h, 00Eh, 007h, 0C7h, 00Fh, 007h, 0E3h, 098h, 0FEh, 03Eh, 04Eh, 018h, 0FEh, 03Fh, 0C3h, 0FFh, 0C7h, 00Fh, 0E7h, 0CCh, 0F2h, 071h, 0FCh, 0F8h, 0CEh, 018h, 0F9h, 0C7h, 0FBh, 080h ; 5
045   78D1 000E07C70F07E398FE3E4E18FE3FC3FFC70FE7CCF271FCF8CE18F9C7FB80
046   78EF                 db 000h, 007h, 087h, 0C7h, 087h, 043h, 0E3h, 098h, 07Eh, 00Ch, 0CFh, 018h, 07Eh, 01Fh, 0C3h, 0FFh, 0C7h, 087h, 0E7h, 0CCh, 0E2h, 070h, 019h, 080h, 04Fh, 018h, 060h, 0C3h, 0F7h, 000h
046   78EF 000787C78743E3987E0CCF187E1FC3FFC787E7CCE27019804F1860C3F700
047   790D                 db 000h, 003h, 083h, 0C3h, 0C0h, 0E0h, 067h, 09Ch, 007h, 001h, 0CFh, 01Ch, 007h, 001h, 0C1h, 0FFh, 0C7h, 0C0h, 0E7h, 0CCh, 006h, 078h, 038h, 03Ch, 04Fh, 01Ch, 008h, 060h, 02Eh, 000h
047   790D 000383C3C0E0679C0701CF1C0701C1FFC7C0E7CC0678383C4F1C08602E00
048   792B                 db 000h, 001h, 0C1h, 0E3h, 0E1h, 0F9h, 0CFh, 03Fh, 01Fh, 0C3h, 0DFh, 0BFh, 01Fh, 0C7h, 0E0h, 0FFh, 087h, 0F3h, 0EFh, 0DDh, 00Eh, 0FCh, 079h, 0FCh, 05Fh, 0BEh, 019h, 0F8h, 0DCh, 000h
048   792B 0001C1E3E1F9CF3F1FC3DFBF1FC7E0FF87F3EFDD0EFC79FC5FBE19F8DC00
049   7949                 db 000h, 000h, 081h, 0E0h, 0FFh, 0FFh, 0FFh, 0FFh, 0FFh, 0FFh, 0FFh, 0FFh, 0FFh, 0FFh, 0E0h, 0FFh, 087h, 0FFh, 0FFh, 0FFh, 0FFh, 0FFh, 0FFh, 0FFh, 0FFh, 0FFh, 0FFh, 0FFh, 0B8h, 000h
049   7949 000081E0FFFFFFFFFFFFFFFFFFFFE0FF87FFFFFFFFFFFFFFFFFFFFFFB800
050   7967                 db 000h, 000h, 003h, 0E0h, 080h, 000h, 000h, 000h, 000h, 000h, 000h, 000h, 000h, 001h, 0E0h, 03Ch, 003h, 0C0h, 000h, 000h, 000h, 000h, 000h, 000h, 000h, 000h, 000h, 0FFh, 070h, 000h
050   7967 000003E080000000000000000001E03C03C0000000000000000000FF7000
051   7985                 db 000h, 000h, 007h, 0E0h, 0FFh, 0FFh, 0FFh, 0FFh, 0FFh, 0FFh, 0FFh, 0FFh, 0FFh, 0FFh, 0F0h, 000h, 001h, 0FFh, 0FFh, 0FFh, 0FFh, 0FFh, 0FFh, 0FFh, 0FFh, 0FFh, 0FFh, 07Eh, 0E0h, 000h
051   7985 000007E0FFFFFFFFFFFFFFFFFFFFF00001FFFFFFFFFFFFFFFFFFFF7EE000
052   79A3                 db 000h, 000h, 00Fh, 0F0h, 0FFh, 0FFh, 0FFh, 0FFh, 0FFh, 0FFh, 0FFh, 0FFh, 0FFh, 0FFh, 0F0h, 000h, 060h, 07Fh, 0FFh, 0FFh, 0FFh, 0FFh, 0FFh, 0FFh, 0FFh, 0FFh, 0FFh, 0BDh, 0C0h, 000h
052   79A3 00000FF0FFFFFFFFFFFFFFFFFFFFF000607FFFFFFFFFFFFFFFFFFFBDC000
053   79C1                 db 000h, 000h, 00Eh, 07Ch, 000h, 000h, 000h, 000h, 000h, 000h, 000h, 000h, 000h, 000h, 007h, 0FEh, 00Fh, 080h, 000h, 000h, 000h, 000h, 000h, 000h, 000h, 000h, 001h, 0DBh, 080h, 000h ; 6
053   79C1 00000E7C0000000000000000000007FE0F80000000000000000001DB8000
054   79DF                 db 000h, 000h, 007h, 0F8h, 000h, 000h, 000h, 000h, 000h, 000h, 000h, 000h, 000h, 000h, 001h, 0F8h, 004h, 000h, 000h, 000h, 000h, 000h, 000h, 000h, 000h, 000h, 000h, 0E7h, 000h, 000h
054   79DF 000007F80000000000000000000001F80400000000000000000000E70000
055   79FD                 db 000h, 000h, 003h, 0F0h, 000h, 000h, 000h, 000h, 000h, 000h, 000h, 000h, 000h, 000h, 000h, 000h, 000h, 000h, 000h, 000h, 000h, 000h, 000h, 000h, 000h, 000h, 000h, 07Eh, 000h, 000h
055   79FD 000003F000000000000000000000000000000000000000000000007E0000
056   7A1B                 db 000h, 000h, 001h, 0E0h, 000h, 000h, 000h, 000h, 000h, 000h, 000h, 000h, 000h, 000h, 000h, 000h, 000h, 000h, 000h, 000h, 000h, 000h, 000h, 000h, 000h, 000h, 000h, 03Ch, 000h, 000h
056   7A1B 000001E000000000000000000000000000000000000000000000003C0000
057   7A39                 db 000h, 000h, 000h, 0C0h, 000h, 000h, 000h, 000h, 000h, 000h, 000h, 000h, 000h, 000h, 000h, 000h, 000h, 000h, 000h, 000h, 000h, 000h, 000h, 000h, 000h, 000h, 000h, 018h, 000h, 000h
057   7A39 000000C00000000000000000000000000000000000000000000000180000
058   7A57                 db 000h, 000h, 000h, 000h, 000h, 000h, 000h, 000h, 000h, 000h, 000h, 000h, 000h, 000h, 000h, 000h, 000h, 000h, 000h, 000h, 000h, 000h, 000h, 000h, 000h, 000h, 000h, 000h, 000h, 000h
058   7A57 000000000000000000000000000000000000000000000000000000000000
059   7A75                 db 000h, 000h, 000h, 000h, 000h, 000h, 000h, 000h, 000h, 000h, 000h, 000h, 000h, 000h, 000h, 000h, 000h, 000h, 000h, 000h, 000h, 000h, 000h, 000h, 000h, 000h, 000h, 000h, 000h, 000h
059   7A75 000000000000000000000000000000000000000000000000000000000000
060   7A93                 db 000h, 000h, 000h, 000h, 000h, 000h, 000h, 000h, 000h, 000h, 000h, 000h, 000h, 000h, 000h, 000h, 000h, 000h, 000h, 000h, 000h, 000h, 000h, 000h, 000h, 000h, 000h, 000h, 000h, 000h
060   7A93 000000000000000000000000000000000000000000000000000000000000
061   7AB1                 ; Color attributes
062   7AB1                 db 000h, 000h, 000h, 000h, 000h, 000h, 000h, 000h, 000h, 047h, 047h, 000h, 000h, 000h, 000h, 000h, 000h, 000h, 000h, 047h, 047h, 000h, 000h, 000h, 000h, 000h, 000h, 000h, 000h, 000h ; 0
062   7AB1 000000000000000000474700000000000000004747000000000000000000
063   7ACF                 db 000h, 000h, 000h, 000h, 000h, 000h, 000h, 000h, 000h, 047h, 047h, 047h, 047h, 047h, 047h, 047h, 047h, 047h, 047h, 047h, 047h, 000h, 000h, 000h, 000h, 000h, 000h, 000h, 000h, 000h ; 1
063   7ACF 000000000000000000474747474747474747474747000000000000000000
064   7AED                 db 041h, 047h, 047h, 047h, 047h, 047h, 047h, 047h, 047h, 047h, 07Fh, 07Fh, 047h, 047h, 047h, 047h, 047h, 047h, 07Fh, 07Fh, 047h, 047h, 047h, 047h, 047h, 047h, 047h, 047h, 047h, 000h ; 2
064   7AED 414747474747474747477F7F4747474747477F7F47474747474747474700
065   7B0B                 db 041h, 047h, 057h, 057h, 057h, 047h, 047h, 047h, 047h, 047h, 047h, 047h, 047h, 047h, 057h, 057h, 057h, 047h, 047h, 047h, 047h, 047h, 047h, 047h, 047h, 047h, 047h, 047h, 047h, 047h ; 3
065   7B0B 414757575747474747474747474757575747474747474747474747474747
066   7B29                 db 046h, 046h, 056h, 056h, 046h, 046h, 046h, 046h, 046h, 046h, 046h, 046h, 046h, 046h, 056h, 076h, 056h, 046h, 046h, 046h, 046h, 046h, 046h, 046h, 046h, 046h, 046h, 046h, 046h, 046h ; 4
066   7B29 464656564646464646464646464656765646464646464646464646464646
067   7B47                 db 000h, 046h, 056h, 056h, 046h, 046h, 046h, 046h, 046h, 046h, 046h, 046h, 046h, 046h, 056h, 056h, 056h, 046h, 046h, 046h, 046h, 046h, 046h, 046h, 046h, 046h, 046h, 046h, 046h, 046h ; 5
067   7B47 004656564646464646464646464656565646464646464646464646464646
068   7B65                 db 000h, 000h, 046h, 046h, 000h, 000h, 000h, 000h, 000h, 000h, 000h, 000h, 000h, 000h, 042h, 042h, 042h, 042h, 000h, 000h, 000h, 000h, 000h, 000h, 000h, 000h, 046h, 046h, 046h, 000h ; 6
068   7B65 000046460000000000000000000042424242000000000000000046464600
069   7B83             
001   7B83             image_takh: 
002   7B83                 ; Width, height
003   7B83 10 18           db 16, 24
004   7B85                 ; Black & white
005   7B85                 db 000h, 000h, 000h, 000h, 000h, 000h, 000h, 000h, 000h, 000h, 000h, 000h, 000h, 000h, 000h, 000h ; 0
005   7B85 00000000000000000000000000000000
006   7B95                 db 000h, 000h, 000h, 000h, 000h, 000h, 000h, 000h, 000h, 000h, 000h, 000h, 000h, 000h, 000h, 000h
006   7B95 00000000000000000000000000000000
007   7BA5                 db 000h, 000h, 000h, 000h, 000h, 000h, 000h, 000h, 000h, 000h, 000h, 000h, 000h, 000h, 000h, 000h
007   7BA5 00000000000000000000000000000000
008   7BB5                 db 000h, 000h, 000h, 000h, 000h, 000h, 000h, 000h, 000h, 000h, 000h, 000h, 000h, 000h, 000h, 000h
008   7BB5 00000000000000000000000000000000
009   7BC5                 db 000h, 000h, 000h, 000h, 000h, 000h, 000h, 000h, 000h, 000h, 000h, 000h, 000h, 000h, 000h, 000h
009   7BC5 00000000000000000000000000000000
010   7BD5                 db 000h, 000h, 000h, 000h, 000h, 000h, 000h, 000h, 000h, 000h, 000h, 000h, 000h, 000h, 000h, 000h
010   7BD5 00000000000000000000000000000000
011   7BE5                 db 000h, 000h, 000h, 000h, 000h, 000h, 000h, 000h, 000h, 000h, 000h, 000h, 000h, 000h, 000h, 000h
011   7BE5 00000000000000000000000000000000
012   7BF5                 db 000h, 000h, 000h, 000h, 000h, 000h, 000h, 000h, 000h, 000h, 000h, 008h, 000h, 000h, 000h, 000h
012   7BF5 00000000000000000000000800000000
013   7C05                 db 000h, 000h, 000h, 000h, 000h, 000h, 000h, 000h, 005h, 040h, 000h, 004h, 000h, 000h, 000h, 000h ; 1
013   7C05 00000000000000000540000400000000
014   7C15                 db 000h, 000h, 000h, 000h, 000h, 000h, 000h, 000h, 02Bh, 0A0h, 028h, 004h, 000h, 000h, 000h, 000h
014   7C15 00000000000000002BA0280400000000
015   7C25                 db 000h, 000h, 000h, 000h, 000h, 000h, 000h, 000h, 05Fh, 0F1h, 055h, 00Ch, 000h, 000h, 000h, 000h
015   7C25 00000000000000005FF1550C00000000
016   7C35                 db 000h, 000h, 000h, 000h, 000h, 000h, 000h, 032h, 0BFh, 082h, 0ABh, 0F8h, 000h, 040h, 000h, 000h
016   7C35 0000000000000032BF82ABF800400000
017   7C45                 db 000h, 000h, 000h, 000h, 000h, 000h, 000h, 045h, 07Fh, 005h, 0FFh, 0F0h, 000h, 020h, 000h, 000h
017   7C45 00000000000000457F05FFF000200000
018   7C55                 db 000h, 000h, 000h, 000h, 000h, 000h, 001h, 08Bh, 0FFh, 02Bh, 0FFh, 0E0h, 000h, 020h, 000h, 000h
018   7C55 000000000000018BFF2BFFE000200000
019   7C65                 db 000h, 000h, 000h, 000h, 000h, 000h, 003h, 03Fh, 0FFh, 0D7h, 0FFh, 0D0h, 000h, 060h, 000h, 000h
019   7C65 000000000000033FFFD7FFD000600000
020   7C75                 db 000h, 000h, 000h, 000h, 000h, 000h, 007h, 0BFh, 0FFh, 0FFh, 0FFh, 0EAh, 002h, 0E0h, 000h, 000h
020   7C75 00000000000007BFFFFFFFEA02E00000
021   7C85                 db 000h, 000h, 000h, 000h, 000h, 000h, 007h, 002h, 0AFh, 000h, 02Ah, 000h, 055h, 0C0h, 000h, 000h ; 2
021   7C85 0000000000000702AF002A0055C00000
022   7C95                 db 000h, 000h, 000h, 000h, 000h, 000h, 007h, 015h, 07Ch, 081h, 05Fh, 080h, 0FFh, 0C0h, 000h, 000h
022   7C95 00000000000007157C815F80FFC00000
023   7CA5                 db 000h, 000h, 000h, 000h, 000h, 000h, 00Fh, 02Bh, 0E0h, 00Ah, 0F9h, 0C0h, 0FFh, 080h, 000h, 000h
023   7CA5 0000000000000F2BE00AF9C0FF800000
024   7CB5                 db 000h, 000h, 000h, 000h, 000h, 000h, 007h, 05Fh, 001h, 055h, 0E0h, 060h, 0FFh, 000h, 000h, 000h
024   7CB5 000000000000075F0155E060FF000000
025   7CC5                 db 000h, 000h, 000h, 000h, 000h, 000h, 007h, 03Ch, 00Ah, 0AFh, 0C0h, 000h, 0FEh, 000h, 000h, 000h
025   7CC5 000000000000073C0AAFC000FE000000
026   7CD5                 db 000h, 000h, 000h, 000h, 000h, 000h, 007h, 070h, 015h, 0FFh, 000h, 000h, 0F8h, 008h, 000h, 000h
026   7CD5 000000000000077015FF0000F8080000
027   7CE5                 db 000h, 000h, 000h, 000h, 000h, 000h, 003h, 0C0h, 0ABh, 0FCh, 005h, 050h, 0E0h, 008h, 000h, 000h
027   7CE5 00000000000003C0ABFC0550E0080000
028   7CF5                 db 000h, 000h, 000h, 000h, 000h, 000h, 003h, 003h, 0DFh, 0F0h, 02Ah, 0A8h, 080h, 058h, 000h, 000h
028   7CF5 0000000000000303DFF02AA880580000
029   7D05                 db 000h, 000h, 000h, 000h, 000h, 000h, 003h, 000h, 07Fh, 0E1h, 05Fh, 0FCh, 002h, 0B8h, 000h, 000h ; 3
029   7D05 00000000000003007FE15FFC02B80000
030   7D15                 db 000h, 000h, 000h, 000h, 000h, 000h, 003h, 080h, 000h, 006h, 0BFh, 0FAh, 095h, 070h, 000h, 000h
030   7D15 00000000000003800006BFFA95700000
031   7D25                 db 000h, 000h, 000h, 000h, 000h, 000h, 001h, 0E0h, 000h, 01Dh, 07Eh, 01Fh, 0ABh, 0E0h, 000h, 000h
031   7D25 00000000000001E0001D7E1FABE00000
032   7D35                 db 000h, 000h, 000h, 000h, 000h, 000h, 000h, 0F0h, 0E0h, 0EAh, 0F8h, 003h, 07Fh, 0C0h, 000h, 000h
032   7D35 00000000000000F0E0EAF8037FC00000
033   7D45                 db 000h, 000h, 000h, 000h, 000h, 000h, 000h, 0F8h, 07Fh, 0D5h, 0F0h, 001h, 0FFh, 080h, 000h, 000h
033   7D45 00000000000000F87FD5F001FF800000
034   7D55                 db 000h, 000h, 000h, 000h, 000h, 000h, 000h, 0FCh, 03Eh, 0AFh, 0C0h, 000h, 0FEh, 000h, 000h, 000h
034   7D55 00000000000000FC3EAFC000FE000000
035   7D65                 db 000h, 000h, 000h, 000h, 000h, 000h, 000h, 00Eh, 01Fh, 0FFh, 000h, 000h, 0F8h, 000h, 000h, 000h
035   7D65 000000000000000E1FFF0000F8000000
036   7D75                 db 000h, 000h, 000h, 000h, 000h, 000h, 000h, 09Eh, 00Fh, 0F8h, 000h, 000h, 0E0h, 000h, 000h, 000h
036   7D75 000000000000009E0FF80000E0000000
037   7D85                 db 000h, 000h, 000h, 000h, 000h, 000h, 001h, 0FFh, 000h, 0FFh, 0AAh, 0AAh, 000h, 000h, 000h, 000h ; 4
037   7D85 00000000000001FF00FFAAAA00000000
038   7D95                 db 000h, 000h, 000h, 000h, 000h, 000h, 001h, 0FFh, 080h, 0FDh, 040h, 000h, 000h, 000h, 000h, 000h
038   7D95 00000000000001FF80FD400000000000
039   7DA5                 db 000h, 000h, 000h, 000h, 000h, 000h, 003h, 0FFh, 0C0h, 0EAh, 000h, 000h, 000h, 000h, 000h, 000h
039   7DA5 00000000000003FFC0EA000000000000
040   7DB5                 db 000h, 000h, 000h, 000h, 000h, 000h, 003h, 0FFh, 0E0h, 050h, 000h, 000h, 000h, 000h, 000h, 000h
040   7DB5 00000000000003FFE050000000000000
041   7DC5                 db 000h, 000h, 000h, 000h, 000h, 000h, 000h, 0FFh, 0F8h, 080h, 000h, 000h, 000h, 000h, 000h, 000h
041   7DC5 00000000000000FFF880000000000000
042   7DD5                 db 000h, 000h, 000h, 000h, 000h, 000h, 000h, 0FFh, 0FFh, 000h, 000h, 000h, 000h, 000h, 000h, 000h
042   7DD5 00000000000000FFFF00000000000000
043   7DE5                 db 000h, 000h, 000h, 000h, 000h, 000h, 000h, 01Fh, 0EFh, 000h, 000h, 000h, 000h, 000h, 000h, 000h
043   7DE5 000000000000001FEF00000000000000
044   7DF5                 db 000h, 000h, 000h, 000h, 000h, 000h, 000h, 03Fh, 0DFh, 000h, 000h, 000h, 000h, 000h, 000h, 000h
044   7DF5 000000000000003FDF00000000000000
045   7E05                 db 000h, 000h, 000h, 000h, 000h, 000h, 000h, 03Fh, 0BAh, 080h, 000h, 000h, 000h, 000h, 000h, 000h ; 5
045   7E05 000000000000003FBA80000000000000
046   7E15                 db 000h, 000h, 000h, 000h, 000h, 000h, 000h, 01Eh, 055h, 040h, 000h, 000h, 000h, 000h, 000h, 000h
046   7E15 000000000000001E5540000000000000
047   7E25                 db 000h, 000h, 000h, 000h, 000h, 000h, 000h, 000h, 0AAh, 0AFh, 070h, 000h, 000h, 000h, 000h, 000h
047   7E25 0000000000000000AAAF700000000000
048   7E35                 db 000h, 000h, 000h, 000h, 000h, 000h, 000h, 000h, 0D5h, 03Fh, 07Ch, 000h, 000h, 000h, 000h, 000h
048   7E35 0000000000000000D53F7C0000000000
049   7E45                 db 000h, 000h, 000h, 000h, 000h, 000h, 000h, 000h, 07Fh, 03Eh, 07Eh, 000h, 000h, 000h, 000h, 000h
049   7E45 00000000000000007F3E7E0000000000
050   7E55                 db 000h, 0C0h, 010h, 000h, 000h, 000h, 000h, 001h, 03Fh, 07Eh, 0FFh, 000h, 000h, 000h, 000h, 000h
050   7E55 00C01000000000013F7EFF0000000000
051   7E65                 db 000h, 060h, 018h, 000h, 000h, 000h, 000h, 017h, 09Eh, 07Eh, 0FFh, 000h, 000h, 000h, 000h, 000h
051   7E65 00601800000000179E7EFF0000000000
052   7E75                 db 000h, 070h, 00Eh, 000h, 000h, 000h, 000h, 077h, 0CCh, 0FEh, 0FFh, 080h, 000h, 000h, 000h, 000h
052   7E75 00700E0000000077CCFEFF8000000000
053   7E85                 db 000h, 03Eh, 007h, 000h, 000h, 000h, 000h, 0E7h, 0E1h, 0FEh, 0FFh, 080h, 000h, 000h, 000h, 000h ; 6
053   7E85 003E0700000000E7E1FEFF8000000000
054   7E95                 db 000h, 01Fh, 083h, 080h, 000h, 000h, 001h, 0EFh, 0F3h, 0FEh, 0FFh, 080h, 000h, 000h, 000h, 000h
054   7E95 001F8380000001EFF3FEFF8000000000
055   7EA5                 db 000h, 007h, 0FFh, 080h, 000h, 000h, 003h, 0CFh, 0E1h, 0FEh, 0FFh, 0C0h, 000h, 000h, 000h, 000h
055   7EA5 0007FF80000003CFE1FEFFC000000000
056   7EB5                 db 000h, 007h, 0FFh, 0C0h, 000h, 000h, 007h, 0DFh, 0CCh, 0FEh, 0FFh, 0C0h, 000h, 000h, 000h, 000h
056   7EB5 0007FFC0000007DFCCFEFFC000000000
057   7EC5                 db 000h, 001h, 0FFh, 0C0h, 000h, 000h, 00Fh, 09Fh, 01Eh, 07Eh, 0FFh, 0C0h, 000h, 000h, 000h, 000h
057   7EC5 0001FFC000000F9F1E7EFFC000000000
058   7ED5                 db 000h, 000h, 07Fh, 0E0h, 000h, 000h, 01Fh, 0BCh, 03Fh, 01Eh, 0FFh, 0E0h, 000h, 000h, 000h, 000h
058   7ED5 00007FE000001FBC3F1EFFE000000000
059   7EE5                 db 000h, 000h, 01Fh, 0F0h, 000h, 000h, 03Fh, 030h, 0FFh, 086h, 0FFh, 0E0h, 000h, 000h, 000h, 000h
059   7EE5 00001FF000003F30FF86FFE000000000
060   7EF5                 db 000h, 000h, 007h, 0FCh, 000h, 000h, 07Fh, 061h, 0FFh, 0C2h, 07Fh, 0F0h, 000h, 000h, 000h, 000h
060   7EF5 000007FC00007F61FFC27FF000000000
061   7F05                 db 000h, 000h, 003h, 0FEh, 000h, 000h, 0FFh, 00Fh, 0FFh, 0E2h, 01Fh, 0F0h, 000h, 000h, 000h, 000h ; 7
061   7F05 000003FE0000FF0FFFE21FF000000000
062   7F15                 db 000h, 000h, 000h, 0FFh, 080h, 001h, 0FEh, 007h, 0FFh, 080h, 00Fh, 0F0h, 000h, 000h, 000h, 000h
062   7F15 000000FF8001FE07FF800FF000000000
063   7F25                 db 000h, 000h, 000h, 07Fh, 0E0h, 003h, 07Eh, 001h, 0FEh, 000h, 00Fh, 0F8h, 000h, 000h, 000h, 000h
063   7F25 0000007FE0037E01FE000FF800000000
064   7F35                 db 000h, 000h, 000h, 03Fh, 0F8h, 007h, 07Ch, 000h, 0FCh, 000h, 007h, 0F8h, 000h, 000h, 000h, 000h
064   7F35 0000003FF8077C00FC0007F800000000
065   7F45                 db 000h, 000h, 000h, 01Fh, 0FEh, 00Fh, 03Ch, 000h, 078h, 000h, 007h, 0FCh, 000h, 000h, 000h, 000h
065   7F45 0000001FFE0F3C00780007FC00000000
066   7F55                 db 000h, 000h, 000h, 00Fh, 0FFh, 01Fh, 03Ch, 000h, 038h, 000h, 003h, 0FCh, 000h, 000h, 000h, 000h
066   7F55 0000000FFF1F3C00380003FC00000000
067   7F65                 db 000h, 000h, 000h, 007h, 0FFh, 0FFh, 01Ch, 000h, 010h, 000h, 003h, 0FEh, 000h, 000h, 000h, 000h
067   7F65 00000007FFFF1C00100003FE00000000
068   7F75                 db 000h, 000h, 000h, 003h, 0FFh, 0FFh, 00Eh, 000h, 000h, 000h, 001h, 0FFh, 000h, 000h, 000h, 000h
068   7F75 00000003FFFF0E00000001FF00000000
069   7F85                 db 000h, 000h, 000h, 000h, 0FFh, 0FFh, 0F8h, 000h, 038h, 000h, 001h, 0FFh, 000h, 000h, 000h, 000h ; 8
069   7F85 00000000FFFFF800380001FF00000000
070   7F95                 db 000h, 000h, 000h, 000h, 07Fh, 0FFh, 0E0h, 000h, 07Eh, 002h, 000h, 0FFh, 000h, 000h, 000h, 000h
070   7F95 000000007FFFE0007E0200FF00000000
071   7FA5                 db 000h, 000h, 000h, 000h, 03Fh, 0FFh, 0C0h, 040h, 0FFh, 006h, 000h, 0FFh, 080h, 000h, 000h, 000h
071   7FA5 000000003FFFC040FF0600FF80000000
072   7FB5                 db 000h, 000h, 000h, 000h, 01Fh, 0FFh, 000h, 07Fh, 0FFh, 0FEh, 000h, 07Fh, 0C0h, 000h, 000h, 000h
072   7FB5 000000001FFF007FFFFE007FC0000000
073   7FC5                 db 000h, 000h, 000h, 000h, 00Fh, 0FEh, 000h, 07Fh, 0FFh, 0FEh, 000h, 03Fh, 0C0h, 000h, 000h, 000h
073   7FC5 000000000FFE007FFFFE003FC0000000
074   7FD5                 db 000h, 000h, 000h, 000h, 003h, 0F8h, 000h, 07Fh, 0FFh, 0FEh, 000h, 03Fh, 0E0h, 000h, 000h, 000h
074   7FD5 0000000003F8007FFFFE003FE0000000
075   7FE5                 db 000h, 000h, 000h, 000h, 000h, 000h, 000h, 03Fh, 0FFh, 0FCh, 000h, 01Fh, 0F0h, 000h, 000h, 000h
075   7FE5 000000000000003FFFFC001FF0000000
076   7FF5                 db 000h, 000h, 000h, 000h, 000h, 000h, 000h, 03Fh, 0FFh, 0FCh, 000h, 00Fh, 0F0h, 000h, 000h, 000h
076   7FF5 000000000000003FFFFC000FF0000000
077   8005                 db 000h, 000h, 000h, 000h, 000h, 000h, 000h, 03Fh, 0FFh, 0FCh, 000h, 00Fh, 0F8h, 000h, 000h, 000h ; 9
077   8005 000000000000003FFFFC000FF8000000
078   8015                 db 000h, 000h, 000h, 000h, 000h, 000h, 000h, 03Fh, 0FFh, 0FCh, 000h, 007h, 0FCh, 000h, 000h, 000h
078   8015 000000000000003FFFFC0007FC000000
079   8025                 db 000h, 000h, 000h, 000h, 000h, 000h, 000h, 01Fh, 0FFh, 0F8h, 000h, 007h, 0FCh, 000h, 000h, 000h
079   8025 000000000000001FFFF80007FC000000
080   8035                 db 000h, 000h, 000h, 000h, 000h, 000h, 000h, 01Fh, 0FFh, 0F0h, 080h, 003h, 0FEh, 000h, 000h, 000h
080   8035 000000000000001FFFF08003FE000000
081   8045                 db 000h, 000h, 000h, 000h, 000h, 000h, 001h, 00Fh, 0FFh, 0E0h, 080h, 001h, 0FFh, 000h, 000h, 000h
081   8045 000000000000010FFFE08001FF000000
082   8055                 db 000h, 000h, 000h, 000h, 000h, 000h, 001h, 007h, 0FFh, 0C0h, 080h, 001h, 0FFh, 080h, 000h, 000h
082   8055 0000000000000107FFC08001FF800000
083   8065                 db 000h, 000h, 000h, 000h, 000h, 000h, 001h, 003h, 0FFh, 080h, 080h, 000h, 0FFh, 080h, 000h, 000h
083   8065 0000000000000103FF808000FF800000
084   8075                 db 000h, 000h, 000h, 000h, 000h, 000h, 003h, 001h, 0DFh, 000h, 0C0h, 000h, 07Fh, 0C0h, 000h, 000h
084   8075 0000000000000301DF00C0007FC00000
085   8085                 db 000h, 000h, 000h, 000h, 000h, 000h, 003h, 0FFh, 0FEh, 0FDh, 0C0h, 000h, 07Fh, 0C0h, 000h, 000h ; 10
085   8085 00000000000003FFFEFDC0007FC00000
086   8095                 db 000h, 000h, 000h, 000h, 000h, 000h, 003h, 07Fh, 0F8h, 0F8h, 0C0h, 000h, 03Fh, 0E0h, 000h, 000h
086   8095 000000000000037FF8F8C0003FE00000
087   80A5                 db 000h, 000h, 000h, 000h, 000h, 000h, 002h, 03Fh, 070h, 0F0h, 040h, 000h, 01Fh, 0E0h, 000h, 000h
087   80A5 000000000000023F70F040001FE00000
088   80B5                 db 000h, 000h, 000h, 000h, 000h, 000h, 002h, 01Fh, 020h, 0E0h, 040h, 000h, 00Fh, 0E0h, 000h, 000h
088   80B5 000000000000021F20E040000FE00000
089   80C5                 db 000h, 000h, 000h, 000h, 000h, 000h, 002h, 01Fh, 000h, 0C0h, 040h, 000h, 00Fh, 0F0h, 000h, 000h
089   80C5 000000000000021F00C040000FF00000
090   80D5                 db 000h, 000h, 000h, 000h, 000h, 000h, 002h, 00Fh, 000h, 080h, 040h, 000h, 007h, 0F0h, 000h, 000h
090   80D5 000000000000020F0080400007F00000
091   80E5                 db 000h, 000h, 000h, 000h, 000h, 000h, 002h, 007h, 000h, 000h, 040h, 000h, 003h, 0F8h, 000h, 000h
091   80E5 00000000000002070000400003F80000
092   80F5                 db 000h, 000h, 000h, 000h, 000h, 000h, 004h, 003h, 000h, 000h, 020h, 000h, 001h, 0F8h, 000h, 000h
092   80F5 00000000000004030000200001F80000
093   8105                 db 000h, 000h, 000h, 000h, 000h, 000h, 004h, 001h, 0FEh, 000h, 020h, 000h, 000h, 0FCh, 000h, 000h ; 11
093   8105 0000000000000401FE00200000FC0000
094   8115                 db 000h, 000h, 000h, 000h, 000h, 000h, 004h, 001h, 0FCh, 000h, 020h, 000h, 000h, 0FEh, 000h, 000h
094   8115 0000000000000401FC00200000FE0000
095   8125                 db 000h, 000h, 000h, 000h, 000h, 000h, 004h, 000h, 0F8h, 000h, 020h, 000h, 000h, 07Fh, 000h, 000h
095   8125 0000000000000400F8002000007F0000
096   8135                 db 000h, 000h, 000h, 000h, 000h, 000h, 004h, 000h, 0F8h, 000h, 020h, 000h, 000h, 03Fh, 000h, 000h
096   8135 0000000000000400F8002000003F0000
097   8145                 db 000h, 000h, 000h, 000h, 000h, 000h, 004h, 000h, 070h, 000h, 020h, 000h, 000h, 03Fh, 080h, 000h
097   8145 000000000000040070002000003F8000
098   8155                 db 000h, 000h, 000h, 000h, 000h, 000h, 004h, 000h, 070h, 000h, 010h, 000h, 000h, 01Fh, 0C0h, 000h
098   8155 000000000000040070001000001FC000
099   8165                 db 000h, 000h, 000h, 000h, 000h, 000h, 004h, 000h, 020h, 000h, 010h, 000h, 000h, 00Fh, 0E0h, 000h
099   8165 000000000000040020001000000FE000
100   8175                 db 000h, 000h, 000h, 000h, 000h, 000h, 004h, 000h, 020h, 000h, 010h, 000h, 000h, 00Fh, 0F0h, 000h
100   8175 000000000000040020001000000FF000
101   8185                 db 000h, 000h, 000h, 000h, 000h, 000h, 004h, 000h, 020h, 000h, 010h, 000h, 000h, 007h, 0F8h, 000h ; 12
101   8185 0000000000000400200010000007F800
102   8195                 db 000h, 000h, 000h, 000h, 000h, 000h, 00Ch, 000h, 000h, 000h, 010h, 000h, 000h, 007h, 0FCh, 000h
102   8195 0000000000000C00000010000007FC00
103   81A5                 db 000h, 000h, 000h, 000h, 000h, 000h, 00Ch, 000h, 000h, 000h, 010h, 000h, 000h, 007h, 0FCh, 000h
103   81A5 0000000000000C00000010000007FC00
104   81B5                 db 000h, 000h, 000h, 000h, 000h, 000h, 00Ch, 000h, 000h, 000h, 008h, 000h, 000h, 003h, 07Fh, 000h
104   81B5 0000000000000C000000080000037F00
105   81C5                 db 000h, 000h, 000h, 000h, 000h, 000h, 00Ch, 000h, 000h, 000h, 008h, 000h, 000h, 003h, 01Fh, 080h
105   81C5 0000000000000C000000080000031F80
106   81D5                 db 000h, 000h, 000h, 000h, 000h, 000h, 00Ch, 000h, 000h, 080h, 008h, 000h, 000h, 001h, 007h, 080h
106   81D5 0000000000000C000080080000010780
107   81E5                 db 000h, 000h, 000h, 000h, 000h, 000h, 00Ch, 000h, 000h, 080h, 004h, 000h, 000h, 000h, 083h, 0C0h
107   81E5 0000000000000C0000800400000083C0
108   81F5                 db 000h, 000h, 000h, 000h, 000h, 000h, 00Ch, 000h, 001h, 080h, 004h, 000h, 000h, 000h, 0C1h, 0E0h
108   81F5 0000000000000C00018004000000C1E0
109   8205                 db 000h, 000h, 000h, 000h, 000h, 000h, 00Ch, 000h, 003h, 010h, 004h, 000h, 000h, 000h, 040h, 060h ; 13
109   8205 0000000000000C000310040000004060
110   8215                 db 000h, 000h, 000h, 000h, 000h, 000h, 00Ch, 000h, 003h, 010h, 004h, 000h, 000h, 000h, 000h, 030h
110   8215 0000000000000C000310040000000030
111   8225                 db 000h, 000h, 000h, 000h, 000h, 000h, 01Ch, 000h, 007h, 010h, 002h, 000h, 000h, 000h, 000h, 030h
111   8225 0000000000001C000710020000000030
112   8235                 db 000h, 000h, 000h, 000h, 000h, 000h, 01Ch, 000h, 00Eh, 010h, 002h, 000h, 000h, 000h, 000h, 010h
112   8235 0000000000001C000E10020000000010
113   8245                 db 000h, 000h, 000h, 000h, 000h, 000h, 01Ch, 000h, 00Eh, 030h, 002h, 000h, 000h, 000h, 000h, 010h
113   8245 0000000000001C000E30020000000010
114   8255                 db 000h, 000h, 000h, 000h, 000h, 000h, 01Ch, 000h, 01Eh, 030h, 002h, 000h, 000h, 000h, 000h, 000h
114   8255 0000000000001C001E30020000000000
115   8265                 db 000h, 000h, 000h, 000h, 000h, 000h, 01Ch, 000h, 01Eh, 030h, 001h, 000h, 000h, 000h, 000h, 000h
115   8265 0000000000001C001E30010000000000
116   8275                 db 000h, 000h, 000h, 000h, 000h, 000h, 01Ch, 000h, 03Ch, 038h, 081h, 000h, 000h, 000h, 000h, 000h
116   8275 0000000000001C003C38810000000000
117   8285                 db 000h, 000h, 000h, 000h, 000h, 000h, 01Ch, 000h, 07Ch, 078h, 081h, 000h, 000h, 000h, 000h, 000h ; 14
117   8285 0000000000001C007C78810000000000
118   8295                 db 000h, 000h, 000h, 000h, 000h, 000h, 01Ch, 000h, 0F8h, 078h, 081h, 000h, 000h, 000h, 000h, 000h
118   8295 0000000000001C00F878810000000000
119   82A5                 db 000h, 000h, 000h, 000h, 000h, 000h, 01Eh, 001h, 0F8h, 068h, 080h, 080h, 000h, 000h, 000h, 000h
119   82A5 0000000000001E01F868808000000000
120   82B5                 db 000h, 000h, 000h, 000h, 000h, 000h, 01Fh, 003h, 0F8h, 068h, 080h, 080h, 000h, 000h, 000h, 000h
120   82B5 0000000000001F03F868808000000000
121   82C5                 db 000h, 000h, 000h, 000h, 000h, 000h, 01Fh, 087h, 0F0h, 0E8h, 0C0h, 080h, 000h, 000h, 000h, 000h
121   82C5 0000000000001F87F0E8C08000000000
122   82D5                 db 000h, 000h, 000h, 000h, 000h, 000h, 03Fh, 0FFh, 0F0h, 0C8h, 0C0h, 080h, 000h, 000h, 000h, 000h
122   82D5 0000000000003FFFF0C8C08000000000
123   82E5                 db 000h, 000h, 000h, 000h, 000h, 000h, 03Fh, 0FFh, 0F0h, 0D8h, 0C0h, 040h, 000h, 000h, 000h, 000h
123   82E5 0000000000003FFFF0D8C04000000000
124   82F5                 db 000h, 000h, 000h, 000h, 000h, 000h, 03Fh, 0FFh, 0E1h, 0D8h, 0C0h, 040h, 000h, 000h, 000h, 000h
124   82F5 0000000000003FFFE1D8C04000000000
125   8305                 db 000h, 000h, 000h, 000h, 000h, 000h, 03Fh, 000h, 0E1h, 0D8h, 0C0h, 040h, 000h, 000h, 000h, 000h ; 15
125   8305 0000000000003F00E1D8C04000000000
126   8315                 db 000h, 000h, 000h, 000h, 000h, 000h, 03Fh, 000h, 0E1h, 0D8h, 0C0h, 040h, 000h, 000h, 000h, 000h
126   8315 0000000000003F00E1D8C04000000000
127   8325                 db 000h, 000h, 000h, 000h, 000h, 000h, 03Fh, 000h, 0E1h, 0DCh, 0E0h, 020h, 000h, 000h, 000h, 000h
127   8325 0000000000003F00E1DCE02000000000
128   8335                 db 000h, 000h, 000h, 000h, 000h, 000h, 03Fh, 000h, 0C3h, 09Ch, 060h, 020h, 000h, 000h, 000h, 000h
128   8335 0000000000003F00C39C602000000000
129   8345                 db 000h, 000h, 000h, 000h, 000h, 000h, 03Fh, 000h, 0C3h, 09Ch, 060h, 020h, 000h, 000h, 000h, 000h
129   8345 0000000000003F00C39C602000000000
130   8355                 db 000h, 000h, 000h, 000h, 000h, 000h, 03Fh, 000h, 0C3h, 09Ch, 060h, 020h, 000h, 000h, 000h, 000h
130   8355 0000000000003F00C39C602000000000
131   8365                 db 000h, 000h, 000h, 000h, 000h, 000h, 03Fh, 000h, 0C3h, 09Ch, 060h, 030h, 000h, 000h, 000h, 000h
131   8365 0000000000003F00C39C603000000000
132   8375                 db 000h, 000h, 000h, 000h, 000h, 000h, 03Fh, 000h, 087h, 09Ch, 060h, 030h, 000h, 000h, 000h, 000h
132   8375 0000000000003F00879C603000000000
133   8385                 db 000h, 000h, 000h, 000h, 000h, 000h, 03Fh, 000h, 087h, 09Ch, 070h, 010h, 000h, 000h, 000h, 000h ; 16
133   8385 0000000000003F00879C701000000000
134   8395                 db 000h, 000h, 000h, 000h, 000h, 000h, 07Fh, 000h, 087h, 09Ch, 070h, 018h, 000h, 000h, 000h, 000h
134   8395 0000000000007F00879C701800000000
135   83A5                 db 000h, 000h, 000h, 000h, 000h, 000h, 07Fh, 000h, 087h, 01Ch, 070h, 018h, 000h, 000h, 000h, 000h
135   83A5 0000000000007F00871C701800000000
136   83B5                 db 000h, 000h, 000h, 000h, 000h, 000h, 07Fh, 000h, 08Fh, 01Ch, 070h, 018h, 000h, 000h, 000h, 000h
136   83B5 0000000000007F008F1C701800000000
137   83C5                 db 000h, 000h, 000h, 000h, 000h, 000h, 07Fh, 000h, 08Fh, 00Ch, 030h, 01Ch, 000h, 000h, 000h, 000h
137   83C5 0000000000007F008F0C301C00000000
138   83D5                 db 000h, 000h, 000h, 000h, 000h, 000h, 07Fh, 000h, 00Fh, 00Ch, 030h, 00Ch, 000h, 000h, 000h, 000h
138   83D5 0000000000007F000F0C300C00000000
139   83E5                 db 000h, 000h, 000h, 000h, 000h, 000h, 07Fh, 000h, 00Fh, 01Eh, 038h, 00Ch, 000h, 000h, 000h, 000h
139   83E5 0000000000007F000F1E380C00000000
140   83F5                 db 000h, 000h, 000h, 000h, 000h, 000h, 07Fh, 000h, 01Fh, 01Eh, 038h, 00Eh, 000h, 000h, 000h, 000h
140   83F5 0000000000007F001F1E380E00000000
141   8405                 db 000h, 000h, 000h, 000h, 000h, 000h, 07Fh, 0FFh, 01Eh, 01Eh, 038h, 00Eh, 000h, 000h, 000h, 000h ; 17
141   8405 0000000000007FFF1E1E380E00000000
142   8415                 db 000h, 000h, 000h, 000h, 000h, 000h, 07Fh, 0FFh, 01Eh, 01Eh, 038h, 006h, 000h, 000h, 000h, 000h
142   8415 0000000000007FFF1E1E380600000000
143   8425                 db 000h, 000h, 000h, 000h, 000h, 000h, 0FFh, 0FEh, 01Eh, 01Eh, 03Ch, 007h, 000h, 000h, 000h, 000h
143   8425 000000000000FFFE1E1E3C0700000000
144   8435                 db 000h, 000h, 000h, 000h, 000h, 000h, 0FFh, 0FEh, 03Eh, 01Eh, 01Ch, 007h, 000h, 000h, 000h, 000h
144   8435 000000000000FFFE3E1E1C0700000000
145   8445                 db 000h, 000h, 000h, 000h, 000h, 000h, 0FFh, 0FEh, 03Eh, 01Eh, 01Ch, 007h, 000h, 000h, 000h, 000h
145   8445 000000000000FFFE3E1E1C0700000000
146   8455                 db 000h, 000h, 000h, 000h, 000h, 000h, 0FFh, 0FEh, 03Ch, 01Eh, 01Ch, 003h, 080h, 000h, 000h, 000h
146   8455 000000000000FFFE3C1E1C0380000000
147   8465                 db 000h, 000h, 000h, 000h, 000h, 001h, 0FFh, 0FEh, 07Ch, 01Eh, 01Eh, 003h, 080h, 000h, 000h, 000h
147   8465 000000000001FFFE7C1E1E0380000000
148   8475                 db 000h, 000h, 000h, 000h, 000h, 001h, 0FFh, 0FCh, 07Ch, 03Fh, 01Eh, 003h, 0C0h, 000h, 000h, 000h
148   8475 000000000001FFFC7C3F1E03C0000000
149   8485                 db 000h, 000h, 000h, 000h, 000h, 001h, 000h, 0FCh, 07Ch, 03Fh, 00Eh, 001h, 0C0h, 000h, 000h, 000h ; 18
149   8485 00000000000100FC7C3F0E01C0000000
150   8495                 db 000h, 000h, 000h, 000h, 000h, 001h, 000h, 0FCh, 0F8h, 03Fh, 00Eh, 001h, 0C0h, 000h, 000h, 000h
150   8495 00000000000100FCF83F0E01C0000000
151   84A5                 db 000h, 000h, 000h, 000h, 000h, 003h, 000h, 0F8h, 0F8h, 03Fh, 00Fh, 001h, 0E0h, 000h, 000h, 000h
151   84A5 00000000000300F8F83F0F01E0000000
152   84B5                 db 000h, 000h, 000h, 000h, 000h, 003h, 000h, 0F0h, 0F8h, 03Fh, 00Fh, 001h, 0E0h, 000h, 000h, 000h
152   84B5 00000000000300F0F83F0F01E0000000
153   84C5                 db 000h, 000h, 000h, 000h, 000h, 003h, 000h, 0F1h, 0F0h, 03Fh, 00Fh, 000h, 0E0h, 000h, 000h, 000h
153   84C5 00000000000300F1F03F0F00E0000000
154   84D5                 db 000h, 000h, 000h, 000h, 000h, 007h, 000h, 0F3h, 0F0h, 07Fh, 007h, 000h, 0F0h, 000h, 000h, 000h
154   84D5 00000000000700F3F07F0700F0000000
155   84E5                 db 000h, 000h, 000h, 000h, 000h, 007h, 000h, 0E3h, 0F0h, 07Fh, 007h, 080h, 0F0h, 000h, 000h, 000h
155   84E5 00000000000700E3F07F0780F0000000
156   84F5                 db 000h, 000h, 000h, 000h, 000h, 007h, 000h, 0EFh, 0F0h, 07Fh, 007h, 080h, 0F0h, 000h, 000h, 000h
156   84F5 00000000000700EFF07F0780F0000000
157   8505                 db 000h, 000h, 000h, 000h, 000h, 00Fh, 000h, 000h, 0E0h, 07Fh, 087h, 080h, 078h, 000h, 000h, 000h ; 19
157   8505 00000000000F0000E07F878078000000
158   8515                 db 000h, 000h, 000h, 000h, 000h, 00Fh, 000h, 000h, 0E0h, 0FFh, 087h, 080h, 078h, 000h, 000h, 000h
158   8515 00000000000F0000E0FF878078000000
159   8525                 db 000h, 000h, 000h, 000h, 000h, 00Fh, 000h, 000h, 0E0h, 0FFh, 083h, 0C0h, 078h, 000h, 000h, 000h
159   8525 00000000000F0000E0FF83C078000000
160   8535                 db 000h, 000h, 000h, 000h, 000h, 00Fh, 000h, 000h, 0C0h, 0FFh, 083h, 0C0h, 03Ch, 000h, 000h, 000h
160   8535 00000000000F0000C0FF83C03C000000
161   8545                 db 000h, 000h, 000h, 000h, 000h, 01Fh, 000h, 000h, 0C0h, 0FFh, 083h, 0C0h, 03Ch, 000h, 000h, 000h
161   8545 00000000001F0000C0FF83C03C000000
162   8555                 db 000h, 000h, 000h, 000h, 000h, 01Fh, 000h, 000h, 080h, 0FFh, 083h, 0C0h, 03Ch, 000h, 000h, 000h
162   8555 00000000001F000080FF83C03C000000
163   8565                 db 000h, 000h, 000h, 000h, 000h, 01Fh, 000h, 000h, 080h, 0FFh, 083h, 0E0h, 03Eh, 000h, 000h, 000h
163   8565 00000000001F000080FF83E03E000000
164   8575                 db 000h, 000h, 000h, 000h, 000h, 03Fh, 000h, 000h, 080h, 0FFh, 081h, 0E0h, 01Eh, 000h, 000h, 000h
164   8575 00000000003F000080FF81E01E000000
165   8585                 db 000h, 000h, 000h, 000h, 000h, 03Fh, 000h, 0FFh, 001h, 000h, 0C1h, 0E0h, 01Fh, 000h, 000h, 000h ; 20
165   8585 00000000003F00FF0100C1E01F000000
166   8595                 db 000h, 000h, 000h, 000h, 000h, 03Fh, 000h, 0FEh, 001h, 000h, 0C1h, 0E0h, 01Fh, 000h, 000h, 000h
166   8595 00000000003F00FE0100C1E01F000000
167   85A5                 db 000h, 000h, 000h, 000h, 000h, 07Fh, 000h, 0FEh, 001h, 000h, 0C1h, 0F0h, 00Fh, 080h, 000h, 000h
167   85A5 00000000007F00FE0100C1F00F800000
168   85B5                 db 000h, 000h, 000h, 000h, 000h, 07Fh, 000h, 0FCh, 001h, 000h, 0C1h, 0F0h, 00Fh, 080h, 000h, 000h
168   85B5 00000000007F00FC0100C1F00F800000
169   85C5                 db 000h, 000h, 000h, 000h, 000h, 07Fh, 000h, 0FCh, 001h, 000h, 0C0h, 0F0h, 007h, 080h, 000h, 000h
169   85C5 00000000007F00FC0100C0F007800000
170   85D5                 db 000h, 000h, 000h, 000h, 000h, 07Fh, 000h, 0F8h, 001h, 000h, 0C0h, 0F0h, 007h, 0C0h, 000h, 000h
170   85D5 00000000007F00F80100C0F007C00000
171   85E5                 db 000h, 000h, 000h, 000h, 000h, 0FFh, 000h, 0F0h, 001h, 000h, 0C0h, 0F8h, 007h, 0C0h, 000h, 000h
171   85E5 0000000000FF00F00100C0F807C00000
172   85F5                 db 000h, 000h, 000h, 000h, 000h, 0FFh, 000h, 0F0h, 001h, 000h, 0E0h, 0F8h, 003h, 0E0h, 000h, 000h
172   85F5 0000000000FF00F00100E0F803E00000
173   8605                 db 000h, 000h, 000h, 000h, 000h, 000h, 0FFh, 0E0h, 001h, 000h, 0E0h, 078h, 003h, 0E0h, 000h, 000h ; 21
173   8605 000000000000FFE00100E07803E00000
174   8615                 db 000h, 000h, 000h, 000h, 001h, 000h, 0FFh, 0C0h, 001h, 000h, 0E0h, 078h, 001h, 0F0h, 000h, 000h
174   8615 000000000100FFC00100E07801F00000
175   8625                 db 000h, 000h, 000h, 000h, 001h, 000h, 0FFh, 0C0h, 001h, 000h, 0E0h, 07Ch, 001h, 0F0h, 000h, 000h
175   8625 000000000100FFC00100E07C01F00000
176   8635                 db 000h, 000h, 000h, 000h, 003h, 000h, 0FFh, 080h, 001h, 000h, 0E0h, 03Ch, 001h, 0F8h, 000h, 000h
176   8635 000000000300FF800100E03C01F80000
177   8645                 db 000h, 000h, 000h, 000h, 003h, 000h, 0FFh, 000h, 000h, 000h, 0E0h, 03Ch, 000h, 0FCh, 000h, 000h
177   8645 000000000300FF000000E03C00FC0000
178   8655                 db 000h, 000h, 000h, 000h, 003h, 000h, 0FFh, 000h, 000h, 000h, 0F0h, 03Ch, 000h, 0FEh, 000h, 000h
178   8655 000000000300FF000000F03C00FE0000
179   8665                 db 000h, 000h, 000h, 000h, 007h, 000h, 0FEh, 000h, 000h, 000h, 0F0h, 01Ch, 000h, 07Fh, 000h, 000h
179   8665 000000000700FE000000F01C007F0000
180   8675                 db 000h, 000h, 000h, 000h, 007h, 000h, 0FCh, 000h, 000h, 000h, 0F0h, 01Eh, 000h, 07Fh, 080h, 000h
180   8675 000000000700FC000000F01E007F8000
181   8685                 db 000h, 000h, 000h, 000h, 00Fh, 000h, 0FCh, 000h, 000h, 07Fh, 0F0h, 00Eh, 000h, 07Fh, 0C0h, 000h ; 22
181   8685 000000000F00FC00007FF00E007FC000
182   8695                 db 000h, 000h, 000h, 000h, 00Fh, 000h, 0F8h, 000h, 000h, 03Fh, 0F0h, 00Eh, 000h, 03Fh, 0E0h, 000h
182   8695 000000000F00F800003FF00E003FE000
183   86A5                 db 000h, 000h, 000h, 000h, 01Fh, 000h, 0F0h, 000h, 000h, 01Fh, 0F8h, 006h, 000h, 01Fh, 0F8h, 000h
183   86A5 000000001F00F000001FF806001FF800
184   86B5                 db 000h, 000h, 000h, 000h, 01Fh, 000h, 0E0h, 000h, 000h, 01Fh, 0F8h, 000h, 000h, 00Fh, 0FCh, 000h
184   86B5 000000001F00E000001FF800000FFC00
185   86C5                 db 000h, 000h, 000h, 000h, 03Fh, 000h, 0C0h, 000h, 000h, 00Fh, 0F8h, 000h, 000h, 007h, 0FEh, 000h
185   86C5 000000003F00C000000FF8000007FE00
186   86D5                 db 000h, 000h, 000h, 000h, 03Fh, 000h, 080h, 000h, 000h, 007h, 0F8h, 000h, 000h, 001h, 0FFh, 000h
186   86D5 000000003F0080000007F8000001FF00
187   86E5                 db 000h, 000h, 000h, 000h, 07Fh, 000h, 080h, 000h, 000h, 001h, 0F0h, 000h, 000h, 001h, 0FFh, 080h
187   86E5 000000007F0080000001F0000001FF80
188   86F5                 db 000h, 000h, 000h, 000h, 07Fh, 000h, 000h, 000h, 000h, 000h, 0F0h, 000h, 000h, 000h, 03Fh, 080h
188   86F5 000000007F0000000000F00000003F80
189   8705                 db 000h, 000h, 000h, 000h, 07Fh, 0FFh, 000h, 000h, 000h, 000h, 030h, 000h, 000h, 000h, 00Fh, 0C0h ; 23
189   8705 000000007FFF00000000300000000FC0
190   8715                 db 000h, 000h, 000h, 000h, 03Fh, 0FFh, 0E0h, 000h, 000h, 000h, 000h, 000h, 000h, 000h, 003h, 0E0h
190   8715 000000003FFFE00000000000000003E0
191   8725                 db 000h, 000h, 000h, 000h, 007h, 0FFh, 0F8h, 000h, 000h, 000h, 000h, 000h, 000h, 000h, 000h, 0F0h
191   8725 0000000007FFF80000000000000000F0
192   8735                 db 000h, 000h, 000h, 000h, 001h, 0FFh, 0FFh, 0F0h, 000h, 000h, 000h, 000h, 000h, 000h, 000h, 078h
192   8735 0000000001FFFFF00000000000000078
193   8745                 db 000h, 000h, 000h, 000h, 000h, 0FFh, 0FFh, 0FEh, 000h, 000h, 000h, 000h, 000h, 000h, 000h, 01Ch
193   8745 0000000000FFFFFE000000000000001C
194   8755                 db 000h, 000h, 000h, 000h, 000h, 03Fh, 0FFh, 0FFh, 0F8h, 000h, 000h, 000h, 000h, 000h, 000h, 00Ch
194   8755 00000000003FFFFFF80000000000000C
195   8765                 db 000h, 000h, 000h, 000h, 000h, 003h, 0FFh, 0FFh, 0FFh, 000h, 01Fh, 0FFh, 0FCh, 000h, 000h, 006h
195   8765 000000000003FFFFFF001FFFFC000006
196   8775                 db 000h, 000h, 000h, 000h, 000h, 000h, 03Fh, 0F0h, 000h, 0FFh, 0E0h, 000h, 003h, 0FFh, 0FFh, 0FFh
196   8775 0000000000003FF000FFE00003FFFFFF
197   8785                 ; Color attributes
198   8785                 db 045h, 045h, 045h, 045h, 045h, 045h, 045h, 045h, 045h, 045h, 045h, 042h, 045h, 045h, 045h, 045h ; 0
198   8785 45454545454545454545454245454545
199   8795                 db 045h, 045h, 045h, 045h, 045h, 045h, 042h, 042h, 042h, 042h, 042h, 042h, 042h, 042h, 045h, 045h ; 1
199   8795 45454545454542424242424242424545
200   87A5                 db 045h, 045h, 045h, 045h, 045h, 045h, 042h, 056h, 056h, 056h, 056h, 056h, 042h, 042h, 045h, 045h ; 2
200   87A5 45454545454542565656565642424545
201   87B5                 db 045h, 045h, 045h, 045h, 045h, 045h, 042h, 057h, 056h, 056h, 056h, 056h, 042h, 042h, 045h, 045h ; 3
201   87B5 45454545454542575656565642424545
202   87C5                 db 045h, 045h, 045h, 045h, 045h, 045h, 047h, 057h, 057h, 042h, 042h, 042h, 045h, 045h, 045h, 045h ; 4
202   87C5 45454545454547575742424245454545
203   87D5                 db 045h, 042h, 042h, 045h, 045h, 045h, 045h, 047h, 047h, 047h, 047h, 047h, 045h, 045h, 045h, 045h ; 5
203   87D5 45424245454545474747474745454545
204   87E5                 db 045h, 042h, 042h, 042h, 045h, 045h, 047h, 047h, 047h, 047h, 047h, 047h, 045h, 045h, 045h, 045h ; 6
204   87E5 45424242454547474747474745454545
205   87F5                 db 045h, 045h, 042h, 042h, 042h, 042h, 057h, 057h, 057h, 057h, 047h, 047h, 045h, 045h, 045h, 045h ; 7
205   87F5 45454242424257575757474745454545
206   8805                 db 045h, 045h, 045h, 045h, 042h, 042h, 042h, 057h, 057h, 057h, 042h, 042h, 042h, 045h, 045h, 045h ; 8
206   8805 45454545424242575757424242454545
207   8815                 db 045h, 045h, 045h, 045h, 045h, 045h, 042h, 057h, 057h, 057h, 042h, 042h, 042h, 042h, 045h, 045h ; 9
207   8815 45454545454542575757424242424545
208   8825                 db 045h, 045h, 045h, 045h, 045h, 045h, 042h, 042h, 057h, 042h, 042h, 045h, 042h, 042h, 045h, 045h ; 10
208   8825 45454545454542425742424542424545
209   8835                 db 045h, 045h, 045h, 045h, 045h, 045h, 042h, 042h, 042h, 045h, 042h, 045h, 045h, 042h, 042h, 045h ; 11
209   8835 45454545454542424245424545424245
210   8845                 db 045h, 045h, 045h, 045h, 045h, 045h, 042h, 045h, 042h, 042h, 042h, 045h, 045h, 042h, 042h, 042h ; 12
210   8845 45454545454542454242424545424242
211   8855                 db 045h, 045h, 045h, 045h, 045h, 045h, 042h, 045h, 042h, 042h, 042h, 045h, 045h, 045h, 042h, 042h ; 13
211   8855 45454545454542454242424545454242
212   8865                 db 045h, 045h, 045h, 045h, 045h, 045h, 042h, 042h, 042h, 042h, 042h, 042h, 045h, 045h, 045h, 045h ; 14
212   8865 45454545454542424242424245454545
213   8875                 db 045h, 045h, 045h, 045h, 045h, 045h, 042h, 052h, 042h, 042h, 042h, 042h, 045h, 045h, 045h, 045h ; 15
213   8875 45454545454542524242424245454545
214   8885                 db 045h, 045h, 045h, 045h, 045h, 045h, 042h, 052h, 042h, 042h, 042h, 042h, 045h, 045h, 045h, 045h ; 16
214   8885 45454545454542524242424245454545
215   8895                 db 045h, 045h, 045h, 045h, 045h, 042h, 042h, 042h, 042h, 042h, 042h, 042h, 042h, 045h, 045h, 045h ; 17
215   8895 45454545454242424242424242454545
216   88A5                 db 045h, 045h, 045h, 045h, 045h, 042h, 052h, 042h, 042h, 042h, 042h, 042h, 042h, 045h, 045h, 045h ; 18
216   88A5 45454545454252424242424242454545
217   88B5                 db 045h, 045h, 045h, 045h, 045h, 042h, 052h, 052h, 042h, 042h, 042h, 042h, 042h, 045h, 045h, 045h ; 19
217   88B5 45454545454252524242424242454545
218   88C5                 db 045h, 045h, 045h, 045h, 045h, 042h, 052h, 042h, 042h, 052h, 042h, 042h, 042h, 042h, 045h, 045h ; 20
218   88C5 45454545454252424252424242424545
219   88D5                 db 045h, 045h, 045h, 045h, 042h, 052h, 042h, 042h, 042h, 052h, 042h, 042h, 042h, 042h, 042h, 045h ; 21
219   88D5 45454545425242424252424242424245
220   88E5                 db 045h, 045h, 045h, 045h, 042h, 052h, 042h, 045h, 045h, 042h, 042h, 042h, 045h, 042h, 042h, 042h ; 22
220   88E5 45454545425242454542424245424242
221   88F5                 db 045h, 045h, 045h, 045h, 042h, 042h, 042h, 042h, 042h, 042h, 042h, 042h, 042h, 042h, 042h, 042h ; 23
221   88F5 45454545424242424242424242424242
222   8905             
001   8905             image_rast: 
002   8905                 ; Width, height
003   8905 0C 18           db 12, 24
004   8907                 ; Black & white
005   8907                 db 000h, 000h, 000h, 000h, 000h, 000h, 000h, 000h, 000h, 000h, 000h, 000h ; 0
005   8907 000000000000000000000000
006   8913                 db 000h, 000h, 000h, 000h, 000h, 000h, 000h, 000h, 000h, 000h, 000h, 000h
006   8913 000000000000000000000000
007   891F                 db 000h, 000h, 000h, 000h, 000h, 000h, 000h, 000h, 000h, 000h, 000h, 000h
007   891F 000000000000000000000000
008   892B                 db 000h, 000h, 000h, 000h, 000h, 000h, 000h, 000h, 000h, 000h, 000h, 000h
008   892B 000000000000000000000000
009   8937                 db 000h, 000h, 000h, 000h, 000h, 000h, 000h, 000h, 000h, 000h, 000h, 000h
009   8937 000000000000000000000000
010   8943                 db 000h, 000h, 000h, 000h, 03Fh, 0C0h, 000h, 000h, 000h, 000h, 000h, 000h
010   8943 000000003FC0000000000000
011   894F                 db 000h, 000h, 000h, 000h, 0FFh, 0E0h, 000h, 000h, 000h, 000h, 000h, 000h
011   894F 00000000FFE0000000000000
012   895B                 db 000h, 000h, 000h, 003h, 0C7h, 078h, 000h, 000h, 000h, 000h, 000h, 000h
012   895B 00000003C778000000000000
013   8967                 db 000h, 000h, 000h, 00Fh, 03Fh, 098h, 000h, 000h, 000h, 000h, 000h, 000h ; 1
013   8967 0000000F3F98000000000000
014   8973                 db 000h, 000h, 000h, 01Ch, 0EFh, 0ECh, 000h, 000h, 000h, 000h, 000h, 000h
014   8973 0000001CEFEC000000000000
015   897F                 db 000h, 000h, 000h, 01Bh, 0DFh, 036h, 000h, 000h, 000h, 000h, 000h, 000h
015   897F 0000001BDF36000000000000
016   898B                 db 000h, 000h, 000h, 037h, 0BBh, 0DBh, 000h, 000h, 000h, 000h, 000h, 000h
016   898B 00000037BBDB000000000000
017   8997                 db 000h, 000h, 000h, 036h, 077h, 06Fh, 0C0h, 000h, 000h, 000h, 000h, 000h
017   8997 00000036776FC00000000000
018   89A3                 db 000h, 000h, 000h, 06Dh, 0EDh, 03Fh, 0E0h, 000h, 000h, 000h, 000h, 000h
018   89A3 0000006DED3FE00000000000
019   89AF                 db 000h, 000h, 000h, 06Bh, 09Dh, 003h, 0E0h, 000h, 000h, 000h, 000h, 000h
019   89AF 0000006B9D03E00000000000
020   89BB                 db 000h, 000h, 000h, 05Bh, 072h, 001h, 060h, 000h, 000h, 000h, 018h, 000h
020   89BB 0000005B7201600000001800
021   89C7                 db 000h, 000h, 000h, 0D7h, 06Eh, 0F0h, 0A0h, 000h, 000h, 000h, 07Eh, 000h ; 2
021   89C7 000000D76EF0A00000007E00
022   89D3                 db 000h, 000h, 001h, 0B6h, 0DEh, 0F8h, 0B0h, 000h, 000h, 000h, 0DFh, 000h
022   89D3 000001B6DEF8B0000000DF00
023   89DF                 db 000h, 000h, 003h, 06Dh, 0D6h, 0FCh, 0B0h, 000h, 000h, 000h, 09Fh, 000h
023   89DF 0000036DD6FCB00000009F00
024   89EB                 db 000h, 000h, 003h, 06Fh, 0B6h, 0FCh, 0B0h, 000h, 000h, 000h, 0BFh, 000h
024   89EB 0000036FB6FCB0000000BF00
025   89F7                 db 000h, 000h, 006h, 0CFh, 06Ch, 0FCh, 0D8h, 000h, 000h, 000h, 0B3h, 000h
025   89F7 000006CF6CFCD8000000B300
026   8A03                 db 000h, 000h, 006h, 0DEh, 0CCh, 0FCh, 0DEh, 000h, 000h, 002h, 0FFh, 000h
026   8A03 000006DECCFCDE000002FF00
027   8A0F                 db 000h, 000h, 006h, 0DFh, 098h, 0FEh, 0EFh, 0C0h, 000h, 002h, 07Eh, 000h
027   8A0F 000006DF98FEEFC000027E00
028   8A1B                 db 000h, 000h, 006h, 0DFh, 000h, 082h, 077h, 0E0h, 000h, 003h, 03Ch, 000h
028   8A1B 000006DF008277E000033C00
029   8A27                 db 000h, 000h, 006h, 0DEh, 010h, 013h, 038h, 070h, 000h, 003h, 000h, 000h ; 3
029   8A27 000006DE1013387000030000
030   8A33                 db 000h, 000h, 006h, 0DCh, 046h, 0C7h, 04Fh, 0B0h, 000h, 003h, 03Ch, 000h
030   8A33 000006DC46C74FB000033C00
031   8A3F                 db 000h, 000h, 006h, 0F8h, 0FEh, 0FFh, 071h, 0D8h, 000h, 007h, 078h, 000h
031   8A3F 000006F8FEFF71D800077800
032   8A4B                 db 000h, 000h, 006h, 0F0h, 0FEh, 0FEh, 07Eh, 0E0h, 000h, 006h, 0F0h, 000h
032   8A4B 000006F0FEFE7EE00006F000
033   8A57                 db 000h, 000h, 006h, 0F0h, 0FCh, 0FEh, 007h, 030h, 000h, 006h, 0E0h, 000h
033   8A57 000006F0FCFE07300006E000
034   8A63                 db 000h, 000h, 01Dh, 0F0h, 0FCh, 0FEh, 0F1h, 0D8h, 000h, 007h, 0C0h, 000h
034   8A63 00001DF0FCFEF1D80007C000
035   8A6F                 db 000h, 000h, 01Dh, 0D8h, 0F9h, 0FCh, 0FCh, 0ECh, 000h, 00Fh, 080h, 000h
035   8A6F 00001DD8F9FCFCEC000F8000
036   8A7B                 db 000h, 000h, 03Bh, 0DCh, 07Ch, 03Ch, 00Eh, 066h, 000h, 00Fh, 080h, 000h
036   8A7B 00003BDC7C3C0E66000F8000
037   8A87                 db 000h, 000h, 037h, 05Eh, 03Fh, 0FCh, 0E7h, 073h, 000h, 01Fh, 000h, 000h ; 4
037   8A87 0000375E3FFCE773001F0000
038   8A93                 db 000h, 000h, 06Eh, 0DFh, 038h, 01Ch, 073h, 039h, 000h, 01Fh, 000h, 000h
038   8A93 00006EDF381C7339001F0000
039   8A9F                 db 000h, 000h, 06Dh, 08Fh, 033h, 0C8h, 099h, 098h, 080h, 01Eh, 000h, 000h
039   8A9F 00006D8F33C89998801E0000
040   8AAB                 db 000h, 000h, 06Dh, 08Fh, 01Ch, 018h, 0CCh, 0CCh, 040h, 03Eh, 000h, 000h
040   8AAB 00006D8F1C18CCCC403E0000
041   8AB7                 db 000h, 000h, 064h, 0CFh, 019h, 0F0h, 0E4h, 0C6h, 020h, 03Ch, 000h, 000h
041   8AB7 000064CF19F0E4C6203C0000
042   8AC3                 db 000h, 000h, 024h, 04Eh, 01Ch, 070h, 076h, 062h, 000h, 07Ch, 000h, 000h
042   8AC3 0000244E1C707662007C0000
043   8ACF                 db 000h, 000h, 020h, 05Ch, 00Fh, 0E0h, 032h, 033h, 000h, 078h, 000h, 000h
043   8ACF 0000205C0FE0323300780000
044   8ADB                 db 000h, 000h, 000h, 05Ch, 003h, 0C0h, 099h, 011h, 000h, 0F8h, 000h, 000h
044   8ADB 0000005C03C0991100F80000
045   8AE7                 db 000h, 000h, 010h, 05Fh, 0C0h, 000h, 08Ch, 008h, 000h, 0F0h, 000h, 000h ; 5
045   8AE7 0000105FC0008C0800F00000
046   8AF3                 db 000h, 000h, 030h, 02Fh, 0C0h, 000h, 0C4h, 004h, 000h, 0F0h, 000h, 000h
046   8AF3 0000302FC000C40400F00000
047   8AFF                 db 000h, 000h, 0E0h, 020h, 0F0h, 000h, 062h, 002h, 001h, 0E0h, 000h, 000h
047   8AFF 0000E020F000620201E00000
048   8B0B                 db 000h, 001h, 080h, 000h, 070h, 000h, 031h, 000h, 001h, 0E0h, 000h, 000h
048   8B0B 000180007000310001E00000
049   8B17                 db 000h, 001h, 080h, 000h, 070h, 000h, 018h, 000h, 003h, 0C0h, 000h, 000h
049   8B17 000180007000180003C00000
050   8B23                 db 000h, 003h, 000h, 000h, 0E0h, 000h, 007h, 000h, 003h, 0C0h, 000h, 000h
050   8B23 00030000E000070003C00000
051   8B2F                 db 000h, 007h, 000h, 000h, 0E0h, 000h, 000h, 000h, 007h, 080h, 000h, 000h
051   8B2F 00070000E000000007800000
052   8B3B                 db 000h, 00Eh, 000h, 000h, 040h, 000h, 000h, 000h, 007h, 080h, 000h, 000h
052   8B3B 000E00004000000007800000
053   8B47                 db 000h, 00Eh, 000h, 000h, 000h, 001h, 000h, 000h, 00Fh, 000h, 002h, 000h ; 6
053   8B47 000E0000000100000F000200
054   8B53                 db 000h, 01Fh, 000h, 000h, 000h, 001h, 080h, 000h, 00Fh, 000h, 006h, 000h
054   8B53 001F0000000180000F000600
055   8B5F                 db 000h, 01Fh, 080h, 000h, 000h, 001h, 080h, 000h, 00Eh, 000h, 006h, 030h
055   8B5F 001F8000000180000E000630
056   8B6B                 db 000h, 03Fh, 0F0h, 000h, 08Eh, 001h, 080h, 000h, 01Eh, 000h, 00Ch, 070h
056   8B6B 003FF0008E0180001E000C70
057   8B77                 db 000h, 03Fh, 0FFh, 000h, 006h, 007h, 020h, 000h, 01Ch, 000h, 00Ch, 0E0h
057   8B77 003FFF00060720001C000CE0
058   8B83                 db 000h, 03Fh, 0E0h, 0D0h, 04Ah, 007h, 020h, 000h, 03Ch, 000h, 0D9h, 0C0h
058   8B83 003FE0D04A0720003C00D9C0
059   8B8F                 db 000h, 03Fh, 0C0h, 038h, 08Bh, 007h, 020h, 000h, 038h, 000h, 0DBh, 080h
059   8B8F 003FC0388B0720003800DB80
060   8B9B                 db 000h, 03Eh, 000h, 02Ch, 0C3h, 007h, 030h, 000h, 078h, 000h, 0F7h, 018h
060   8B9B 003E002CC30730007800F718
061   8BA7                 db 000h, 018h, 000h, 014h, 053h, 0C7h, 030h, 000h, 070h, 000h, 0F6h, 078h ; 7
061   8BA7 0018001453C730007000F678
062   8BB3                 db 000h, 004h, 000h, 008h, 061h, 04Fh, 030h, 000h, 0F0h, 000h, 07Ch, 0E0h
062   8BB3 00040008614F3000F0007CE0
063   8BBF                 db 000h, 01Ch, 000h, 00Eh, 021h, 03Bh, 0B0h, 000h, 0E0h, 000h, 07Dh, 0C0h
063   8BBF 001C000E213BB000E0007DC0
064   8BCB                 db 000h, 018h, 000h, 007h, 031h, 0D8h, 030h, 000h, 0E0h, 000h, 07Fh, 098h
064   8BCB 0018000731D83000E0007F98
065   8BD7                 db 000h, 018h, 000h, 001h, 018h, 00Bh, 0F8h, 00Eh, 040h, 000h, 07Fh, 078h
065   8BD7 00180001180BF80E40007F78
066   8BE3                 db 000h, 038h, 000h, 001h, 080h, 072h, 038h, 01Fh, 040h, 000h, 07Fh, 0E0h
066   8BE3 003800018072381F40007FE0
067   8BEF                 db 000h, 030h, 000h, 001h, 0C0h, 023h, 038h, 001h, 040h, 000h, 07Fh, 0C0h
067   8BEF 00300001C023380140007FC0
068   8BFB                 db 000h, 030h, 000h, 001h, 0F0h, 017h, 038h, 03Ch, 040h, 000h, 0FFh, 080h
068   8BFB 00300001F017383C4000FF80
069   8C07                 db 000h, 030h, 000h, 003h, 038h, 0C7h, 030h, 01Eh, 000h, 001h, 0FFh, 080h ; 8
069   8C07 0030000338C7301E0001FF80
070   8C13                 db 000h, 030h, 000h, 006h, 00Ch, 0E1h, 070h, 063h, 000h, 007h, 0FFh, 000h
070   8C13 003000060CE170630007FF00
071   8C1F                 db 000h, 030h, 000h, 006h, 00Ch, 06Ch, 070h, 0FDh, 000h, 01Fh, 0FFh, 000h
071   8C1F 003000060C6C70FD001FFF00
072   8C2B                 db 000h, 020h, 000h, 004h, 004h, 038h, 0F0h, 00Eh, 000h, 07Dh, 0FEh, 000h
072   8C2B 002000040438F00E007DFE00
073   8C37                 db 000h, 020h, 000h, 004h, 037h, 09Bh, 0F0h, 0F2h, 001h, 0EDh, 0FCh, 000h
073   8C37 00200004379BF0F201EDFC00
074   8C43                 db 000h, 020h, 000h, 00Fh, 0FDh, 0C3h, 0E0h, 07Bh, 007h, 069h, 0F8h, 000h
074   8C43 0020000FFDC3E07B0769F800
075   8C4F                 db 000h, 020h, 000h, 007h, 01Ch, 078h, 020h, 01Bh, 01Fh, 041h, 0E0h, 000h
075   8C4F 002000071C78201B1F41E000
076   8C5B                 db 000h, 020h, 000h, 000h, 039h, 0CFh, 080h, 000h, 0FFh, 001h, 0C0h, 000h
076   8C5B 0020000039CF8000FF01C000
077   8C67                 db 000h, 020h, 000h, 000h, 03Fh, 0CCh, 070h, 033h, 0BFh, 001h, 080h, 000h ; 9
077   8C67 002000003FCC7033BF018000
078   8C73                 db 000h, 020h, 000h, 000h, 078h, 085h, 08Ch, 0FFh, 07Fh, 001h, 000h, 000h
078   8C73 0020000078858CFF7F010000
079   8C7F                 db 000h, 020h, 000h, 001h, 081h, 08Ch, 0DFh, 07Eh, 01Fh, 001h, 000h, 000h
079   8C7F 00200001818CDF7E1F010000
080   8C8B                 db 000h, 020h, 000h, 006h, 001h, 039h, 098h, 06Ch, 05Fh, 001h, 000h, 000h
080   8C8B 002000060139986C5F010000
081   8C97                 db 000h, 020h, 000h, 000h, 003h, 031h, 098h, 068h, 0CEh, 002h, 000h, 000h
081   8C97 0020000003319868CE020000
082   8CA3                 db 000h, 020h, 000h, 000h, 000h, 033h, 098h, 0F2h, 0DAh, 002h, 000h, 000h
082   8CA3 00200000003398F2DA020000
083   8CAF                 db 000h, 020h, 000h, 000h, 000h, 0F3h, 031h, 0E1h, 0DAh, 002h, 000h, 000h
083   8CAF 0020000000F331E1DA020000
084   8CBB                 db 000h, 020h, 000h, 000h, 000h, 0C3h, 033h, 087h, 09Ah, 004h, 000h, 000h
084   8CBB 0020000000C333879A040000
085   8CC7                 db 000h, 030h, 000h, 000h, 001h, 0C2h, 023h, 00Fh, 092h, 004h, 000h, 000h ; 10
085   8CC7 0030000001C2230F92040000
086   8CD3                 db 000h, 030h, 040h, 000h, 001h, 002h, 044h, 083h, 0B4h, 004h, 000h, 000h
086   8CD3 0030400001024483B4040000
087   8CDF                 db 000h, 010h, 030h, 000h, 000h, 004h, 047h, 083h, 014h, 008h, 000h, 000h
087   8CDF 001030000004478314080000
088   8CEB                 db 000h, 010h, 008h, 000h, 000h, 004h, 007h, 087h, 008h, 008h, 000h, 000h
088   8CEB 001008000004078708080000
089   8CF7                 db 000h, 010h, 004h, 000h, 000h, 000h, 006h, 006h, 008h, 008h, 000h, 000h
089   8CF7 001004000000060608080000
090   8D03                 db 000h, 008h, 003h, 000h, 000h, 000h, 00Eh, 004h, 008h, 010h, 000h, 000h
090   8D03 0008030000000E0408100000
091   8D0F                 db 000h, 008h, 000h, 0C0h, 000h, 000h, 00Ch, 008h, 010h, 020h, 000h, 000h
091   8D0F 000800C000000C0810200000
092   8D1B                 db 000h, 008h, 000h, 030h, 000h, 000h, 000h, 008h, 010h, 040h, 000h, 000h
092   8D1B 000800300000000810400000
093   8D27                 db 000h, 008h, 000h, 00Ch, 000h, 000h, 000h, 000h, 021h, 080h, 000h, 000h ; 11
093   8D27 0008000C0000000021800000
094   8D33                 db 000h, 008h, 000h, 003h, 080h, 000h, 000h, 000h, 022h, 000h, 000h, 000h
094   8D33 000800038000000022000000
095   8D3F                 db 000h, 008h, 000h, 000h, 070h, 000h, 000h, 000h, 02Ch, 000h, 000h, 000h
095   8D3F 00080000700000002C000000
096   8D4B                 db 000h, 008h, 000h, 000h, 00Eh, 000h, 000h, 000h, 070h, 000h, 000h, 000h
096   8D4B 000800000E00000070000000
097   8D57                 db 000h, 008h, 000h, 000h, 001h, 0F8h, 000h, 007h, 080h, 000h, 000h, 000h
097   8D57 0008000001F8000780000000
098   8D63                 db 000h, 008h, 000h, 000h, 001h, 0FFh, 0FFh, 0F8h, 000h, 000h, 000h, 000h
098   8D63 0008000001FFFFF800000000
099   8D6F                 db 000h, 008h, 000h, 000h, 003h, 033h, 087h, 0C0h, 000h, 000h, 000h, 000h
099   8D6F 00080000033387C000000000
100   8D7B                 db 000h, 008h, 000h, 000h, 003h, 06Bh, 087h, 0C0h, 000h, 000h, 000h, 000h
100   8D7B 00080000036B87C000000000
101   8D87                 db 000h, 01Fh, 000h, 000h, 007h, 068h, 087h, 080h, 000h, 000h, 000h, 000h ; 12
101   8D87 001F00000768878000000000
102   8D93                 db 000h, 060h, 080h, 000h, 006h, 063h, 007h, 080h, 000h, 000h, 000h, 000h
102   8D93 006080000663078000000000
103   8D9F                 db 000h, 080h, 09Fh, 0FCh, 006h, 0E5h, 00Fh, 080h, 000h, 000h, 000h, 000h
103   8D9F 00809FFC06E50F8000000000
104   8DAB                 db 000h, 0C7h, 060h, 002h, 00Ch, 0C5h, 00Fh, 000h, 000h, 000h, 000h, 000h
104   8DAB 00C760020CC50F0000000000
105   8DB7                 db 001h, 028h, 080h, 007h, 000h, 0D1h, 01Fh, 000h, 000h, 000h, 000h, 000h
105   8DB7 0128800700D11F0000000000
106   8DC3                 db 001h, 029h, 0E0h, 03Fh, 007h, 013h, 03Eh, 000h, 000h, 000h, 000h, 000h
106   8DC3 0129E03F07133E0000000000
107   8DCF                 db 001h, 011h, 012h, 047h, 00Ch, 07Fh, 03Eh, 000h, 000h, 000h, 000h, 000h
107   8DCF 011112470C7F3E0000000000
108   8DDB                 db 001h, 001h, 010h, 047h, 0FFh, 0F1h, 07Ch, 000h, 000h, 000h, 000h, 000h
108   8DDB 01011047FFF17C0000000000
109   8DE7                 db 001h, 001h, 00Fh, 087h, 000h, 001h, 0FCh, 000h, 000h, 000h, 000h, 000h ; 13
109   8DE7 01010F870001FC0000000000
110   8DF3                 db 001h, 001h, 000h, 007h, 000h, 001h, 0F8h, 000h, 000h, 000h, 000h, 000h
110   8DF3 010100070001F80000000000
111   8DFF                 db 001h, 001h, 000h, 007h, 000h, 00Fh, 0E0h, 000h, 000h, 000h, 000h, 000h
111   8DFF 01010007000FE00000000000
112   8E0B                 db 001h, 001h, 000h, 007h, 0FFh, 0FFh, 000h, 000h, 000h, 000h, 000h, 000h
112   8E0B 01010007FFFF000000000000
113   8E17                 db 001h, 001h, 000h, 007h, 001h, 0FDh, 000h, 000h, 000h, 000h, 000h, 000h
113   8E17 0101000701FD000000000000
114   8E23                 db 000h, 087h, 000h, 007h, 003h, 0EDh, 000h, 000h, 000h, 000h, 000h, 000h
114   8E23 0087000703ED000000000000
115   8E2F                 db 000h, 04Eh, 080h, 007h, 006h, 0E9h, 000h, 000h, 000h, 000h, 000h, 000h
115   8E2F 004E800706E9000000000000
116   8E3B                 db 000h, 03Ch, 080h, 007h, 00Dh, 0D5h, 080h, 000h, 000h, 000h, 000h, 000h
116   8E3B 003C80070DD5800000000000
117   8E47                 db 000h, 020h, 060h, 00Eh, 039h, 0B7h, 080h, 000h, 000h, 000h, 000h, 000h ; 14
117   8E47 0020600E39B7800000000000
118   8E53                 db 000h, 060h, 01Fh, 0FCh, 07Bh, 0FFh, 080h, 000h, 000h, 000h, 000h, 000h
118   8E53 00601FFC7BFF800000000000
119   8E5F                 db 000h, 060h, 000h, 000h, 073h, 04Fh, 0C0h, 000h, 000h, 000h, 000h, 000h
119   8E5F 00600000734FC00000000000
120   8E6B                 db 000h, 060h, 000h, 000h, 066h, 0DFh, 0C0h, 000h, 000h, 000h, 000h, 000h
120   8E6B 0060000066DFC00000000000
121   8E77                 db 000h, 060h, 000h, 000h, 0DCh, 09Bh, 0C0h, 000h, 000h, 000h, 000h, 000h
121   8E77 00600000DC9BC00000000000
122   8E83                 db 000h, 060h, 000h, 000h, 0D9h, 0BBh, 040h, 000h, 000h, 000h, 000h, 000h
122   8E83 00600000D9BB400000000000
123   8E8F                 db 000h, 0C0h, 000h, 000h, 0F3h, 039h, 060h, 000h, 000h, 000h, 000h, 000h
123   8E8F 00C00000F339600000000000
124   8E9B                 db 000h, 0C0h, 000h, 000h, 0E7h, 079h, 020h, 000h, 000h, 000h, 000h, 000h
124   8E9B 00C00000E779200000000000
125   8EA7                 db 000h, 0C0h, 000h, 001h, 0CEh, 079h, 0A0h, 000h, 000h, 000h, 000h, 000h ; 15
125   8EA7 00C00001CE79A00000000000
126   8EB3                 db 000h, 0C0h, 000h, 003h, 08Ch, 0D9h, 090h, 000h, 000h, 000h, 000h, 000h
126   8EB3 00C000038CD9900000000000
127   8EBF                 db 000h, 0C0h, 000h, 003h, 099h, 0D9h, 088h, 000h, 000h, 000h, 000h, 000h
127   8EBF 00C0000399D9880000000000
128   8ECB                 db 000h, 0C0h, 000h, 002h, 00Bh, 039h, 088h, 000h, 000h, 000h, 000h, 000h
128   8ECB 00C000020B39880000000000
129   8ED7                 db 000h, 0C0h, 000h, 000h, 00Fh, 079h, 084h, 000h, 000h, 000h, 000h, 000h
129   8ED7 00C000000F79840000000000
130   8EE3                 db 000h, 080h, 000h, 000h, 01Eh, 069h, 084h, 000h, 000h, 000h, 000h, 000h
130   8EE3 008000001E69840000000000
131   8EEF                 db 000h, 080h, 000h, 000h, 01Ch, 0D9h, 084h, 000h, 000h, 000h, 000h, 000h
131   8EEF 008000001CD9840000000000
132   8EFB                 db 000h, 080h, 000h, 000h, 03Ch, 0D9h, 082h, 000h, 000h, 000h, 000h, 000h
132   8EFB 008000003CD9820000000000
133   8F07                 db 000h, 080h, 000h, 000h, 039h, 093h, 002h, 000h, 000h, 000h, 000h, 000h ; 16
133   8F07 008000003993020000000000
134   8F13                 db 001h, 080h, 000h, 000h, 071h, 093h, 001h, 000h, 000h, 000h, 000h, 000h
134   8F13 018000007193010000000000
135   8F1F                 db 001h, 080h, 000h, 000h, 0E3h, 093h, 000h, 080h, 000h, 000h, 000h, 000h
135   8F1F 01800000E393008000000000
136   8F2B                 db 001h, 080h, 000h, 000h, 0E3h, 033h, 000h, 080h, 000h, 000h, 000h, 000h
136   8F2B 01800000E333008000000000
137   8F37                 db 001h, 000h, 000h, 001h, 0C7h, 037h, 000h, 040h, 000h, 000h, 000h, 000h
137   8F37 01000001C737004000000000
138   8F43                 db 001h, 000h, 000h, 001h, 086h, 037h, 008h, 040h, 000h, 000h, 000h, 000h
138   8F43 010000018637084000000000
139   8F4F                 db 001h, 000h, 000h, 001h, 00Eh, 037h, 01Ch, 040h, 000h, 000h, 000h, 000h
139   8F4F 010000010E371C4000000000
140   8F5B                 db 001h, 000h, 000h, 000h, 00Ch, 037h, 01Eh, 020h, 000h, 000h, 000h, 000h
140   8F5B 010000000C371E2000000000
141   8F67                 db 001h, 000h, 000h, 000h, 01Ch, 077h, 01Fh, 020h, 000h, 000h, 000h, 000h ; 17
141   8F67 010000001C771F2000000000
142   8F73                 db 003h, 000h, 000h, 000h, 038h, 067h, 01Fh, 090h, 000h, 000h, 000h, 000h
142   8F73 0300000038671F9000000000
143   8F7F                 db 003h, 000h, 000h, 000h, 078h, 067h, 01Fh, 090h, 000h, 000h, 000h, 000h
143   8F7F 0300000078671F9000000000
144   8F8B                 db 002h, 000h, 000h, 000h, 070h, 0E7h, 01Fh, 0C8h, 000h, 000h, 000h, 000h
144   8F8B 0200000070E71FC800000000
145   8F97                 db 002h, 000h, 000h, 000h, 0E0h, 0E7h, 01Fh, 0C8h, 000h, 000h, 000h, 000h
145   8F97 02000000E0E71FC800000000
146   8FA3                 db 002h, 000h, 000h, 001h, 0E0h, 0E7h, 01Fh, 0E4h, 000h, 000h, 000h, 000h
146   8FA3 02000001E0E71FE400000000
147   8FAF                 db 002h, 000h, 000h, 001h, 0C0h, 0E7h, 01Fh, 0F4h, 000h, 000h, 000h, 000h
147   8FAF 02000001C0E71FF400000000
148   8FBB                 db 002h, 000h, 000h, 003h, 081h, 0E7h, 01Fh, 0FCh, 000h, 000h, 000h, 000h
148   8FBB 0200000381E71FFC00000000
149   8FC7                 db 002h, 000h, 000h, 003h, 081h, 0CEh, 00Fh, 0FAh, 000h, 000h, 000h, 000h ; 18
149   8FC7 0200000381CE0FFA00000000
150   8FD3                 db 002h, 000h, 000h, 007h, 001h, 08Eh, 00Fh, 0FEh, 000h, 000h, 000h, 000h
150   8FD3 02000007018E0FFE00000000
151   8FDF                 db 002h, 000h, 000h, 007h, 003h, 08Eh, 007h, 0FFh, 000h, 000h, 000h, 000h
151   8FDF 02000007038E07FF00000000
152   8FEB                 db 002h, 000h, 000h, 00Eh, 003h, 08Eh, 003h, 0FFh, 000h, 000h, 000h, 000h
152   8FEB 0200000E038E03FF00000000
153   8FF7                 db 002h, 000h, 000h, 00Ch, 003h, 00Eh, 001h, 0FFh, 080h, 000h, 000h, 000h
153   8FF7 0200000C030E01FF80000000
154   9003                 db 004h, 000h, 000h, 00Ch, 007h, 00Eh, 001h, 0FFh, 080h, 000h, 000h, 000h
154   9003 0400000C070E01FF80000000
155   900F                 db 004h, 000h, 000h, 000h, 00Eh, 00Eh, 000h, 0FFh, 080h, 000h, 000h, 000h
155   900F 040000000E0E00FF80000000
156   901B                 db 004h, 000h, 000h, 000h, 00Eh, 00Eh, 000h, 0FFh, 0C0h, 000h, 000h, 000h
156   901B 040000000E0E00FFC0000000
157   9027                 db 004h, 000h, 000h, 000h, 00Ch, 00Eh, 000h, 07Fh, 0C0h, 000h, 000h, 000h ; 19
157   9027 040000000C0E007FC0000000
158   9033                 db 004h, 000h, 000h, 000h, 018h, 00Eh, 000h, 03Fh, 0E0h, 000h, 000h, 000h
158   9033 04000000180E003FE0000000
159   903F                 db 004h, 000h, 000h, 000h, 018h, 00Eh, 000h, 01Fh, 0E0h, 000h, 000h, 000h
159   903F 04000000180E001FE0000000
160   904B                 db 004h, 000h, 000h, 000h, 030h, 00Eh, 000h, 007h, 0F0h, 000h, 000h, 000h
160   904B 04000000300E0007F0000000
161   9057                 db 004h, 000h, 000h, 000h, 020h, 00Eh, 000h, 003h, 0F0h, 000h, 000h, 000h
161   9057 04000000200E0003F0000000
162   9063                 db 004h, 000h, 000h, 000h, 000h, 00Eh, 000h, 003h, 0F8h, 000h, 000h, 000h
162   9063 04000000000E0003F8000000
163   906F                 db 004h, 000h, 000h, 000h, 000h, 00Eh, 000h, 00Fh, 0FCh, 000h, 000h, 000h
163   906F 04000000000E000FFC000000
164   907B                 db 004h, 000h, 000h, 000h, 000h, 00Eh, 080h, 00Fh, 0FCh, 000h, 000h, 000h
164   907B 04000000000E800FFC000000
165   9087                 db 004h, 000h, 000h, 000h, 000h, 00Eh, 040h, 007h, 0FCh, 000h, 000h, 000h ; 20
165   9087 04000000000E4007FC000000
166   9093                 db 004h, 000h, 000h, 000h, 000h, 00Eh, 040h, 003h, 0FEh, 000h, 000h, 000h
166   9093 04000000000E4003FE000000
167   909F                 db 004h, 000h, 000h, 000h, 000h, 01Eh, 020h, 003h, 0FEh, 000h, 000h, 000h
167   909F 04000000001E2003FE000000
168   90AB                 db 004h, 000h, 000h, 000h, 000h, 01Eh, 010h, 001h, 0FEh, 000h, 000h, 000h
168   90AB 04000000001E1001FE000000
169   90B7                 db 004h, 000h, 000h, 000h, 000h, 01Eh, 010h, 000h, 0FFh, 000h, 000h, 000h
169   90B7 04000000001E1000FF000000
170   90C3                 db 004h, 000h, 000h, 000h, 000h, 01Eh, 008h, 000h, 07Fh, 000h, 000h, 000h
170   90C3 04000000001E08007F000000
171   90CF                 db 004h, 000h, 000h, 000h, 000h, 01Eh, 004h, 000h, 00Fh, 000h, 000h, 000h
171   90CF 04000000001E04000F000000
172   90DB                 db 004h, 000h, 000h, 000h, 000h, 01Eh, 004h, 000h, 003h, 000h, 000h, 000h
172   90DB 04000000001E040003000000
173   90E7                 db 004h, 000h, 000h, 000h, 000h, 01Eh, 002h, 000h, 001h, 000h, 000h, 000h ; 21
173   90E7 04000000001E020001000000
174   90F3                 db 004h, 000h, 000h, 000h, 000h, 01Eh, 001h, 000h, 001h, 000h, 000h, 000h
174   90F3 04000000001E010001000000
175   90FF                 db 004h, 000h, 000h, 000h, 000h, 03Eh, 001h, 000h, 001h, 000h, 000h, 000h
175   90FF 04000000003E010001000000
176   910B                 db 004h, 000h, 000h, 000h, 000h, 03Eh, 000h, 080h, 001h, 000h, 000h, 000h
176   910B 04000000003E008001000000
177   9117                 db 008h, 000h, 000h, 000h, 000h, 03Eh, 001h, 000h, 003h, 000h, 000h, 000h
177   9117 08000000003E010003000000
178   9123                 db 008h, 000h, 000h, 000h, 000h, 03Eh, 001h, 000h, 032h, 000h, 000h, 000h
178   9123 08000000003E010032000000
179   912F                 db 008h, 000h, 000h, 000h, 000h, 03Eh, 002h, 000h, 033h, 000h, 000h, 000h
179   912F 08000000003E020033000000
180   913B                 db 008h, 000h, 000h, 000h, 000h, 03Eh, 004h, 000h, 032h, 000h, 000h, 000h
180   913B 08000000003E040032000000
181   9147                 db 008h, 000h, 000h, 000h, 000h, 03Eh, 004h, 000h, 024h, 000h, 000h, 000h ; 22
181   9147 08000000003E040024000000
182   9153                 db 008h, 000h, 000h, 000h, 000h, 07Eh, 008h, 000h, 004h, 000h, 000h, 000h
182   9153 08000000007E080004000000
183   915F                 db 008h, 000h, 000h, 000h, 000h, 07Eh, 008h, 000h, 008h, 000h, 000h, 000h
183   915F 08000000007E080008000000
184   916B                 db 008h, 000h, 000h, 000h, 000h, 07Eh, 010h, 000h, 008h, 000h, 000h, 000h
184   916B 08000000007E100008000000
185   9177                 db 008h, 000h, 000h, 000h, 000h, 07Eh, 020h, 0F0h, 010h, 000h, 000h, 000h
185   9177 08000000007E20F010000000
186   9183                 db 008h, 000h, 000h, 000h, 000h, 07Ch, 020h, 078h, 010h, 000h, 000h, 000h
186   9183 08000000007C207810000000
187   918F                 db 008h, 000h, 000h, 000h, 000h, 07Ch, 040h, 0B0h, 020h, 000h, 000h, 000h
187   918F 08000000007C40B020000000
188   919B                 db 008h, 000h, 000h, 000h, 000h, 0FCh, 081h, 0B8h, 020h, 000h, 000h, 000h
188   919B 0800000000FC81B820000000
189   91A7                 db 008h, 000h, 000h, 000h, 000h, 0FCh, 080h, 0D4h, 040h, 000h, 000h, 000h ; 23
189   91A7 0800000000FC80D440000000
190   91B3                 db 008h, 000h, 000h, 000h, 000h, 0F9h, 001h, 0D0h, 040h, 000h, 000h, 000h
190   91B3 0800000000F901D040000000
191   91BF                 db 008h, 000h, 000h, 000h, 000h, 0FAh, 007h, 038h, 080h, 000h, 000h, 000h
191   91BF 0800000000FA073880000000
192   91CB                 db 008h, 000h, 000h, 000h, 001h, 0F2h, 003h, 021h, 000h, 000h, 000h, 000h
192   91CB 0800000001F2032100000000
193   91D7                 db 00Eh, 000h, 000h, 000h, 001h, 0C4h, 001h, 081h, 000h, 000h, 000h, 000h
193   91D7 0E00000001C4018100000000
194   91E3                 db 001h, 0C0h, 000h, 000h, 006h, 004h, 000h, 002h, 000h, 000h, 000h, 000h
194   91E3 01C000000604000200000000
195   91EF                 db 000h, 03Eh, 000h, 000h, 038h, 008h, 000h, 004h, 000h, 000h, 000h, 000h
195   91EF 003E00003808000400000000
196   91FB                 db 000h, 001h, 0FFh, 0FFh, 0C0h, 010h, 000h, 008h, 000h, 000h, 000h, 000h
196   91FB 0001FFFFC010000800000000
197   9207                 ; Color attributes
198   9207                 db 045h, 045h, 045h, 007h, 007h, 007h, 045h, 045h, 045h, 045h, 045h, 045h ; 0
198   9207 454545070707454545454545
199   9213                 db 045h, 045h, 045h, 007h, 007h, 007h, 007h, 045h, 045h, 045h, 001h, 045h ; 1
199   9213 454545070707074545450145
200   921F                 db 045h, 045h, 007h, 007h, 007h, 046h, 007h, 007h, 045h, 006h, 001h, 045h ; 2
200   921F 454507070746070745060145
201   922B                 db 045h, 045h, 007h, 007h, 046h, 046h, 007h, 007h, 045h, 006h, 006h, 045h ; 3
201   922B 454507074646070745060645
202   9237                 db 045h, 045h, 007h, 007h, 046h, 046h, 007h, 007h, 007h, 006h, 045h, 045h ; 4
202   9237 454507074646070707064545
203   9243                 db 045h, 042h, 042h, 007h, 007h, 045h, 007h, 007h, 006h, 006h, 045h, 045h ; 5
203   9243 454242070745070706064545
204   924F                 db 045h, 042h, 042h, 042h, 042h, 042h, 042h, 045h, 006h, 045h, 046h, 046h ; 6
204   924F 454242424242424506454646
205   925B                 db 045h, 042h, 045h, 042h, 042h, 042h, 042h, 046h, 006h, 045h, 046h, 046h ; 7
205   925B 454245424242424606454646
206   9267                 db 045h, 042h, 045h, 042h, 042h, 042h, 042h, 046h, 042h, 042h, 046h, 046h ; 8
206   9267 454245424242424642424646
207   9273                 db 045h, 042h, 045h, 042h, 042h, 042h, 042h, 042h, 042h, 042h, 046h, 045h ; 9
207   9273 454245424242424242424645
208   927F                 db 045h, 042h, 042h, 042h, 042h, 042h, 042h, 042h, 042h, 042h, 045h, 045h ; 10
208   927F 454242424242424242424545
209   928B                 db 045h, 042h, 045h, 042h, 042h, 042h, 042h, 042h, 042h, 042h, 045h, 045h ; 11
209   928B 454245424242424242424545
210   9297                 db 042h, 042h, 042h, 042h, 042h, 042h, 042h, 042h, 045h, 045h, 045h, 045h ; 12
210   9297 424242424242424245454545
211   92A3                 db 042h, 042h, 042h, 042h, 042h, 042h, 042h, 045h, 045h, 045h, 045h, 045h ; 13
211   92A3 424242424242424545454545
212   92AF                 db 045h, 042h, 042h, 042h, 042h, 042h, 042h, 045h, 045h, 045h, 045h, 045h ; 14
212   92AF 454242424242424545454545
213   92BB                 db 045h, 042h, 045h, 042h, 042h, 042h, 042h, 045h, 045h, 045h, 045h, 045h ; 15
213   92BB 454245424242424545454545
214   92C7                 db 042h, 042h, 045h, 042h, 042h, 042h, 042h, 042h, 045h, 045h, 045h, 045h ; 16
214   92C7 424245424242424245454545
215   92D3                 db 042h, 045h, 045h, 042h, 042h, 042h, 042h, 042h, 045h, 045h, 045h, 045h ; 17
215   92D3 424545424242424245454545
216   92DF                 db 042h, 045h, 045h, 042h, 042h, 042h, 042h, 042h, 042h, 045h, 045h, 045h ; 18
216   92DF 424545424242424242454545
217   92EB                 db 042h, 045h, 045h, 045h, 042h, 042h, 042h, 042h, 042h, 045h, 045h, 045h ; 19
217   92EB 424545454242424242454545
218   92F7                 db 042h, 045h, 045h, 045h, 045h, 042h, 042h, 042h, 042h, 045h, 045h, 045h ; 20
218   92F7 424545454542424242454545
219   9303                 db 042h, 045h, 045h, 045h, 045h, 042h, 042h, 042h, 042h, 045h, 045h, 045h ; 21
219   9303 424545454542424242454545
220   930F                 db 042h, 045h, 045h, 045h, 045h, 042h, 042h, 042h, 042h, 045h, 045h, 045h ; 22
220   930F 424545454542424242454545
221   931B                 db 042h, 042h, 042h, 042h, 042h, 042h, 042h, 042h, 042h, 045h, 045h, 045h ; 23
221   931B 424242424242424242454545
222   9327             
001   9327             ; ZX Spectrum test (c) 30-10-2019 Alemorf aleksey.f.morozov@gmail.com
002   9327             
003   9327             ; Структура описывающая искру
004   9327             
005   9327             SPARK_TBL_X     = 0
006   9327             SPARK_TBL_Y     = 2
007   9327             SPARK_TBL_DX    = 4
008   9327             SPARK_TBL_DY    = 6
009   9327             SPARK_TBL_L     = 8
010   9327             SPARK_TBL_ADDR  = 9
011   9327             SPARK_TBL_MASK  = 11
012   9327             SPARK_TBL_SIZE  = 12 ; Размер одного элемента
013   9327             SPARK_TBL_COUNT = 128 ; Кол-во элментов
014   9327             SPARK_TBL       = 0FE00h - SPARK_TBL_SIZE * SPARK_TBL_COUNT
015   9327             SPARK_INIT_X    = SPARK_TBL - 1
016   9327             SPARK_INIT_Y    = SPARK_TBL - 2
017   9327             
018   9327             ;-------------------------------------------------------------------------------
019   9327             ; Рассчитать псевдослучайное число
020   9327             
021   9327 ED 5F       rand:    LD    A, R
022   9329 C6 00       rand_1:  ADD   0
023   932B 5F                  LD    E, A
024   932C 87                  ADD   A
025   932D 87                  ADD   A
026   932E 83                  ADD   E
027   932F 3C                  INC   A
028   9330 32 2A 93            LD    (rand_1 + 1), A
029   9333 C9                  RET
030   9334             
031   9334             ;-------------------------------------------------------------------------------
032   9334             ; Выключить все искры. Необходимо вызхвать после очистки экрана.
033   9334             ; Сохраняет: BC', DE', HL', IX, IY
034   9334             
035   9334             sparkReset: 
036   9334 21 08 F8            LD    HL, SPARK_TBL + SPARK_TBL_L
037   9337 11 0C 00            LD    DE, SPARK_TBL_SIZE
038   933A 06 80               LD    B,  SPARK_TBL_COUNT
039   933C AF                  XOR   A
040   933D             sparkInit_1: 
041   933D 77                  LD    (HL), A
042   933E 19                  ADD   HL, DE
043   933F 10 FC               DJNZ  sparkInit_1
044   9341 C9                  RET
045   9342             
046   9342             ;-------------------------------------------------------------------------------
047   9342             ; Обработать все искры
048   9342             ; Не сохраняет регистры
049   9342             
050   9342             sparkDo: 
051   9342 06 80               LD    B,  SPARK_TBL_COUNT
052   9344 DD 21 00 F8         LD    IX, SPARK_TBL
053   9348             sparkDo_1: 
054   9348 C5                  PUSH  BC
055   9349 CD 5D 93            CALL  sparkOne
056   934C 01 0C 00            LD    BC, SPARK_TBL_SIZE
057   934F DD 09               ADD   IX, BC
058   9351 C1                  POP   BC
059   9352 10 F4               DJNZ  sparkDo_1
060   9354 C9                  RET
061   9355             
062   9355             ;-------------------------------------------------------------------------------
063   9355             ; Обработать одну искру
064   9355             ; Вход/выход: IX - адрес объекта искры
065   9355             
066   9355             pixelMaskTbl db 80h, 40h, 20h, 10h, 8, 4, 2, 1
066   9355 8040201008040201
067   935D             
068   935D             sparkOne: 
069   935D                     ; Если искра не создана, то создаём
070   935D DD 7E 08            LD    A, (IX + SPARK_TBL_L)
071   9360 B7                  OR    A
072   9361 CA D5 93            JP    Z, sparkCreate
073   9364             
074   9364                     ; Стираем искру с экрана
075   9364                     LD    HL, (IX + SPARK_TBL_ADDR)
075   9364 DD6E09DD660A
076   936A DD 7E 0B            LD    A, (IX + SPARK_TBL_MASK)
077   936D AE                  XOR   (HL)
078   936E 77                  LD    (HL), A
079   936F             
080   936F                     ; Закончилось время слуществования искры
081   936F DD 35 08            DEC   (IX + SPARK_TBL_L)
082   9372 CA D5 93            JP    Z, sparkCreate
083   9375             
084   9375                     ; Ускорение по Y
085   9375 01 14 00            LD    BC, 20
086   9378                     LD    HL, (IX + SPARK_TBL_DY)
086   9378 DD6E06DD6607
087   937E 09                  ADD   HL, BC ; dy
088   937F EB                  EX    HL, DE
089   9380             
090   9380                     ; Перемещение по Y
091   9380                     LD    HL, (IX + SPARK_TBL_Y)
091   9380 DD6E02DD6603
092   9386 19                  ADD   HL, DE ; y
093   9387             
094   9387                     ; За пределами экрана по Y
095   9387 7C                  LD    A, H
096   9388 FE C0               CP    192
097   938A D2 FD 93            JP    NC, sparkDisable
098   938D             
099   938D                     ; Перемещение по X
100   938D D9                  EXX
101   938E                     LD    HL, (IX + SPARK_TBL_X)
101   938E DD6E00DD6601
102   9394                     LD    DE, (IX + SPARK_TBL_DX)
102   9394 DD5E04DD5605
103   939A 19                  ADD   HL, DE ; x
104   939B D9                  EXX
105   939C             
106   939C                     ; За пределами экрана по X
107   939C DA FD 93            JP    C, sparkDisable
108   939F             
109   939F             sparkCreated: 
110   939F                     ; Сохранение координат
111   939F                     LD    (IX + SPARK_TBL_Y), HL
111   939F DD7502DD7403
112   93A5                     LD    (IX + SPARK_TBL_DY), DE
112   93A5 DD7306DD7207
113   93AB D9                  EXX
114   93AC                     LD    (IX + SPARK_TBL_X), HL
114   93AC DD7500DD7401
115   93B2                     LD    (IX + SPARK_TBL_DX), DE
115   93B2 DD7304DD7205
116   93B8 D9                  EXX
117   93B9             
118   93B9                     ; Вычисление экранных координат
119   93B9 D9                  EXX
120   93BA 7C                  LD    A, H ; X
121   93BB D9                  EXX
122   93BC 6F                  LD    L, A
123   93BD CD 75 60            CALL  gCalcCoords
124   93C0             
125   93C0                     ; Вычисление маски (a = 80h >> c)
126   93C0 3E 55               LD     A, pixelMaskTbl & 0xFF
127   93C2 81                  ADD    C
128   93C3 5F                  LD     E, A
129   93C4 CE 93               ADC    pixelMaskTbl >> 8
130   93C6 93                  SUB    E
131   93C7 57                  LD     D, A
132   93C8 1A                  LD     A, (DE)
133   93C9             
134   93C9                     ; Сохряняем вычисленные значения для стирания искры
135   93C9                     LD    (IX + SPARK_TBL_ADDR), HL
135   93C9 DD7509DD740A
136   93CF DD 77 0B            LD    (IX + SPARK_TBL_MASK), A
137   93D2             
138   93D2                     ; Рисование искры
139   93D2 AE                  XOR   (HL)
140   93D3 77                  LD    (HL), A
141   93D4 C9                  RET
142   93D5             
143   93D5             ;-------------------------------------------------------------------------------
144   93D5             ; Создать новую искру
145   93D5             
146   93D5             sparkCreate: 
147   93D5                     ; dy
148   93D5 CD 27 93            CALL  rand
149   93D8 5F                  LD    E, A
150   93D9 16 00               LD    D, 0
151   93DB             
152   93DB                     ; y
153   93DB 3A FE F7            LD    A, (SPARK_INIT_Y)
154   93DE 67                  LD    H, A
155   93DF 2E 00               LD    L, 0
156   93E1             
157   93E1                     ; dx
158   93E1 D9                  EXX
159   93E2 CD 27 93            CALL  rand
160   93E5 5F                  LD    E, A
161   93E6 16 02               LD    D, 2
162   93E8             
163   93E8                     ; x
164   93E8 3A FF F7            LD    A, (SPARK_INIT_X)
165   93EB B7                  OR    A
166   93EC C8                  RET   Z
167   93ED 67                  LD    H, A
168   93EE 2E 00               LD    L, 0
169   93F0 D9                  EXX
170   93F1             
171   93F1                     ; l
172   93F1 CD 27 93            CALL  rand
173   93F4 E6 1F               AND   31
174   93F6 3C                  INC   A
175   93F7 DD 77 08            LD    (IX + SPARK_TBL_L), A
176   93FA             
177   93FA C3 9F 93            JP    sparkCreated
178   93FD             
179   93FD             ;-------------------------------------------------------------------------------
180   93FD             
181   93FD             sparkDisable: 
182   93FD DD 36 08 00         LD    (IX + SPARK_TBL_L), 0
183   9401 C9                  RET
184   9402             
001   9402                 ; 2 // (c) Морозов Алексей
002   9402                 ; 3 // Главное меню.
003   9402                 ; 5 const int KEY_UP = 1;
004   9402                 ; 6 const int KEY_DOWN = 2;
005   9402                 ; 7 const int KEY_LEFT = 4;
006   9402                 ; 8 const int KEY_RIGHT = 8;
007   9402                 ; 9 const int KEY_FIRE = 16;
008   9402                 ; 11 const int menuLogoX      = 1;
009   9402                 ; 12 const int menuLogoY      = 1;
010   9402                 ; 13 const int menuItemH      = 10;
011   9402                 ; 14 const int menuItemsY     = 100;
012   9402                 ; 15 const int menuItemsX     = 80;
013   9402                 ; 16 const int menuItemsSX    = 72;
014   9402                 ; 17 const int menuItemsCount = 3;
015   9402                 ; 18 const int menuItemsM     = menuItemsCount * menuItemH;
016   9402                 ; 20 uint8_t menuX = 0;
017   9402 00          menuX db 0
018   9403                 ; 21 uint8_t menuX1 = 0;
019   9403 00          menuX1 db 0
020   9404                 ; 23 uint16_t test;
021   9404 00 00       test dw 0
022   9406                 ; 25 void menuDrawCursor()
023   9406             menuDrawCursor: 
024   9406                 ; 26 {
025   9406                 ; 27 gDrawTextEx(h = ((a = menuX1) += menuItemsY), l = menuItemsSX, de = "@", a = 0x44);
026   9406 3A 03 94        ld   a, (menuX1)
027   9409 C6 64           add  100
028   940B 67              ld   h, a
029   940C 2E 48           ld   l, 72
030   940E 11 D3 94        ld   de, s0
031   9411 3E 44           ld   a, 68
032   9413 CD 69 60        call gDrawTextEx
033   9416                 ; 28 }
034   9416 C9              ret
035   9417                 ; 30 void wait()
036   9417             wait: 
037   9417                 ; 31 {
038   9417                 ; 32 hl = &gFrame;
039   9417 21 84 60        ld   hl, gFrame
040   941A                 ; 33 a ^= a;
041   941A AF              xor  a
042   941B                 ; 34 do { a |= *hl; } while(flag_z);
043   941B             l0: 
044   941B B6              or   (hl)
045   941C CA 1B 94        jp   z, l0
046   941F                 ; 35 *hl = 0;
047   941F 36 00           ld   (hl), 0
048   9421                 ; 36 }
049   9421 C9              ret
050   9422                 ; 38 void main()
051   9422             main: 
052   9422                 ; 39 {
053   9422                 ; 40 gClearScreen(a = 0x45);
054   9422 3E 45           ld   a, 69
055   9424 CD 6C 60        call gClearScreen
056   9427                 ; 41 gDrawImage(de = [0x5800 + menuLogoX + (menuLogoY << 5)], hl = &image_logo);
057   9427 11 21 58        ld   de, 22561
058   942A 21 1F 74        ld   hl, image_logo
059   942D CD 6F 60        call gDrawImage
060   9430                 ; 42 gDrawTextEx(a = 0x45, hl = [(menuItemsY + menuItemH * 0) * 256 + menuItemsX], de = "Начать новую игру");
061   9430 3E 45           ld   a, 69
062   9432 21 50 64        ld   hl, 25680
063   9435 11 61 95        ld   de, s1
064   9438 CD 69 60        call gDrawTextEx
065   943B                 ; 43 gDrawTextEx(a = 0x45, hl = [(menuItemsY + menuItemH * 1) * 256 + menuItemsX], de = "Настроить управление");
066   943B 3E 45           ld   a, 69
067   943D 21 50 6E        ld   hl, 28240
068   9440 11 4C 95        ld   de, s2
069   9443 CD 69 60        call gDrawTextEx
070   9446                 ; 44 gDrawTextEx(a = 0x45, hl = [(menuItemsY + menuItemH * 2) * 256 + menuItemsX], de = "Ввести пароль");
071   9446 3E 45           ld   a, 69
072   9448 21 50 78        ld   hl, 30800
073   944B 11 DA 94        ld   de, s3
074   944E CD 69 60        call gDrawTextEx
075   9451                 ; 46 gDrawTextCenter(a = 0x43, h = [192 - 8 - menuItemH * 2], de = "Игра | 2019 Алексей {Alemorf} Морозов");
076   9451 3E 43           ld   a, 67
077   9453 26 A4           ld   h, 164
078   9455 11 FF 94        ld   de, s4
079   9458 CD 66 60        call gDrawTextCenter
080   945B                 ; 47 gDrawTextCenter(a = 0x43, h = [192 - 8 - menuItemH * 1], de = "Мюзикл | 1998 Антон {Саруман} Круглов,");
081   945B 3E 43           ld   a, 67
082   945D 26 AE           ld   h, 174
083   945F 11 25 95        ld   de, s5
084   9462 CD 66 60        call gDrawTextCenter
085   9465                 ; 48 gDrawTextCenter(a = 0x43, h = [192 - 8 - menuItemH * 0], de = "Елена {Мириам} Ханпира");
086   9465 3E 43           ld   a, 67
087   9467 26 B8           ld   h, 184
088   9469 11 E8 94        ld   de, s6
089   946C CD 66 60        call gDrawTextCenter
090   946F                 ; 50 menuX = a ^= a;
091   946F AF              xor  a
092   9470 32 02 94        ld   (menuX), a
093   9473                 ; 51 menuX1 = (++a);
094   9473 3C              inc  a
095   9474 32 03 94        ld   (menuX1), a
096   9477                 ; 53 menuDrawCursor();
097   9477 CD 06 94        call menuDrawCursor
098   947A                 ; 55 while()
099   947A             l1: 
100   947A                 ; 56 {
101   947A                 ; 57 wait();
102   947A CD 17 94        call wait
103   947D                 ; 58 menuTick();
104   947D CD 85 94        call menuTick
105   9480                 ; 59 }
106   9480 C3 7A 94        jp   l1
107   9483                 ; 60 return;
108   9483 C9              ret
109   9484                 ; 61 }
110   9484 C9              ret
111   9485                 ; 63 void menuTick()
112   9485             menuTick: 
113   9485                 ; 64 {
114   9485                 ; 65 // Получить нажатую клавишу
115   9485                 ; 66 hl = &gKeyTrigger;
116   9485 21 87 60        ld   hl, gKeyTrigger
117   9488                 ; 67 b = *hl;
118   9488 46              ld   b, (hl)
119   9489                 ; 68 *hl = 0;
120   9489 36 00           ld   (hl), 0
121   948B                 ; 70 // Нажат выстрел
122   948B                 ; 71 a = menuX;
123   948B 3A 02 94        ld   a, (menuX)
124   948E                 ; 72 if (b & KEY_FIRE)
125   948E CB 60           bit  4, b
126   9490                 ; 73 {
127   9490 CA A1 94        jp   z, l3
128   9493                 ; 74 if (a == [0 * menuItemH]) return gExec(hl = "city");
129   9493 FE 00           cp   0
130   9495 21 D5 94        ld   hl, s7
131   9498 CA 7B 60        jp   z, gExec
132   949B                 ; 75 if (a == [1 * menuItemH]) return intro();
133   949B FE 0A           cp   10
134   949D CA 03 70        jp   z, intro
135   94A0                 ; 76 //if (a == [2 * menuItemH]) return loadGame();
136   94A0                 ; 77 //return saveGame();
137   94A0                 ; 78 return;
138   94A0 C9              ret
139   94A1                 ; 79 }
140   94A1                 ; 81 // Перемещение курсора
141   94A1                 ; 82 if (b & KEY_UP)
142   94A1             l3: 
143   94A1 CB 40           bit  0, b
144   94A3                 ; 83 {
145   94A3 CA AC 94        jp   z, l4
146   94A6                 ; 84 a -= menuItemH;
147   94A6 D6 0A           sub  10
148   94A8                 ; 85 if (flag_c) return;
149   94A8 D8              ret  c
150   94A9                 ; 86 }
151   94A9                 ; 87 else if (b & KEY_DOWN)
152   94A9 C3 B6 94        jp   l5
153   94AC             l4: 
154   94AC CB 48           bit  1, b
155   94AE                 ; 88 {
156   94AE CA B6 94        jp   z, l6
157   94B1                 ; 89 a += menuItemH;
158   94B1 C6 0A           add  10
159   94B3                 ; 90 if (a >= menuItemsM) return;
160   94B3 FE 1E           cp   30
161   94B5 D0              ret  nc
162   94B6                 ; 91 }
163   94B6                 ; 92 menuX = a;
164   94B6             l6: 
165   94B6             l5: 
166   94B6 32 02 94        ld   (menuX), a
167   94B9                 ; 94 // Плавное перемещение курсора
168   94B9                 ; 95 hl = &menuX1;
169   94B9 21 03 94        ld   hl, menuX1
170   94BC                 ; 96 b = *hl;
171   94BC 46              ld   b, (hl)
172   94BD                 ; 97 if (a == b) return; // Оставит флаг CF при выполнении menuX1 - menuX
173   94BD B8              cp   b
174   94BE C8              ret  z
175   94BF                 ; 98 b++; // Не изменяет CF
176   94BF 04              inc  b
177   94C0                 ; 99 if (flag_c) ----b;
178   94C0 D2 C5 94        jp   nc, l7
179   94C3 05              dec  b
180   94C4 05              dec  b
181   94C5                 ; 101 push(bc);
182   94C5             l7: 
183   94C5 C5              push bc
184   94C6                 ; 102 menuDrawCursor();
185   94C6 CD 06 94        call menuDrawCursor
186   94C9                 ; 103 pop(bc);
187   94C9 C1              pop  bc
188   94CA                 ; 105 *(hl = &menuX1) = b;
189   94CA 21 03 94        ld   hl, menuX1
190   94CD 70              ld   (hl), b
191   94CE                 ; 107 menuDrawCursor();
192   94CE CD 06 94        call menuDrawCursor
193   94D1                 ; 109 return;
194   94D1 C9              ret
195   94D2                 ; 110 }
196   94D2 C9              ret
197   94D3                 ; strings
198   94D3 40 00       s0 db "@",0
199   94D5 6369747900  s7 db "city",0
200   94DA             s3 db "Ввести пароль",0
200   94DA C2E2E5F1F2E820EFE0F0EEEBFC00
201   94E8             s6 db "Елена {Мириам} Ханпира",0
201   94E8 C5EBE5EDE0207BCCE8F0E8E0EC7D20D5E0EDEFE8F0E000
202   94FF             s4 db "Игра | 2019 Алексей {Alemorf} Морозов",0
202   94FF C8E3F0E0207C203230313920C0EBE5EAF1E5E9207B416C656D6F72667D20CCEE
202   951F F0EEE7EEE200
203   9525             s5 db "Мюзикл | 1998 Антон {Саруман} Круглов,",0
203   9525 CCFEE7E8EAEB207C203139393820C0EDF2EEED207BD1E0F0F3ECE0ED7D20CAF0
203   9545 F3E3EBEEE22C00
204   954C             s2 db "Настроить управление",0
204   954C CDE0F1F2F0EEE8F2FC20F3EFF0E0E2EBE5EDE8E500
205   9561             s1 db "Начать новую игру",0
205   9561 CDE0F7E0F2FC20EDEEE2F3FE20E8E3F0F300
206   9573             
001   9573                 savebin "menu/menu.C", begin, $ - begin ; menu/menu.asm menu/intro.asm menu/logo.asm menu/takh.asm menu/rast.asm menu/spark.asm menu/menu2.asm
002   9573             
