001   0000                 DEVICE ZXSPECTRUM128
002   0000             
003   0000                 include "../module.inc"
001+  0000             ;romAddr        = 0
002+  0000             ;screenAddr     = 4000h
003+  0000             ;cacheAddr      = 5B00h
004+  0000             
005+  0000             irqTableAddr      = 5F00h
006+  0000             irqAddr           = 6060h
007+  0000             stackBeginAddr    = 6001h
008+  0000             stackEndAddr      = 605Fh
009+  0000             baseAddr          = 6063h
010+  0000             moduleLoadAddr    = 7000h
011+  0000             moverAddr         = 8000h
012+  0000             
013+  0000             gEnd = baseAddr
014+  0000             
015+  0000             ; Функции
016+  0000             gDrawText         = gEnd
017+  0000             gEnd = gEnd + 3
018+  0000             gDrawTextCenter   = gEnd
019+  0000             gEnd = gEnd + 3
020+  0000             gDrawTextEx       = gEnd
021+  0000             gEnd = gEnd + 3
022+  0000             gClearScreen      = gEnd
023+  0000             gEnd = gEnd + 3
024+  0000             gDrawImage        = gEnd
025+  0000             gEnd = gEnd + 3
026+  0000             gMeasureText      = gEnd
027+  0000             gEnd = gEnd + 3
028+  0000             gCalcCoords       = gEnd
029+  0000             gEnd = gEnd + 3
030+  0000             gDrawCharSub      = gEnd
031+  0000             gEnd = gEnd + 3
032+  0000             gExec             = gEnd
033+  0000             gEnd = gEnd + 3
034+  0000             gLoadFile         = gEnd
035+  0000             gEnd = gEnd + 3
036+  0000             gFarCall          = gEnd
037+  0000             gEnd = gEnd + 3
038+  0000             gIrqHandler       = gEnd
039+  0000             gEnd = gEnd + 3
040+  0000             gDrawPanel        = gEnd
041+  0000             gEnd = gEnd + 3
042+  0000             gBeginDraw        = gEnd
043+  0000             gEnd = gEnd + 3
044+  0000             gEndDraw          = gEnd
045+  0000             gEnd = gEnd + 3
046+  0000             gCopyVideoPage    = gEnd
047+  0000             gEnd = gEnd + 3
048+  0000             gPanelRedraw      = gEnd
049+  0000             gEnd = gEnd + 3
050+  0000             gCopyPanel        = gEnd
051+  0000             gEnd = gEnd + 3
052+  0000             gStringBuffer     = gEnd
053+  0000             gStringBufferSize = 32
054+  0000             gEnd = gEnd + gStringBufferSize
055+  0000             
056+  0000             ; Переменные
057+  0000             gFrame            = gEnd
058+  0000             gEnd = gEnd + 1
059+  0000             gVideoPage        = gEnd
060+  0000             gEnd = gEnd + 1
061+  0000             gSystemPage       = gEnd
062+  0000             gEnd = gEnd + 1
063+  0000             gKeyTrigger       = gEnd
064+  0000             gEnd = gEnd + 1
065+  0000             gKeyPressed       = gEnd
066+  0000             gEnd = gEnd + 1
067+  0000             gPlayerMoney      = gEnd
068+  0000             gEnd = gEnd + 2
069+  0000             gPlayerLut        = gEnd
070+  0000             playerLutMax = 12
071+  0000             gEnd = gEnd + 2 * playerLutMax
072+  0000             gPlayerLutCount   = gEnd
073+  0000             gEnd = gEnd + 1
074+  0000             gPlayerItems      = gEnd
075+  0000             playerItemsMax = 5
076+  0000             gEnd = gEnd + playerItemsMax
077+  0000             gPlayerItemsCount = gEnd
078+  0000             gEnd = gEnd + 1
079+  0000             gPanelChangedA    = gEnd
080+  0000             gEnd = gEnd + 1
081+  0000             gPanelChangedB    = gEnd
082+  0000             gEnd = gEnd + 1
083+  0000             gPlayerSecondWeaponCount = gEnd
084+  0000             gEnd = gEnd + 1
085+  0000             gPlayerSecondWeaponCounters = gEnd
086+  0000             secondWeaponMax = 9
087+  0000             gEnd = gEnd + secondWeaponMax
088+  0000             gPlayerSecondWeaponSel = gEnd
089+  0000             gEnd = gEnd + 1
090+  0000             
091+  0000             ; Другие модули
092+  0000             gPanelgraphPage = 6
093+  0000             gPanelgraph = 0C003h
094+  0000             gPanelX = 0
095+  0000             gPanelY = 20
096+  0000             
004   0000             
005   0000                 org moduleLoadAddr
006   7000             
007   7000             begin: 
008   7000 C3 FE 96        jp main
001   7003             ; ZX Spectrum test (c) 30-10-2019 Alemorf aleksey.f.morozov@gmail.com
002   7003             
003   7003             intro: 
004   7003 11 94 70            LD     DE, introText0  ; Текст
005   7006 21 01 00            LD     HL, 1           ; Координаты текста (H=y,L=x)
006   7009 D9                  EXX
007   700A 11 00 58            LD     DE, 0x5800      ; Координаты Рейстлина (адрес в памяти атрубутов)
008   700D 21 E1 8B            LD     HL, image_rast  ; Рейстлин
009   7010 CD 26 70            CALL   introUniversal
010   7013             
011   7013 11 8E 73            LD     DE, introText1  ; Текст
012   7016 21 00 00            LD     HL, 0           ; Координаты текста (H=y,L=x)
013   7019 D9                  EXX
014   701A 11 10 58            LD     DE, 0x5810      ; Координаты Такхизис (адрес в памяти атрубутов)
015   701D 21 5F 7E            LD     HL, image_takh  ; Рейстлин
016   7020 CD 26 70            CALL   introUniversal
017   7023             
018   7023 C3 FE 96            JP     main
019   7026             
020   7026             ;-------------------------------------------------------------------------------
021   7026             
022   7026             introUniversal: 
023   7026                     ; Сохраняем параметры изображения
024   7026 E5                  PUSH   HL
025   7027 D5                  PUSH   DE
026   7028             
027   7028                     ; Очистка экранов
028   7028 3E 45               LD     A, 45h
029   702A CD 6C 60            CALL   gClearScreen
030   702D             
031   702D                     ; Рисуем изображение
032   702D D1                  POP    DE
033   702E E1                  POP    HL
034   702F CD 6F 60            CALL   gDrawImage
035   7032             
036   7032                     ; Инициализация эффектов
037   7032 CD 10 96            CALL   sparkReset ; Сохраняет EXX, IX, IY
038   7035             
039   7035                     ; Цикл строк. Далее DE - текст, HL - координаты
040   7035 D9                  EXX
041   7036             intro_1: 
042   7036 E5                  PUSH   HL
043   7037             
044   7037                     ; Нужно ли прижать к правому краю?
045   7037 7D                  LD     A, L
046   7038 B7                  OR     A
047   7039 CA 46 70            JP     Z, intro_2
048   703C             
049   703C                     ; Вычисление ширины строки
050   703C D5                  PUSH   DE
051   703D CD 72 60            CALL   gMeasureText
052   7040 D1                  POP    DE
053   7041 E1                  POP    HL
054   7042 E5                  PUSH   HL
055   7043             
056   7043                     ; Вычисление координаты X первого символа
057   7043 AF                  XOR    A
058   7044 91                  SUB    C
059   7045 6F                  LD     L, A
060   7046             intro_2: 
061   7046             
062   7046                     ; Рисование строки
063   7046 CD 66 70            CALL   introDrawText
064   7049             
065   7049                     ; Следующая строка
066   7049 E1                  POP    HL
067   704A 7C                  LD     A, H
068   704B C6 0A               ADD    10
069   704D 67                  LD     H, A
070   704E             
071   704E                     ; Если это не последняя строка, то продолжим
072   704E 1A                  LD     A, (DE)
073   704F B7                  OR     A
074   7050 C2 36 70            JP     NZ, intro_1
075   7053             
076   7053                     ; Новые искры не создавать
077   7053 AF                  XOR    A
078   7054 32 FF F7            LD     (SPARK_INIT_X), A
079   7057             
080   7057             intro_4: 
081   7057                     ; Дожигаем существующие искры
082   7057 CD 1E 96            CALL   sparkDo
083   705A             
084   705A                     ; Если не нажата ни одна клавиша, то продолжаем.
085   705A 01 FE 00            LD     BC, 000FEh
086   705D ED 78               IN     A, (C)
087   705F 2F                  CPL
088   7060 E6 1F               AND    1Fh
089   7062 CA 57 70            JP     Z, intro_4
090   7065             
091   7065 C9                  RET
092   7066             
093   7066             ;-------------------------------------------------------------------------------
094   7066             ; Вывод строки текста
095   7066             
096   7066             introDrawText: 
097   7066 7D                  LD     A, L
098   7067 32 FF F7            LD     (SPARK_INIT_X), A
099   706A 7C                  LD     A, H
100   706B 32 FE F7            LD     (SPARK_INIT_Y), A
101   706E CD 75 60            CALL   gCalcCoords
102   7071             introDrawText_1: 
103   7071 1A                  LD     A, (DE)
104   7072 13                  INC    DE
105   7073 B7                  OR     A
106   7074 C8                  RET    Z
107   7075             
108   7075                     ; Анимация
109   7075 CD 85 70            CALL   intro_3
110   7078             
111   7078 CD 78 60            CALL   gDrawCharSub
112   707B             
113   707B                     ; Перемещаем и искру
114   707B 3A FF F7            LD     A, (SPARK_INIT_X)
115   707E 80                  ADD    B
116   707F 32 FF F7            LD     (SPARK_INIT_X), A
117   7082             
118   7082 C3 71 70            JP     introDrawText_1
119   7085             
120   7085             ;-------------------------------------------------------------------------------
121   7085             
122   7085             intro_3: 
123   7085                     ; Анимация
124   7085 F5                  PUSH   AF
125   7086 C5                  PUSH   BC
126   7087 D5                  PUSH   DE
127   7088 E5                  PUSH   HL
128   7089 CD 1E 96            CALL   sparkDo
129   708C CD 1E 96            CALL   sparkDo
130   708F E1                  POP    HL
131   7090 D1                  POP    DE
132   7091 C1                  POP    BC
133   7092 F1                  POP    AF
134   7093 C9                  RET
135   7094             
136   7094             ;-------------------------------------------------------------------------------
137   7094             
138   7094             introText0: 
139   7094                     db "Величайший маг Рейстлин Маджере", 0
139   7094 D092D0B5D0BBD0B8D187D0B0D0B9D188D0B8D0B920D0BCD0B0D0B320D0A0D0B5
139   70B4 D0B9D181D182D0BBD0B8D0BD20D09CD0B0D0B4D0B6D0B5D180D0B500
140   70D0                     db "- перед этим именем трепетали", 0
140   70D0 2D20D0BFD0B5D180D0B5D0B420D18DD182D0B8D0BC20D0B8D0BCD0B5D0BDD0B5
140   70F0 D0BC20D182D180D0B5D0BFD0B5D182D0B0D0BBD0B800
141   7106                     db "самые искушенные чародеи.", 0
141   7106 D181D0B0D0BCD18BD0B520D0B8D181D0BAD183D188D0B5D0BDD0BDD18BD0B520
141   7126 D187D0B0D180D0BED0B4D0B5D0B82E00
142   7136                     db "Никто из живущих не знал", 0
142   7136 D09DD0B8D0BAD182D0BE20D0B8D0B720D0B6D0B8D0B2D183D189D0B8D18520D0
142   7156 BDD0B520D0B7D0BDD0B0D0BB00
143   7163                     db "пределов его могущества!", 0
143   7163 D0BFD180D0B5D0B4D0B5D0BBD0BED0B220D0B5D0B3D0BE20D0BCD0BED0B3D183
143   7183 D189D0B5D181D182D0B2D0B02100
144   7191 20 00               db " ", 0
145   7193                     db "Однажды из Бездны вырвалась", 0
145   7193 D09ED0B4D0BDD0B0D0B6D0B4D18B20D0B8D0B720D091D0B5D0B7D0B4D0BDD18B
145   71B3 20D0B2D18BD180D0B2D0B0D0BBD0B0D181D18C00
146   71C7                     db "злая богиня Такхизис. Самые", 0
146   71C7 D0B7D0BBD0B0D18F20D0B1D0BED0B3D0B8D0BDD18F20D0A2D0B0D0BAD185D0B8
146   71E7 D0B7D0B8D1812E20D0A1D0B0D0BCD18BD0B500
147   71FA                     db "жуткие кошмары людей стали", 0
147   71FA D0B6D183D182D0BAD0B8D0B520D0BAD0BED188D0BCD0B0D180D18B20D0BBD18E
147   721A D0B4D0B5D0B920D181D182D0B0D0BBD0B800
148   722C                     db "явью. Армии мертвецов сжигали", 0
148   722C D18FD0B2D18CD18E2E20D090D180D0BCD0B8D0B820D0BCD0B5D180D182D0B2D0
148   724C B5D186D0BED0B220D181D0B6D0B8D0B3D0B0D0BBD0B800
149   7263                     db "города дотла не оставляя живых.", 0
149   7263 D0B3D0BED180D0BED0B4D0B020D0B4D0BED182D0BBD0B020D0BDD0B520D0BED1
149   7283 81D182D0B0D0B2D0BBD18FD18F20D0B6D0B8D0B2D18BD1852E00
150   729D 20 00               db " ", 0
151   729F                     db "Рейстлин присягнул на верность", 0
151   729F D0A0D0B5D0B9D181D182D0BBD0B8D0BD20D0BFD180D0B8D181D18FD0B3D0BDD1
151   72BF 83D0BB20D0BDD0B020D0B2D0B5D180D0BDD0BED181D182D18C00
152   72D9                     db "Такхизис и возглавил ее армию.", 0
152   72D9 D0A2D0B0D0BAD185D0B8D0B7D0B8D18120D0B820D0B2D0BED0B7D0B3D0BBD0B0
152   72F9 D0B2D0B8D0BB20D0B5D0B520D0B0D180D0BCD0B8D18E2E00
153   7311                     db "Каждый белый маг поклялся", 0
153   7311 D09AD0B0D0B6D0B4D18BD0B920D0B1D0B5D0BBD18BD0B920D0BCD0B0D0B320D0
153   7331 BFD0BED0BAD0BBD18FD0BBD181D18F00
154   7341                     db "убить его за это.", 0
154   7341 D183D0B1D0B8D182D18C20D0B5D0B3D0BE20D0B7D0B020D18DD182D0BE2E00
155   7360 20 00               db " ", 0
156   7362                     db "(Нажмите любую клавишу)", 0
156   7362 28D09DD0B0D0B6D0BCD0B8D182D0B520D0BBD18ED0B1D183D18E20D0BAD0BBD0
156   7382 B0D0B2D0B8D188D1832900
157   738D 00                  db 0
158   738E             
159   738E             ;-------------------------------------------------------------------------------
160   738E             
161   738E             introText1: 
162   738E                     db "Никто не знал истинных мотивов", 0
162   738E D09DD0B8D0BAD182D0BE20D0BDD0B520D0B7D0BDD0B0D0BB20D0B8D181D182D0
162   73AE B8D0BDD0BDD18BD18520D0BCD0BED182D0B8D0B2D0BED0B200
163   73C7                     db "Рейстлина. Доказав Такхизис свою", 0
163   73C7 D0A0D0B5D0B9D181D182D0BBD0B8D0BDD0B02E20D094D0BED0BAD0B0D0B7D0B0
163   73E7 D0B220D0A2D0B0D0BAD185D0B8D0B7D0B8D18120D181D0B2D0BED18E00
164   7404                     db "преданность и дождавшись момента,", 0
164   7404 D0BFD180D0B5D0B4D0B0D0BDD0BDD0BED181D182D18C20D0B820D0B4D0BED0B6
164   7424 D0B4D0B0D0B2D188D0B8D181D18C20D0BCD0BED0BCD0B5D0BDD182D0B02C00
165   7443                     db "Рейстлин нанес удар ей в спину.", 0
165   7443 D0A0D0B5D0B9D181D182D0BBD0B8D0BD20D0BDD0B0D0BDD0B5D18120D183D0B4
165   7463 D0B0D18020D0B5D0B920D0B220D181D0BFD0B8D0BDD1832E00
166   747C                     db "Он изгнал ее в Бездну и", 0
166   747C D09ED0BD20D0B8D0B7D0B3D0BDD0B0D0BB20D0B5D0B520D0B220D091D0B5D0B7
166   749C D0B4D0BDD18320D0B800
167   74A6                     db "навсегда закрыл Врата.", 0
167   74A6 D0BDD0B0D0B2D181D0B5D0B3D0B4D0B020D0B7D0B0D0BAD180D18BD0BB20D092
167   74C6 D180D0B0D182D0B02E00
168   74D0 20 00               db " ", 0
169   74D2                     db "И теперь каждый черный маг", 0
169   74D2 D09820D182D0B5D0BFD0B5D180D18C20D0BAD0B0D0B6D0B4D18BD0B920D187D0
169   74F2 B5D180D0BDD18BD0B920D0BCD0B0D0B300
170   7503                     db "поклялся убить его. Белые", 0
170   7503 D0BFD0BED0BAD0BBD18FD0BBD181D18F20D183D0B1D0B8D182D18C20D0B5D0B3
170   7523 D0BE2E20D091D0B5D0BBD18BD0B500
171   7532                     db "же маги его не простили.", 0
171   7532 D0B6D0B520D0BCD0B0D0B3D0B820D0B5D0B3D0BE20D0BDD0B520D0BFD180D0BE
171   7552 D181D182D0B8D0BBD0B82E00
172   755E 20 00               db " ", 0
173   7560                     db "За магические знания позволившие", 0
173   7560 D097D0B020D0BCD0B0D0B3D0B8D187D0B5D181D0BAD0B8D0B520D0B7D0BDD0B0
173   7580 D0BDD0B8D18F20D0BFD0BED0B7D0B2D0BED0BBD0B8D0B2D188D0B8D0B500
174   759E                     db "спасти мир Рейстлин заплатил своим", 0
174   759E D181D0BFD0B0D181D182D0B820D0BCD0B8D18020D0A0D0B5D0B9D181D182D0BB
174   75BE D0B8D0BD20D0B7D0B0D0BFD0BBD0B0D182D0B8D0BB20D181D0B2D0BED0B8D0BC
174   75DE 00
175   75DF                     db "здоровьем. Он был болен и", 0
175   75DF D0B7D0B4D0BED180D0BED0B2D18CD0B5D0BC2E20D09ED0BD20D0B1D18BD0BB20
175   75FF D0B1D0BED0BBD0B5D0BD20D0B800
176   760D                     db "чувствовал, что его время уходит.", 0
176   760D D187D183D0B2D181D182D0B2D0BED0B2D0B0D0BB2C20D187D182D0BE20D0B5D0
176   762D B3D0BE20D0B2D180D0B5D0BCD18F20D183D185D0BED0B4D0B8D1822E00
177   764A                     db "Но он знал как все исправить.", 0
177   764A D09DD0BE20D0BED0BD20D0B7D0BDD0B0D0BB20D0BAD0B0D0BA20D0B2D181D0B5
177   766A 20D0B8D181D0BFD180D0B0D0B2D0B8D182D18C2E00
178   767F                     db "Если он спустится в Бездну", 0
178   767F D095D181D0BBD0B820D0BED0BD20D181D0BFD183D181D182D0B8D182D181D18F
178   769F 20D0B220D091D0B5D0B7D0B4D0BDD18300
179   76B0                     db "и убьет Такхизис, то он сам", 0
179   76B0 D0B820D183D0B1D18CD0B5D18220D0A2D0B0D0BAD185D0B8D0B7D0B8D1812C20
179   76D0 D182D0BE20D0BED0BD20D181D0B0D0BC00
180   76E1                     db "станет богом.", 0
180   76E1 D181D182D0B0D0BDD0B5D18220D0B1D0BED0B3D0BED0BC2E00
181   76FA 00                  db 0
182   76FB             
001   76FB             image_logo: 
002   76FB                 ; Width, height
003   76FB 1E 07           db 30, 7
004   76FD                 ; Black & white
005   76FD                 db 000h, 000h, 000h, 000h, 000h, 000h, 000h, 000h, 000h, 000h, 000h, 000h, 000h, 000h, 000h, 000h, 000h, 000h, 000h, 000h, 000h, 000h, 000h, 000h, 000h, 000h, 000h, 000h, 000h, 000h ; 0
005   76FD 000000000000000000000000000000000000000000000000000000000000
006   771B                 db 000h, 000h, 000h, 000h, 000h, 000h, 000h, 000h, 000h, 000h, 000h, 000h, 000h, 000h, 000h, 000h, 000h, 000h, 000h, 000h, 000h, 000h, 000h, 000h, 000h, 000h, 000h, 000h, 000h, 000h
006   771B 000000000000000000000000000000000000000000000000000000000000
007   7739                 db 000h, 000h, 000h, 000h, 000h, 000h, 000h, 000h, 000h, 000h, 000h, 000h, 000h, 000h, 000h, 000h, 000h, 000h, 000h, 000h, 000h, 000h, 000h, 000h, 000h, 000h, 000h, 000h, 000h, 000h
007   7739 000000000000000000000000000000000000000000000000000000000000
008   7757                 db 000h, 000h, 000h, 000h, 000h, 000h, 000h, 000h, 000h, 000h, 010h, 000h, 000h, 000h, 000h, 000h, 000h, 000h, 000h, 002h, 000h, 000h, 000h, 000h, 000h, 000h, 000h, 000h, 000h, 000h
008   7757 000000000000000000001000000000000000000200000000000000000000
009   7775                 db 000h, 000h, 000h, 000h, 000h, 000h, 000h, 000h, 000h, 000h, 038h, 000h, 000h, 000h, 000h, 000h, 000h, 000h, 000h, 007h, 000h, 000h, 000h, 000h, 000h, 000h, 000h, 000h, 000h, 000h
009   7775 000000000000000000003800000000000000000700000000000000000000
010   7793                 db 000h, 000h, 000h, 000h, 000h, 000h, 000h, 000h, 000h, 000h, 07Ch, 000h, 000h, 000h, 000h, 000h, 000h, 000h, 000h, 00Fh, 080h, 000h, 000h, 000h, 000h, 000h, 000h, 000h, 000h, 000h
010   7793 000000000000000000007C00000000000000000F80000000000000000000
011   77B1                 db 000h, 000h, 000h, 000h, 000h, 000h, 000h, 000h, 000h, 000h, 0EEh, 000h, 000h, 000h, 000h, 000h, 000h, 000h, 000h, 01Dh, 0C0h, 000h, 000h, 000h, 000h, 000h, 000h, 000h, 000h, 000h
011   77B1 00000000000000000000EE00000000000000001DC0000000000000000000
012   77CF                 db 000h, 000h, 000h, 000h, 000h, 000h, 000h, 000h, 000h, 001h, 0C7h, 000h, 000h, 000h, 000h, 000h, 000h, 000h, 000h, 038h, 0E0h, 000h, 000h, 000h, 000h, 000h, 000h, 000h, 000h, 000h
012   77CF 00000000000000000001C7000000000000000038E0000000000000000000
013   77ED                 db 000h, 000h, 000h, 000h, 000h, 000h, 000h, 000h, 000h, 000h, 0EEh, 000h, 000h, 000h, 000h, 000h, 000h, 000h, 000h, 01Dh, 0C0h, 000h, 000h, 000h, 000h, 000h, 000h, 000h, 000h, 000h ; 1
013   77ED 00000000000000000000EE00000000000000001DC0000000000000000000
014   780B                 db 000h, 000h, 000h, 000h, 000h, 000h, 000h, 000h, 000h, 000h, 05Dh, 0FFh, 0FFh, 0FFh, 0FFh, 0FFh, 0FFh, 0FFh, 0FFh, 0EEh, 080h, 000h, 000h, 000h, 000h, 000h, 000h, 000h, 000h, 000h
014   780B 000000000000000000005DFFFFFFFFFFFFFFFFEE80000000000000000000
015   7829                 db 000h, 000h, 000h, 000h, 000h, 000h, 000h, 000h, 000h, 000h, 03Bh, 0FFh, 0FFh, 0FFh, 0FFh, 0FFh, 0FFh, 0FFh, 0FFh, 0F7h, 000h, 000h, 000h, 000h, 000h, 000h, 000h, 000h, 000h, 000h
015   7829 000000000000000000003BFFFFFFFFFFFFFFFFF700000000000000000000
016   7847                 db 000h, 000h, 000h, 000h, 000h, 000h, 000h, 000h, 000h, 000h, 070h, 000h, 000h, 000h, 000h, 000h, 000h, 000h, 000h, 003h, 080h, 000h, 000h, 000h, 000h, 000h, 000h, 000h, 000h, 000h
016   7847 000000000000000000007000000000000000000380000000000000000000
017   7865                 db 000h, 000h, 000h, 000h, 000h, 000h, 000h, 000h, 000h, 000h, 0EFh, 0FFh, 0FFh, 0FFh, 0FFh, 0FFh, 0FFh, 0FFh, 0FFh, 0FDh, 0C0h, 000h, 000h, 000h, 000h, 000h, 000h, 000h, 000h, 000h
017   7865 00000000000000000000EFFFFFFFFFFFFFFFFFFDC0000000000000000000
018   7883                 db 000h, 000h, 000h, 000h, 000h, 000h, 000h, 000h, 000h, 001h, 0DFh, 0FFh, 0FEh, 007h, 0FFh, 0FFh, 0FFh, 0FFh, 0FFh, 0FEh, 0E0h, 000h, 000h, 000h, 000h, 000h, 000h, 000h, 000h, 000h
018   7883 00000000000000000001DFFFFE07FFFFFFFFFFFEE0000000000000000000
019   78A1                 db 000h, 000h, 000h, 000h, 000h, 000h, 000h, 000h, 000h, 003h, 0BFh, 0FFh, 0FCh, 003h, 0FFh, 0FFh, 0FFh, 0FFh, 0FFh, 0FFh, 070h, 000h, 000h, 000h, 000h, 000h, 000h, 000h, 000h, 000h
019   78A1 00000000000000000003BFFFFC03FFFFFFFFFFFF70000000000000000000
020   78BF                 db 000h, 000h, 000h, 000h, 000h, 000h, 000h, 000h, 000h, 007h, 07Fh, 0FFh, 0FCh, 0F3h, 0FCh, 00Ch, 0FFh, 0FFh, 0FFh, 0FFh, 0B8h, 000h, 000h, 000h, 000h, 000h, 000h, 000h, 000h, 000h
020   78BF 000000000000000000077FFFFCF3FC0CFFFFFFFFB8000000000000000000
021   78DD                 db 000h, 000h, 001h, 0FFh, 0FFh, 0FFh, 0FFh, 0FFh, 0FFh, 0FEh, 000h, 000h, 0FCh, 0F3h, 0FEh, 063h, 0FFh, 0FFh, 000h, 000h, 0DFh, 0FFh, 0FFh, 0FFh, 0FFh, 0FFh, 0FFh, 0FCh, 000h, 000h ; 2
021   78DD 000001FFFFFFFFFFFFFE0000FCF3FE63FFFF0000DFFFFFFFFFFFFFFC0000
022   78FB                 db 000h, 000h, 003h, 0FFh, 0FFh, 0FFh, 0FFh, 0FFh, 0FFh, 0FDh, 000h, 000h, 0FEh, 007h, 0FFh, 03Fh, 0FFh, 0FFh, 000h, 000h, 0EFh, 0FFh, 0FFh, 0FFh, 0FFh, 0FFh, 0FFh, 0FEh, 000h, 000h
022   78FB 000003FFFFFFFFFFFFFD0000FE07FF3FFFFF0000EFFFFFFFFFFFFFFE0000
023   7919                 db 000h, 000h, 006h, 000h, 000h, 000h, 000h, 000h, 000h, 003h, 000h, 000h, 0FCh, 0F3h, 0F0h, 01Bh, 09Ah, 04Fh, 000h, 000h, 0F0h, 000h, 000h, 000h, 000h, 000h, 000h, 007h, 000h, 000h
023   7919 000006000000000000030000FCF3F01B9A4F0000F0000000000000070000
024   7937                 db 000h, 000h, 00Dh, 0FFh, 0FFh, 0FFh, 0FFh, 0FFh, 0FFh, 0FFh, 000h, 000h, 0FCh, 0F3h, 0E7h, 093h, 099h, 027h, 000h, 000h, 0FFh, 0FFh, 0FFh, 0FFh, 0FFh, 0FFh, 0FFh, 0FBh, 080h, 000h
024   7937 00000DFFFFFFFFFFFFFF0000FCF3E79399270000FFFFFFFFFFFFFFFB8000
025   7955                 db 01Eh, 000h, 01Bh, 0FFh, 0FFh, 0FFh, 0FFh, 0FFh, 0FFh, 0FFh, 000h, 000h, 0FCh, 003h, 0E3h, 091h, 099h, 027h, 000h, 000h, 0FFh, 0FFh, 0FFh, 0FFh, 0FFh, 0FFh, 0FFh, 0FDh, 0C0h, 000h
025   7955 1E001BFFFFFFFFFFFFFF0000FC03E39199270000FFFFFFFFFFFFFFFDC000
026   7973                 db 07Fh, 000h, 03Fh, 0FFh, 0FFh, 0FFh, 0FFh, 0FFh, 0FFh, 0FFh, 000h, 000h, 0FEh, 007h, 0F0h, 038h, 029h, 033h, 000h, 000h, 0FFh, 0FFh, 0FFh, 0FFh, 0FFh, 0FFh, 0FFh, 0FEh, 0E0h, 000h
026   7973 7F003FFFFFFFFFFFFFFF0000FE07F03829330000FFFFFFFFFFFFFFFEE000
027   7991                 db 07Fh, 040h, 07Fh, 0FFh, 0FFh, 0FFh, 0FFh, 0FFh, 0FFh, 0FFh, 000h, 000h, 0FFh, 0FFh, 0FFh, 0FFh, 0FFh, 0FFh, 000h, 000h, 0FFh, 0FFh, 0FFh, 0FFh, 0FFh, 0FFh, 0FFh, 0FFh, 070h, 000h
027   7991 7F407FFFFFFFFFFFFFFF0000FFFFFFFFFFFF0000FFFFFFFFFFFFFFFF7000
028   79AF                 db 0FEh, 070h, 0FFh, 0FFh, 0FFh, 0FFh, 0FFh, 0FFh, 0FFh, 0FFh, 000h, 000h, 0FFh, 0FFh, 0FFh, 0FFh, 0FFh, 0FFh, 000h, 000h, 0FFh, 0FFh, 0FFh, 0FFh, 0FFh, 0FFh, 0FFh, 0FFh, 0B8h, 000h
028   79AF FE70FFFFFFFFFFFFFFFF0000FFFFFFFFFFFF0000FFFFFFFFFFFFFFFFB800
029   79CD                 db 0FEh, 03Dh, 0E0h, 000h, 007h, 024h, 080h, 000h, 000h, 000h, 000h, 092h, 049h, 000h, 0F0h, 00Fh, 0F7h, 000h, 000h, 000h, 000h, 000h, 000h, 000h, 000h, 000h, 000h, 03Fh, 0DCh, 000h ; 3
029   79CD FE3DE00007248000000000924900F00FF7000000000000000000003FDC00
030   79EB                 db 0FCh, 03Bh, 0C0h, 000h, 01Fh, 012h, 040h, 000h, 000h, 000h, 000h, 049h, 024h, 080h, 0E0h, 01Fh, 0E7h, 000h, 000h, 000h, 000h, 000h, 000h, 000h, 000h, 000h, 000h, 03Fh, 0EEh, 000h
030   79EB FC3BC0001F124000000000492480E01FE7000000000000000000003FEE00
031   7A09                 db 0F8h, 077h, 0C0h, 000h, 07Fh, 0FFh, 0FFh, 0FFh, 0F8h, 07Fh, 0FFh, 0FFh, 0FFh, 0FFh, 0C0h, 03Fh, 0C7h, 0FFh, 0FFh, 0FFh, 0FFh, 0FFh, 0FFh, 0FFh, 0FFh, 0FFh, 0FFh, 0FFh, 0F7h, 000h
031   7A09 F877C0007FFFFFFFF87FFFFFFFFFC03FC7FFFFFFFFFFFFFFFFFFFFFFF700
032   7A27                 db 060h, 04Eh, 0FCh, 07Fh, 0FFh, 0FFh, 0FFh, 0FFh, 0F1h, 0FFh, 0FFh, 0FFh, 0FFh, 0FFh, 0FFh, 03Fh, 087h, 0FFh, 0FFh, 0FFh, 0FFh, 0FFh, 0FFh, 0FFh, 0FFh, 0FFh, 0FFh, 0FFh, 0FBh, 080h
032   7A27 604EFC7FFFFFFFFFF1FFFFFFFFFFFF3F87FFFFFFFFFFFFFFFFFFFFFFFB80
033   7A45                 db 071h, 01Dh, 0F8h, 0FFh, 0FFh, 0FFh, 0FFh, 0FFh, 0F1h, 0FFh, 0FFh, 0FFh, 0FFh, 0FFh, 0FEh, 07Fh, 0C7h, 0FFh, 0FFh, 0FFh, 0FFh, 0FFh, 0FFh, 0FFh, 0FFh, 0FFh, 0FFh, 0FFh, 0FDh, 0C0h
033   7A45 711DF8FFFFFFFFFFF1FFFFFFFFFFFE7FC7FFFFFFFFFFFFFFFFFFFFFFFDC0
034   7A63                 db 01Eh, 03Bh, 0F1h, 0FBh, 0FFh, 0FFh, 0FFh, 0FFh, 0F0h, 0FFh, 0FFh, 0FFh, 0FFh, 0FFh, 0FCh, 07Fh, 0C7h, 0FFh, 0FFh, 0FFh, 0FFh, 0FFh, 0FFh, 0FFh, 0FFh, 0FFh, 0FFh, 0FFh, 0FEh, 0E0h
034   7A63 1E3BF1FBFFFFFFFFF0FFFFFFFFFFFC7FC7FFFFFFFFFFFFFFFFFFFFFFFEE0
035   7A81                 db 000h, 077h, 0E3h, 0F3h, 0FFh, 0FFh, 0FFh, 0FFh, 0F8h, 03Fh, 0FFh, 0FFh, 0FFh, 0FFh, 0FCh, 0FFh, 0C7h, 0FFh, 0FFh, 0FFh, 0FFh, 0FFh, 0FFh, 0FFh, 0FFh, 0FFh, 0FFh, 0FFh, 0FFh, 070h
035   7A81 0077E3F3FFFFFFFFF83FFFFFFFFFFCFFC7FFFFFFFFFFFFFFFFFFFFFFFF70
036   7A9F                 db 000h, 0EFh, 0C7h, 0F3h, 0FFh, 0FFh, 0FFh, 0FFh, 0FEh, 00Fh, 0FFh, 0FFh, 0FFh, 0FFh, 0F8h, 0FFh, 0C7h, 0FFh, 0FFh, 0FFh, 0FFh, 0FFh, 0FFh, 0FFh, 0FFh, 0FFh, 0FFh, 0FFh, 0FFh, 0B8h
036   7A9F 00EFC7F3FFFFFFFFFE0FFFFFFFFFF8FFC7FFFFFFFFFFFFFFFFFFFFFFFFB8
037   7ABD                 db 001h, 0DFh, 0C7h, 0E3h, 0FFh, 0FFh, 0FFh, 0FFh, 0FFh, 0C3h, 0FFh, 0FFh, 0FFh, 0FFh, 0F9h, 000h, 0C7h, 0FFh, 0FFh, 0FFh, 0FFh, 0FFh, 0FFh, 0FFh, 0FFh, 0FFh, 0FFh, 0FFh, 0FFh, 0DCh ; 4
037   7ABD 01DFC7E3FFFFFFFFFFC3FFFFFFFFF900C7FFFFFFFFFFFFFFFFFFFFFFFFDC
038   7ADB                 db 003h, 0BFh, 087h, 0E7h, 0C1h, 0F0h, 07Ch, 07Ch, 00Fh, 0A1h, 0CFh, 0DCh, 00Fh, 003h, 0F1h, 000h, 0C7h, 0E0h, 0CCh, 03Eh, 0FCh, 0E1h, 0E3h, 01Fh, 0CFh, 0D8h, 0F9h, 0E0h, 07Fh, 0EEh
038   7ADB 03BF87E7C1F07C7C0FA1CFDC0F03F100C7E0CC3EFCE1E31FCFD8F9E07FEE
039   7AF9                 db 003h, 0BFh, 08Fh, 0E7h, 098h, 0E7h, 030h, 038h, 046h, 038h, 08Fh, 098h, 046h, 011h, 0F1h, 000h, 0C7h, 0CEh, 000h, 01Ch, 0FCh, 0C0h, 006h, 00Fh, 08Fh, 09Ch, 0F9h, 0C2h, 03Fh, 0EEh
039   7AF9 03BF8FE798E7303846388F984611F100C7CE001CFCC0060F8F9CF9C23FEE
040   7B17                 db 001h, 0DFh, 00Fh, 0E7h, 01Ch, 04Fh, 062h, 031h, 0E4h, 07Ch, 0CFh, 091h, 0E4h, 079h, 0F1h, 000h, 0C7h, 09Eh, 0E3h, 08Ch, 08Eh, 07Ch, 01Dh, 0C7h, 0CFh, 09Dh, 0F9h, 08Fh, 03Fh, 0DCh
040   7B17 01DF0FE71C4F6231E47CCF91E479F100C79EE38C8E7C1DC7CF9DF98F3FDC
041   7B35                 db 000h, 0EFh, 00Fh, 0C7h, 01Eh, 00Fh, 0E7h, 011h, 0E4h, 0FCh, 04Fh, 091h, 0E4h, 079h, 0E1h, 000h, 0C7h, 01Fh, 0E7h, 08Ch, 006h, 07Bh, 0FFh, 087h, 0CFh, 09Dh, 0F9h, 08Fh, 03Fh, 0B8h
041   7B35 00EF0FC71E0FE711E4FC4F91E479E100C71FE78C067BFF87CF9DF98F3FB8
042   7B53                 db 000h, 077h, 00Fh, 0C7h, 01Eh, 00Fh, 0C7h, 010h, 00Ch, 0FEh, 043h, 090h, 00Ch, 003h, 0E3h, 000h, 0C7h, 01Fh, 0E7h, 0CCh, 0E2h, 073h, 0FFh, 003h, 0C3h, 099h, 0F9h, 080h, 07Fh, 070h
042   7B53 00770FC71E0FC7100CFE43900C03E300C71FE7CCE273FF03C399F9807F70
043   7B71                 db 000h, 03Bh, 00Fh, 0C7h, 01Fh, 00Fh, 0C7h, 091h, 0FCh, 07Eh, 041h, 091h, 0FCh, 07Fh, 0E3h, 000h, 0C7h, 01Fh, 0E7h, 0CCh, 0F2h, 073h, 0FEh, 023h, 0C1h, 099h, 0F9h, 08Fh, 0FEh, 0E0h
043   7B71 003B0FC71F0FC791FC7E4191FC7FE300C71FE7CCF273FE23C199F98FFEE0
044   7B8F                 db 000h, 01Dh, 00Fh, 0C7h, 01Fh, 00Fh, 0E7h, 091h, 0FCh, 07Eh, 048h, 091h, 0FCh, 07Fh, 0E3h, 000h, 0C7h, 01Fh, 0E7h, 0CCh, 0F2h, 063h, 0FEh, 071h, 0C8h, 099h, 0F9h, 08Fh, 0FDh, 0C0h
044   7B8F 001D0FC71F0FE791FC7E4891FC7FE300C71FE7CCF263FE71C899F98FFDC0
045   7BAD                 db 000h, 00Eh, 007h, 0C7h, 00Fh, 007h, 0E3h, 098h, 0FEh, 03Eh, 04Eh, 018h, 0FEh, 03Fh, 0C3h, 0FFh, 0C7h, 00Fh, 0E7h, 0CCh, 0F2h, 071h, 0FCh, 0F8h, 0CEh, 018h, 0F9h, 0C7h, 0FBh, 080h ; 5
045   7BAD 000E07C70F07E398FE3E4E18FE3FC3FFC70FE7CCF271FCF8CE18F9C7FB80
046   7BCB                 db 000h, 007h, 087h, 0C7h, 087h, 043h, 0E3h, 098h, 07Eh, 00Ch, 0CFh, 018h, 07Eh, 01Fh, 0C3h, 0FFh, 0C7h, 087h, 0E7h, 0CCh, 0E2h, 070h, 019h, 080h, 04Fh, 018h, 060h, 0C3h, 0F7h, 000h
046   7BCB 000787C78743E3987E0CCF187E1FC3FFC787E7CCE27019804F1860C3F700
047   7BE9                 db 000h, 003h, 083h, 0C3h, 0C0h, 0E0h, 067h, 09Ch, 007h, 001h, 0CFh, 01Ch, 007h, 001h, 0C1h, 0FFh, 0C7h, 0C0h, 0E7h, 0CCh, 006h, 078h, 038h, 03Ch, 04Fh, 01Ch, 008h, 060h, 02Eh, 000h
047   7BE9 000383C3C0E0679C0701CF1C0701C1FFC7C0E7CC0678383C4F1C08602E00
048   7C07                 db 000h, 001h, 0C1h, 0E3h, 0E1h, 0F9h, 0CFh, 03Fh, 01Fh, 0C3h, 0DFh, 0BFh, 01Fh, 0C7h, 0E0h, 0FFh, 087h, 0F3h, 0EFh, 0DDh, 00Eh, 0FCh, 079h, 0FCh, 05Fh, 0BEh, 019h, 0F8h, 0DCh, 000h
048   7C07 0001C1E3E1F9CF3F1FC3DFBF1FC7E0FF87F3EFDD0EFC79FC5FBE19F8DC00
049   7C25                 db 000h, 000h, 081h, 0E0h, 0FFh, 0FFh, 0FFh, 0FFh, 0FFh, 0FFh, 0FFh, 0FFh, 0FFh, 0FFh, 0E0h, 0FFh, 087h, 0FFh, 0FFh, 0FFh, 0FFh, 0FFh, 0FFh, 0FFh, 0FFh, 0FFh, 0FFh, 0FFh, 0B8h, 000h
049   7C25 000081E0FFFFFFFFFFFFFFFFFFFFE0FF87FFFFFFFFFFFFFFFFFFFFFFB800
050   7C43                 db 000h, 000h, 003h, 0E0h, 080h, 000h, 000h, 000h, 000h, 000h, 000h, 000h, 000h, 001h, 0E0h, 03Ch, 003h, 0C0h, 000h, 000h, 000h, 000h, 000h, 000h, 000h, 000h, 000h, 0FFh, 070h, 000h
050   7C43 000003E080000000000000000001E03C03C0000000000000000000FF7000
051   7C61                 db 000h, 000h, 007h, 0E0h, 0FFh, 0FFh, 0FFh, 0FFh, 0FFh, 0FFh, 0FFh, 0FFh, 0FFh, 0FFh, 0F0h, 000h, 001h, 0FFh, 0FFh, 0FFh, 0FFh, 0FFh, 0FFh, 0FFh, 0FFh, 0FFh, 0FFh, 07Eh, 0E0h, 000h
051   7C61 000007E0FFFFFFFFFFFFFFFFFFFFF00001FFFFFFFFFFFFFFFFFFFF7EE000
052   7C7F                 db 000h, 000h, 00Fh, 0F0h, 0FFh, 0FFh, 0FFh, 0FFh, 0FFh, 0FFh, 0FFh, 0FFh, 0FFh, 0FFh, 0F0h, 000h, 060h, 07Fh, 0FFh, 0FFh, 0FFh, 0FFh, 0FFh, 0FFh, 0FFh, 0FFh, 0FFh, 0BDh, 0C0h, 000h
052   7C7F 00000FF0FFFFFFFFFFFFFFFFFFFFF000607FFFFFFFFFFFFFFFFFFFBDC000
053   7C9D                 db 000h, 000h, 00Eh, 07Ch, 000h, 000h, 000h, 000h, 000h, 000h, 000h, 000h, 000h, 000h, 007h, 0FEh, 00Fh, 080h, 000h, 000h, 000h, 000h, 000h, 000h, 000h, 000h, 001h, 0DBh, 080h, 000h ; 6
053   7C9D 00000E7C0000000000000000000007FE0F80000000000000000001DB8000
054   7CBB                 db 000h, 000h, 007h, 0F8h, 000h, 000h, 000h, 000h, 000h, 000h, 000h, 000h, 000h, 000h, 001h, 0F8h, 004h, 000h, 000h, 000h, 000h, 000h, 000h, 000h, 000h, 000h, 000h, 0E7h, 000h, 000h
054   7CBB 000007F80000000000000000000001F80400000000000000000000E70000
055   7CD9                 db 000h, 000h, 003h, 0F0h, 000h, 000h, 000h, 000h, 000h, 000h, 000h, 000h, 000h, 000h, 000h, 000h, 000h, 000h, 000h, 000h, 000h, 000h, 000h, 000h, 000h, 000h, 000h, 07Eh, 000h, 000h
055   7CD9 000003F000000000000000000000000000000000000000000000007E0000
056   7CF7                 db 000h, 000h, 001h, 0E0h, 000h, 000h, 000h, 000h, 000h, 000h, 000h, 000h, 000h, 000h, 000h, 000h, 000h, 000h, 000h, 000h, 000h, 000h, 000h, 000h, 000h, 000h, 000h, 03Ch, 000h, 000h
056   7CF7 000001E000000000000000000000000000000000000000000000003C0000
057   7D15                 db 000h, 000h, 000h, 0C0h, 000h, 000h, 000h, 000h, 000h, 000h, 000h, 000h, 000h, 000h, 000h, 000h, 000h, 000h, 000h, 000h, 000h, 000h, 000h, 000h, 000h, 000h, 000h, 018h, 000h, 000h
057   7D15 000000C00000000000000000000000000000000000000000000000180000
058   7D33                 db 000h, 000h, 000h, 000h, 000h, 000h, 000h, 000h, 000h, 000h, 000h, 000h, 000h, 000h, 000h, 000h, 000h, 000h, 000h, 000h, 000h, 000h, 000h, 000h, 000h, 000h, 000h, 000h, 000h, 000h
058   7D33 000000000000000000000000000000000000000000000000000000000000
059   7D51                 db 000h, 000h, 000h, 000h, 000h, 000h, 000h, 000h, 000h, 000h, 000h, 000h, 000h, 000h, 000h, 000h, 000h, 000h, 000h, 000h, 000h, 000h, 000h, 000h, 000h, 000h, 000h, 000h, 000h, 000h
059   7D51 000000000000000000000000000000000000000000000000000000000000
060   7D6F                 db 000h, 000h, 000h, 000h, 000h, 000h, 000h, 000h, 000h, 000h, 000h, 000h, 000h, 000h, 000h, 000h, 000h, 000h, 000h, 000h, 000h, 000h, 000h, 000h, 000h, 000h, 000h, 000h, 000h, 000h
060   7D6F 000000000000000000000000000000000000000000000000000000000000
061   7D8D                 ; Color attributes
062   7D8D                 db 000h, 000h, 000h, 000h, 000h, 000h, 000h, 000h, 000h, 047h, 047h, 000h, 000h, 000h, 000h, 000h, 000h, 000h, 000h, 047h, 047h, 000h, 000h, 000h, 000h, 000h, 000h, 000h, 000h, 000h ; 0
062   7D8D 000000000000000000474700000000000000004747000000000000000000
063   7DAB                 db 000h, 000h, 000h, 000h, 000h, 000h, 000h, 000h, 000h, 047h, 047h, 047h, 047h, 047h, 047h, 047h, 047h, 047h, 047h, 047h, 047h, 000h, 000h, 000h, 000h, 000h, 000h, 000h, 000h, 000h ; 1
063   7DAB 000000000000000000474747474747474747474747000000000000000000
064   7DC9                 db 041h, 047h, 047h, 047h, 047h, 047h, 047h, 047h, 047h, 047h, 07Fh, 07Fh, 047h, 047h, 047h, 047h, 047h, 047h, 07Fh, 07Fh, 047h, 047h, 047h, 047h, 047h, 047h, 047h, 047h, 047h, 000h ; 2
064   7DC9 414747474747474747477F7F4747474747477F7F47474747474747474700
065   7DE7                 db 041h, 047h, 057h, 057h, 057h, 047h, 047h, 047h, 047h, 047h, 047h, 047h, 047h, 047h, 057h, 057h, 057h, 047h, 047h, 047h, 047h, 047h, 047h, 047h, 047h, 047h, 047h, 047h, 047h, 047h ; 3
065   7DE7 414757575747474747474747474757575747474747474747474747474747
066   7E05                 db 046h, 046h, 056h, 056h, 046h, 046h, 046h, 046h, 046h, 046h, 046h, 046h, 046h, 046h, 056h, 076h, 056h, 046h, 046h, 046h, 046h, 046h, 046h, 046h, 046h, 046h, 046h, 046h, 046h, 046h ; 4
066   7E05 464656564646464646464646464656765646464646464646464646464646
067   7E23                 db 000h, 046h, 056h, 056h, 046h, 046h, 046h, 046h, 046h, 046h, 046h, 046h, 046h, 046h, 056h, 056h, 056h, 046h, 046h, 046h, 046h, 046h, 046h, 046h, 046h, 046h, 046h, 046h, 046h, 046h ; 5
067   7E23 004656564646464646464646464656565646464646464646464646464646
068   7E41                 db 000h, 000h, 046h, 046h, 000h, 000h, 000h, 000h, 000h, 000h, 000h, 000h, 000h, 000h, 042h, 042h, 042h, 042h, 000h, 000h, 000h, 000h, 000h, 000h, 000h, 000h, 046h, 046h, 046h, 000h ; 6
068   7E41 000046460000000000000000000042424242000000000000000046464600
069   7E5F             
001   7E5F             image_takh: 
002   7E5F                 ; Width, height
003   7E5F 10 18           db 16, 24
004   7E61                 ; Black & white
005   7E61                 db 000h, 000h, 000h, 000h, 000h, 000h, 000h, 000h, 000h, 000h, 000h, 000h, 000h, 000h, 000h, 000h ; 0
005   7E61 00000000000000000000000000000000
006   7E71                 db 000h, 000h, 000h, 000h, 000h, 000h, 000h, 000h, 000h, 000h, 000h, 000h, 000h, 000h, 000h, 000h
006   7E71 00000000000000000000000000000000
007   7E81                 db 000h, 000h, 000h, 000h, 000h, 000h, 000h, 000h, 000h, 000h, 000h, 000h, 000h, 000h, 000h, 000h
007   7E81 00000000000000000000000000000000
008   7E91                 db 000h, 000h, 000h, 000h, 000h, 000h, 000h, 000h, 000h, 000h, 000h, 000h, 000h, 000h, 000h, 000h
008   7E91 00000000000000000000000000000000
009   7EA1                 db 000h, 000h, 000h, 000h, 000h, 000h, 000h, 000h, 000h, 000h, 000h, 000h, 000h, 000h, 000h, 000h
009   7EA1 00000000000000000000000000000000
010   7EB1                 db 000h, 000h, 000h, 000h, 000h, 000h, 000h, 000h, 000h, 000h, 000h, 000h, 000h, 000h, 000h, 000h
010   7EB1 00000000000000000000000000000000
011   7EC1                 db 000h, 000h, 000h, 000h, 000h, 000h, 000h, 000h, 000h, 000h, 000h, 000h, 000h, 000h, 000h, 000h
011   7EC1 00000000000000000000000000000000
012   7ED1                 db 000h, 000h, 000h, 000h, 000h, 000h, 000h, 000h, 000h, 000h, 000h, 008h, 000h, 000h, 000h, 000h
012   7ED1 00000000000000000000000800000000
013   7EE1                 db 000h, 000h, 000h, 000h, 000h, 000h, 000h, 000h, 005h, 040h, 000h, 004h, 000h, 000h, 000h, 000h ; 1
013   7EE1 00000000000000000540000400000000
014   7EF1                 db 000h, 000h, 000h, 000h, 000h, 000h, 000h, 000h, 02Bh, 0A0h, 028h, 004h, 000h, 000h, 000h, 000h
014   7EF1 00000000000000002BA0280400000000
015   7F01                 db 000h, 000h, 000h, 000h, 000h, 000h, 000h, 000h, 05Fh, 0F1h, 055h, 00Ch, 000h, 000h, 000h, 000h
015   7F01 00000000000000005FF1550C00000000
016   7F11                 db 000h, 000h, 000h, 000h, 000h, 000h, 000h, 032h, 0BFh, 082h, 0ABh, 0F8h, 000h, 040h, 000h, 000h
016   7F11 0000000000000032BF82ABF800400000
017   7F21                 db 000h, 000h, 000h, 000h, 000h, 000h, 000h, 045h, 07Fh, 005h, 0FFh, 0F0h, 000h, 020h, 000h, 000h
017   7F21 00000000000000457F05FFF000200000
018   7F31                 db 000h, 000h, 000h, 000h, 000h, 000h, 001h, 08Bh, 0FFh, 02Bh, 0FFh, 0E0h, 000h, 020h, 000h, 000h
018   7F31 000000000000018BFF2BFFE000200000
019   7F41                 db 000h, 000h, 000h, 000h, 000h, 000h, 003h, 03Fh, 0FFh, 0D7h, 0FFh, 0D0h, 000h, 060h, 000h, 000h
019   7F41 000000000000033FFFD7FFD000600000
020   7F51                 db 000h, 000h, 000h, 000h, 000h, 000h, 007h, 0BFh, 0FFh, 0FFh, 0FFh, 0EAh, 002h, 0E0h, 000h, 000h
020   7F51 00000000000007BFFFFFFFEA02E00000
021   7F61                 db 000h, 000h, 000h, 000h, 000h, 000h, 007h, 002h, 0AFh, 000h, 02Ah, 000h, 055h, 0C0h, 000h, 000h ; 2
021   7F61 0000000000000702AF002A0055C00000
022   7F71                 db 000h, 000h, 000h, 000h, 000h, 000h, 007h, 015h, 07Ch, 081h, 05Fh, 080h, 0FFh, 0C0h, 000h, 000h
022   7F71 00000000000007157C815F80FFC00000
023   7F81                 db 000h, 000h, 000h, 000h, 000h, 000h, 00Fh, 02Bh, 0E0h, 00Ah, 0F9h, 0C0h, 0FFh, 080h, 000h, 000h
023   7F81 0000000000000F2BE00AF9C0FF800000
024   7F91                 db 000h, 000h, 000h, 000h, 000h, 000h, 007h, 05Fh, 001h, 055h, 0E0h, 060h, 0FFh, 000h, 000h, 000h
024   7F91 000000000000075F0155E060FF000000
025   7FA1                 db 000h, 000h, 000h, 000h, 000h, 000h, 007h, 03Ch, 00Ah, 0AFh, 0C0h, 000h, 0FEh, 000h, 000h, 000h
025   7FA1 000000000000073C0AAFC000FE000000
026   7FB1                 db 000h, 000h, 000h, 000h, 000h, 000h, 007h, 070h, 015h, 0FFh, 000h, 000h, 0F8h, 008h, 000h, 000h
026   7FB1 000000000000077015FF0000F8080000
027   7FC1                 db 000h, 000h, 000h, 000h, 000h, 000h, 003h, 0C0h, 0ABh, 0FCh, 005h, 050h, 0E0h, 008h, 000h, 000h
027   7FC1 00000000000003C0ABFC0550E0080000
028   7FD1                 db 000h, 000h, 000h, 000h, 000h, 000h, 003h, 003h, 0DFh, 0F0h, 02Ah, 0A8h, 080h, 058h, 000h, 000h
028   7FD1 0000000000000303DFF02AA880580000
029   7FE1                 db 000h, 000h, 000h, 000h, 000h, 000h, 003h, 000h, 07Fh, 0E1h, 05Fh, 0FCh, 002h, 0B8h, 000h, 000h ; 3
029   7FE1 00000000000003007FE15FFC02B80000
030   7FF1                 db 000h, 000h, 000h, 000h, 000h, 000h, 003h, 080h, 000h, 006h, 0BFh, 0FAh, 095h, 070h, 000h, 000h
030   7FF1 00000000000003800006BFFA95700000
031   8001                 db 000h, 000h, 000h, 000h, 000h, 000h, 001h, 0E0h, 000h, 01Dh, 07Eh, 01Fh, 0ABh, 0E0h, 000h, 000h
031   8001 00000000000001E0001D7E1FABE00000
032   8011                 db 000h, 000h, 000h, 000h, 000h, 000h, 000h, 0F0h, 0E0h, 0EAh, 0F8h, 003h, 07Fh, 0C0h, 000h, 000h
032   8011 00000000000000F0E0EAF8037FC00000
033   8021                 db 000h, 000h, 000h, 000h, 000h, 000h, 000h, 0F8h, 07Fh, 0D5h, 0F0h, 001h, 0FFh, 080h, 000h, 000h
033   8021 00000000000000F87FD5F001FF800000
034   8031                 db 000h, 000h, 000h, 000h, 000h, 000h, 000h, 0FCh, 03Eh, 0AFh, 0C0h, 000h, 0FEh, 000h, 000h, 000h
034   8031 00000000000000FC3EAFC000FE000000
035   8041                 db 000h, 000h, 000h, 000h, 000h, 000h, 000h, 00Eh, 01Fh, 0FFh, 000h, 000h, 0F8h, 000h, 000h, 000h
035   8041 000000000000000E1FFF0000F8000000
036   8051                 db 000h, 000h, 000h, 000h, 000h, 000h, 000h, 09Eh, 00Fh, 0F8h, 000h, 000h, 0E0h, 000h, 000h, 000h
036   8051 000000000000009E0FF80000E0000000
037   8061                 db 000h, 000h, 000h, 000h, 000h, 000h, 001h, 0FFh, 000h, 0FFh, 0AAh, 0AAh, 000h, 000h, 000h, 000h ; 4
037   8061 00000000000001FF00FFAAAA00000000
038   8071                 db 000h, 000h, 000h, 000h, 000h, 000h, 001h, 0FFh, 080h, 0FDh, 040h, 000h, 000h, 000h, 000h, 000h
038   8071 00000000000001FF80FD400000000000
039   8081                 db 000h, 000h, 000h, 000h, 000h, 000h, 003h, 0FFh, 0C0h, 0EAh, 000h, 000h, 000h, 000h, 000h, 000h
039   8081 00000000000003FFC0EA000000000000
040   8091                 db 000h, 000h, 000h, 000h, 000h, 000h, 003h, 0FFh, 0E0h, 050h, 000h, 000h, 000h, 000h, 000h, 000h
040   8091 00000000000003FFE050000000000000
041   80A1                 db 000h, 000h, 000h, 000h, 000h, 000h, 000h, 0FFh, 0F8h, 080h, 000h, 000h, 000h, 000h, 000h, 000h
041   80A1 00000000000000FFF880000000000000
042   80B1                 db 000h, 000h, 000h, 000h, 000h, 000h, 000h, 0FFh, 0FFh, 000h, 000h, 000h, 000h, 000h, 000h, 000h
042   80B1 00000000000000FFFF00000000000000
043   80C1                 db 000h, 000h, 000h, 000h, 000h, 000h, 000h, 01Fh, 0EFh, 000h, 000h, 000h, 000h, 000h, 000h, 000h
043   80C1 000000000000001FEF00000000000000
044   80D1                 db 000h, 000h, 000h, 000h, 000h, 000h, 000h, 03Fh, 0DFh, 000h, 000h, 000h, 000h, 000h, 000h, 000h
044   80D1 000000000000003FDF00000000000000
045   80E1                 db 000h, 000h, 000h, 000h, 000h, 000h, 000h, 03Fh, 0BAh, 080h, 000h, 000h, 000h, 000h, 000h, 000h ; 5
045   80E1 000000000000003FBA80000000000000
046   80F1                 db 000h, 000h, 000h, 000h, 000h, 000h, 000h, 01Eh, 055h, 040h, 000h, 000h, 000h, 000h, 000h, 000h
046   80F1 000000000000001E5540000000000000
047   8101                 db 000h, 000h, 000h, 000h, 000h, 000h, 000h, 000h, 0AAh, 0AFh, 070h, 000h, 000h, 000h, 000h, 000h
047   8101 0000000000000000AAAF700000000000
048   8111                 db 000h, 000h, 000h, 000h, 000h, 000h, 000h, 000h, 0D5h, 03Fh, 07Ch, 000h, 000h, 000h, 000h, 000h
048   8111 0000000000000000D53F7C0000000000
049   8121                 db 000h, 000h, 000h, 000h, 000h, 000h, 000h, 000h, 07Fh, 03Eh, 07Eh, 000h, 000h, 000h, 000h, 000h
049   8121 00000000000000007F3E7E0000000000
050   8131                 db 000h, 0C0h, 010h, 000h, 000h, 000h, 000h, 001h, 03Fh, 07Eh, 0FFh, 000h, 000h, 000h, 000h, 000h
050   8131 00C01000000000013F7EFF0000000000
051   8141                 db 000h, 060h, 018h, 000h, 000h, 000h, 000h, 017h, 09Eh, 07Eh, 0FFh, 000h, 000h, 000h, 000h, 000h
051   8141 00601800000000179E7EFF0000000000
052   8151                 db 000h, 070h, 00Eh, 000h, 000h, 000h, 000h, 077h, 0CCh, 0FEh, 0FFh, 080h, 000h, 000h, 000h, 000h
052   8151 00700E0000000077CCFEFF8000000000
053   8161                 db 000h, 03Eh, 007h, 000h, 000h, 000h, 000h, 0E7h, 0E1h, 0FEh, 0FFh, 080h, 000h, 000h, 000h, 000h ; 6
053   8161 003E0700000000E7E1FEFF8000000000
054   8171                 db 000h, 01Fh, 083h, 080h, 000h, 000h, 001h, 0EFh, 0F3h, 0FEh, 0FFh, 080h, 000h, 000h, 000h, 000h
054   8171 001F8380000001EFF3FEFF8000000000
055   8181                 db 000h, 007h, 0FFh, 080h, 000h, 000h, 003h, 0CFh, 0E1h, 0FEh, 0FFh, 0C0h, 000h, 000h, 000h, 000h
055   8181 0007FF80000003CFE1FEFFC000000000
056   8191                 db 000h, 007h, 0FFh, 0C0h, 000h, 000h, 007h, 0DFh, 0CCh, 0FEh, 0FFh, 0C0h, 000h, 000h, 000h, 000h
056   8191 0007FFC0000007DFCCFEFFC000000000
057   81A1                 db 000h, 001h, 0FFh, 0C0h, 000h, 000h, 00Fh, 09Fh, 01Eh, 07Eh, 0FFh, 0C0h, 000h, 000h, 000h, 000h
057   81A1 0001FFC000000F9F1E7EFFC000000000
058   81B1                 db 000h, 000h, 07Fh, 0E0h, 000h, 000h, 01Fh, 0BCh, 03Fh, 01Eh, 0FFh, 0E0h, 000h, 000h, 000h, 000h
058   81B1 00007FE000001FBC3F1EFFE000000000
059   81C1                 db 000h, 000h, 01Fh, 0F0h, 000h, 000h, 03Fh, 030h, 0FFh, 086h, 0FFh, 0E0h, 000h, 000h, 000h, 000h
059   81C1 00001FF000003F30FF86FFE000000000
060   81D1                 db 000h, 000h, 007h, 0FCh, 000h, 000h, 07Fh, 061h, 0FFh, 0C2h, 07Fh, 0F0h, 000h, 000h, 000h, 000h
060   81D1 000007FC00007F61FFC27FF000000000
061   81E1                 db 000h, 000h, 003h, 0FEh, 000h, 000h, 0FFh, 00Fh, 0FFh, 0E2h, 01Fh, 0F0h, 000h, 000h, 000h, 000h ; 7
061   81E1 000003FE0000FF0FFFE21FF000000000
062   81F1                 db 000h, 000h, 000h, 0FFh, 080h, 001h, 0FEh, 007h, 0FFh, 080h, 00Fh, 0F0h, 000h, 000h, 000h, 000h
062   81F1 000000FF8001FE07FF800FF000000000
063   8201                 db 000h, 000h, 000h, 07Fh, 0E0h, 003h, 07Eh, 001h, 0FEh, 000h, 00Fh, 0F8h, 000h, 000h, 000h, 000h
063   8201 0000007FE0037E01FE000FF800000000
064   8211                 db 000h, 000h, 000h, 03Fh, 0F8h, 007h, 07Ch, 000h, 0FCh, 000h, 007h, 0F8h, 000h, 000h, 000h, 000h
064   8211 0000003FF8077C00FC0007F800000000
065   8221                 db 000h, 000h, 000h, 01Fh, 0FEh, 00Fh, 03Ch, 000h, 078h, 000h, 007h, 0FCh, 000h, 000h, 000h, 000h
065   8221 0000001FFE0F3C00780007FC00000000
066   8231                 db 000h, 000h, 000h, 00Fh, 0FFh, 01Fh, 03Ch, 000h, 038h, 000h, 003h, 0FCh, 000h, 000h, 000h, 000h
066   8231 0000000FFF1F3C00380003FC00000000
067   8241                 db 000h, 000h, 000h, 007h, 0FFh, 0FFh, 01Ch, 000h, 010h, 000h, 003h, 0FEh, 000h, 000h, 000h, 000h
067   8241 00000007FFFF1C00100003FE00000000
068   8251                 db 000h, 000h, 000h, 003h, 0FFh, 0FFh, 00Eh, 000h, 000h, 000h, 001h, 0FFh, 000h, 000h, 000h, 000h
068   8251 00000003FFFF0E00000001FF00000000
069   8261                 db 000h, 000h, 000h, 000h, 0FFh, 0FFh, 0F8h, 000h, 038h, 000h, 001h, 0FFh, 000h, 000h, 000h, 000h ; 8
069   8261 00000000FFFFF800380001FF00000000
070   8271                 db 000h, 000h, 000h, 000h, 07Fh, 0FFh, 0E0h, 000h, 07Eh, 002h, 000h, 0FFh, 000h, 000h, 000h, 000h
070   8271 000000007FFFE0007E0200FF00000000
071   8281                 db 000h, 000h, 000h, 000h, 03Fh, 0FFh, 0C0h, 040h, 0FFh, 006h, 000h, 0FFh, 080h, 000h, 000h, 000h
071   8281 000000003FFFC040FF0600FF80000000
072   8291                 db 000h, 000h, 000h, 000h, 01Fh, 0FFh, 000h, 07Fh, 0FFh, 0FEh, 000h, 07Fh, 0C0h, 000h, 000h, 000h
072   8291 000000001FFF007FFFFE007FC0000000
073   82A1                 db 000h, 000h, 000h, 000h, 00Fh, 0FEh, 000h, 07Fh, 0FFh, 0FEh, 000h, 03Fh, 0C0h, 000h, 000h, 000h
073   82A1 000000000FFE007FFFFE003FC0000000
074   82B1                 db 000h, 000h, 000h, 000h, 003h, 0F8h, 000h, 07Fh, 0FFh, 0FEh, 000h, 03Fh, 0E0h, 000h, 000h, 000h
074   82B1 0000000003F8007FFFFE003FE0000000
075   82C1                 db 000h, 000h, 000h, 000h, 000h, 000h, 000h, 03Fh, 0FFh, 0FCh, 000h, 01Fh, 0F0h, 000h, 000h, 000h
075   82C1 000000000000003FFFFC001FF0000000
076   82D1                 db 000h, 000h, 000h, 000h, 000h, 000h, 000h, 03Fh, 0FFh, 0FCh, 000h, 00Fh, 0F0h, 000h, 000h, 000h
076   82D1 000000000000003FFFFC000FF0000000
077   82E1                 db 000h, 000h, 000h, 000h, 000h, 000h, 000h, 03Fh, 0FFh, 0FCh, 000h, 00Fh, 0F8h, 000h, 000h, 000h ; 9
077   82E1 000000000000003FFFFC000FF8000000
078   82F1                 db 000h, 000h, 000h, 000h, 000h, 000h, 000h, 03Fh, 0FFh, 0FCh, 000h, 007h, 0FCh, 000h, 000h, 000h
078   82F1 000000000000003FFFFC0007FC000000
079   8301                 db 000h, 000h, 000h, 000h, 000h, 000h, 000h, 01Fh, 0FFh, 0F8h, 000h, 007h, 0FCh, 000h, 000h, 000h
079   8301 000000000000001FFFF80007FC000000
080   8311                 db 000h, 000h, 000h, 000h, 000h, 000h, 000h, 01Fh, 0FFh, 0F0h, 080h, 003h, 0FEh, 000h, 000h, 000h
080   8311 000000000000001FFFF08003FE000000
081   8321                 db 000h, 000h, 000h, 000h, 000h, 000h, 001h, 00Fh, 0FFh, 0E0h, 080h, 001h, 0FFh, 000h, 000h, 000h
081   8321 000000000000010FFFE08001FF000000
082   8331                 db 000h, 000h, 000h, 000h, 000h, 000h, 001h, 007h, 0FFh, 0C0h, 080h, 001h, 0FFh, 080h, 000h, 000h
082   8331 0000000000000107FFC08001FF800000
083   8341                 db 000h, 000h, 000h, 000h, 000h, 000h, 001h, 003h, 0FFh, 080h, 080h, 000h, 0FFh, 080h, 000h, 000h
083   8341 0000000000000103FF808000FF800000
084   8351                 db 000h, 000h, 000h, 000h, 000h, 000h, 003h, 001h, 0DFh, 000h, 0C0h, 000h, 07Fh, 0C0h, 000h, 000h
084   8351 0000000000000301DF00C0007FC00000
085   8361                 db 000h, 000h, 000h, 000h, 000h, 000h, 003h, 0FFh, 0FEh, 0FDh, 0C0h, 000h, 07Fh, 0C0h, 000h, 000h ; 10
085   8361 00000000000003FFFEFDC0007FC00000
086   8371                 db 000h, 000h, 000h, 000h, 000h, 000h, 003h, 07Fh, 0F8h, 0F8h, 0C0h, 000h, 03Fh, 0E0h, 000h, 000h
086   8371 000000000000037FF8F8C0003FE00000
087   8381                 db 000h, 000h, 000h, 000h, 000h, 000h, 002h, 03Fh, 070h, 0F0h, 040h, 000h, 01Fh, 0E0h, 000h, 000h
087   8381 000000000000023F70F040001FE00000
088   8391                 db 000h, 000h, 000h, 000h, 000h, 000h, 002h, 01Fh, 020h, 0E0h, 040h, 000h, 00Fh, 0E0h, 000h, 000h
088   8391 000000000000021F20E040000FE00000
089   83A1                 db 000h, 000h, 000h, 000h, 000h, 000h, 002h, 01Fh, 000h, 0C0h, 040h, 000h, 00Fh, 0F0h, 000h, 000h
089   83A1 000000000000021F00C040000FF00000
090   83B1                 db 000h, 000h, 000h, 000h, 000h, 000h, 002h, 00Fh, 000h, 080h, 040h, 000h, 007h, 0F0h, 000h, 000h
090   83B1 000000000000020F0080400007F00000
091   83C1                 db 000h, 000h, 000h, 000h, 000h, 000h, 002h, 007h, 000h, 000h, 040h, 000h, 003h, 0F8h, 000h, 000h
091   83C1 00000000000002070000400003F80000
092   83D1                 db 000h, 000h, 000h, 000h, 000h, 000h, 004h, 003h, 000h, 000h, 020h, 000h, 001h, 0F8h, 000h, 000h
092   83D1 00000000000004030000200001F80000
093   83E1                 db 000h, 000h, 000h, 000h, 000h, 000h, 004h, 001h, 0FEh, 000h, 020h, 000h, 000h, 0FCh, 000h, 000h ; 11
093   83E1 0000000000000401FE00200000FC0000
094   83F1                 db 000h, 000h, 000h, 000h, 000h, 000h, 004h, 001h, 0FCh, 000h, 020h, 000h, 000h, 0FEh, 000h, 000h
094   83F1 0000000000000401FC00200000FE0000
095   8401                 db 000h, 000h, 000h, 000h, 000h, 000h, 004h, 000h, 0F8h, 000h, 020h, 000h, 000h, 07Fh, 000h, 000h
095   8401 0000000000000400F8002000007F0000
096   8411                 db 000h, 000h, 000h, 000h, 000h, 000h, 004h, 000h, 0F8h, 000h, 020h, 000h, 000h, 03Fh, 000h, 000h
096   8411 0000000000000400F8002000003F0000
097   8421                 db 000h, 000h, 000h, 000h, 000h, 000h, 004h, 000h, 070h, 000h, 020h, 000h, 000h, 03Fh, 080h, 000h
097   8421 000000000000040070002000003F8000
098   8431                 db 000h, 000h, 000h, 000h, 000h, 000h, 004h, 000h, 070h, 000h, 010h, 000h, 000h, 01Fh, 0C0h, 000h
098   8431 000000000000040070001000001FC000
099   8441                 db 000h, 000h, 000h, 000h, 000h, 000h, 004h, 000h, 020h, 000h, 010h, 000h, 000h, 00Fh, 0E0h, 000h
099   8441 000000000000040020001000000FE000
100   8451                 db 000h, 000h, 000h, 000h, 000h, 000h, 004h, 000h, 020h, 000h, 010h, 000h, 000h, 00Fh, 0F0h, 000h
100   8451 000000000000040020001000000FF000
101   8461                 db 000h, 000h, 000h, 000h, 000h, 000h, 004h, 000h, 020h, 000h, 010h, 000h, 000h, 007h, 0F8h, 000h ; 12
101   8461 0000000000000400200010000007F800
102   8471                 db 000h, 000h, 000h, 000h, 000h, 000h, 00Ch, 000h, 000h, 000h, 010h, 000h, 000h, 007h, 0FCh, 000h
102   8471 0000000000000C00000010000007FC00
103   8481                 db 000h, 000h, 000h, 000h, 000h, 000h, 00Ch, 000h, 000h, 000h, 010h, 000h, 000h, 007h, 0FCh, 000h
103   8481 0000000000000C00000010000007FC00
104   8491                 db 000h, 000h, 000h, 000h, 000h, 000h, 00Ch, 000h, 000h, 000h, 008h, 000h, 000h, 003h, 07Fh, 000h
104   8491 0000000000000C000000080000037F00
105   84A1                 db 000h, 000h, 000h, 000h, 000h, 000h, 00Ch, 000h, 000h, 000h, 008h, 000h, 000h, 003h, 01Fh, 080h
105   84A1 0000000000000C000000080000031F80
106   84B1                 db 000h, 000h, 000h, 000h, 000h, 000h, 00Ch, 000h, 000h, 080h, 008h, 000h, 000h, 001h, 007h, 080h
106   84B1 0000000000000C000080080000010780
107   84C1                 db 000h, 000h, 000h, 000h, 000h, 000h, 00Ch, 000h, 000h, 080h, 004h, 000h, 000h, 000h, 083h, 0C0h
107   84C1 0000000000000C0000800400000083C0
108   84D1                 db 000h, 000h, 000h, 000h, 000h, 000h, 00Ch, 000h, 001h, 080h, 004h, 000h, 000h, 000h, 0C1h, 0E0h
108   84D1 0000000000000C00018004000000C1E0
109   84E1                 db 000h, 000h, 000h, 000h, 000h, 000h, 00Ch, 000h, 003h, 010h, 004h, 000h, 000h, 000h, 040h, 060h ; 13
109   84E1 0000000000000C000310040000004060
110   84F1                 db 000h, 000h, 000h, 000h, 000h, 000h, 00Ch, 000h, 003h, 010h, 004h, 000h, 000h, 000h, 000h, 030h
110   84F1 0000000000000C000310040000000030
111   8501                 db 000h, 000h, 000h, 000h, 000h, 000h, 01Ch, 000h, 007h, 010h, 002h, 000h, 000h, 000h, 000h, 030h
111   8501 0000000000001C000710020000000030
112   8511                 db 000h, 000h, 000h, 000h, 000h, 000h, 01Ch, 000h, 00Eh, 010h, 002h, 000h, 000h, 000h, 000h, 010h
112   8511 0000000000001C000E10020000000010
113   8521                 db 000h, 000h, 000h, 000h, 000h, 000h, 01Ch, 000h, 00Eh, 030h, 002h, 000h, 000h, 000h, 000h, 010h
113   8521 0000000000001C000E30020000000010
114   8531                 db 000h, 000h, 000h, 000h, 000h, 000h, 01Ch, 000h, 01Eh, 030h, 002h, 000h, 000h, 000h, 000h, 000h
114   8531 0000000000001C001E30020000000000
115   8541                 db 000h, 000h, 000h, 000h, 000h, 000h, 01Ch, 000h, 01Eh, 030h, 001h, 000h, 000h, 000h, 000h, 000h
115   8541 0000000000001C001E30010000000000
116   8551                 db 000h, 000h, 000h, 000h, 000h, 000h, 01Ch, 000h, 03Ch, 038h, 081h, 000h, 000h, 000h, 000h, 000h
116   8551 0000000000001C003C38810000000000
117   8561                 db 000h, 000h, 000h, 000h, 000h, 000h, 01Ch, 000h, 07Ch, 078h, 081h, 000h, 000h, 000h, 000h, 000h ; 14
117   8561 0000000000001C007C78810000000000
118   8571                 db 000h, 000h, 000h, 000h, 000h, 000h, 01Ch, 000h, 0F8h, 078h, 081h, 000h, 000h, 000h, 000h, 000h
118   8571 0000000000001C00F878810000000000
119   8581                 db 000h, 000h, 000h, 000h, 000h, 000h, 01Eh, 001h, 0F8h, 068h, 080h, 080h, 000h, 000h, 000h, 000h
119   8581 0000000000001E01F868808000000000
120   8591                 db 000h, 000h, 000h, 000h, 000h, 000h, 01Fh, 003h, 0F8h, 068h, 080h, 080h, 000h, 000h, 000h, 000h
120   8591 0000000000001F03F868808000000000
121   85A1                 db 000h, 000h, 000h, 000h, 000h, 000h, 01Fh, 087h, 0F0h, 0E8h, 0C0h, 080h, 000h, 000h, 000h, 000h
121   85A1 0000000000001F87F0E8C08000000000
122   85B1                 db 000h, 000h, 000h, 000h, 000h, 000h, 03Fh, 0FFh, 0F0h, 0C8h, 0C0h, 080h, 000h, 000h, 000h, 000h
122   85B1 0000000000003FFFF0C8C08000000000
123   85C1                 db 000h, 000h, 000h, 000h, 000h, 000h, 03Fh, 0FFh, 0F0h, 0D8h, 0C0h, 040h, 000h, 000h, 000h, 000h
123   85C1 0000000000003FFFF0D8C04000000000
124   85D1                 db 000h, 000h, 000h, 000h, 000h, 000h, 03Fh, 0FFh, 0E1h, 0D8h, 0C0h, 040h, 000h, 000h, 000h, 000h
124   85D1 0000000000003FFFE1D8C04000000000
125   85E1                 db 000h, 000h, 000h, 000h, 000h, 000h, 03Fh, 000h, 0E1h, 0D8h, 0C0h, 040h, 000h, 000h, 000h, 000h ; 15
125   85E1 0000000000003F00E1D8C04000000000
126   85F1                 db 000h, 000h, 000h, 000h, 000h, 000h, 03Fh, 000h, 0E1h, 0D8h, 0C0h, 040h, 000h, 000h, 000h, 000h
126   85F1 0000000000003F00E1D8C04000000000
127   8601                 db 000h, 000h, 000h, 000h, 000h, 000h, 03Fh, 000h, 0E1h, 0DCh, 0E0h, 020h, 000h, 000h, 000h, 000h
127   8601 0000000000003F00E1DCE02000000000
128   8611                 db 000h, 000h, 000h, 000h, 000h, 000h, 03Fh, 000h, 0C3h, 09Ch, 060h, 020h, 000h, 000h, 000h, 000h
128   8611 0000000000003F00C39C602000000000
129   8621                 db 000h, 000h, 000h, 000h, 000h, 000h, 03Fh, 000h, 0C3h, 09Ch, 060h, 020h, 000h, 000h, 000h, 000h
129   8621 0000000000003F00C39C602000000000
130   8631                 db 000h, 000h, 000h, 000h, 000h, 000h, 03Fh, 000h, 0C3h, 09Ch, 060h, 020h, 000h, 000h, 000h, 000h
130   8631 0000000000003F00C39C602000000000
131   8641                 db 000h, 000h, 000h, 000h, 000h, 000h, 03Fh, 000h, 0C3h, 09Ch, 060h, 030h, 000h, 000h, 000h, 000h
131   8641 0000000000003F00C39C603000000000
132   8651                 db 000h, 000h, 000h, 000h, 000h, 000h, 03Fh, 000h, 087h, 09Ch, 060h, 030h, 000h, 000h, 000h, 000h
132   8651 0000000000003F00879C603000000000
133   8661                 db 000h, 000h, 000h, 000h, 000h, 000h, 03Fh, 000h, 087h, 09Ch, 070h, 010h, 000h, 000h, 000h, 000h ; 16
133   8661 0000000000003F00879C701000000000
134   8671                 db 000h, 000h, 000h, 000h, 000h, 000h, 07Fh, 000h, 087h, 09Ch, 070h, 018h, 000h, 000h, 000h, 000h
134   8671 0000000000007F00879C701800000000
135   8681                 db 000h, 000h, 000h, 000h, 000h, 000h, 07Fh, 000h, 087h, 01Ch, 070h, 018h, 000h, 000h, 000h, 000h
135   8681 0000000000007F00871C701800000000
136   8691                 db 000h, 000h, 000h, 000h, 000h, 000h, 07Fh, 000h, 08Fh, 01Ch, 070h, 018h, 000h, 000h, 000h, 000h
136   8691 0000000000007F008F1C701800000000
137   86A1                 db 000h, 000h, 000h, 000h, 000h, 000h, 07Fh, 000h, 08Fh, 00Ch, 030h, 01Ch, 000h, 000h, 000h, 000h
137   86A1 0000000000007F008F0C301C00000000
138   86B1                 db 000h, 000h, 000h, 000h, 000h, 000h, 07Fh, 000h, 00Fh, 00Ch, 030h, 00Ch, 000h, 000h, 000h, 000h
138   86B1 0000000000007F000F0C300C00000000
139   86C1                 db 000h, 000h, 000h, 000h, 000h, 000h, 07Fh, 000h, 00Fh, 01Eh, 038h, 00Ch, 000h, 000h, 000h, 000h
139   86C1 0000000000007F000F1E380C00000000
140   86D1                 db 000h, 000h, 000h, 000h, 000h, 000h, 07Fh, 000h, 01Fh, 01Eh, 038h, 00Eh, 000h, 000h, 000h, 000h
140   86D1 0000000000007F001F1E380E00000000
141   86E1                 db 000h, 000h, 000h, 000h, 000h, 000h, 07Fh, 0FFh, 01Eh, 01Eh, 038h, 00Eh, 000h, 000h, 000h, 000h ; 17
141   86E1 0000000000007FFF1E1E380E00000000
142   86F1                 db 000h, 000h, 000h, 000h, 000h, 000h, 07Fh, 0FFh, 01Eh, 01Eh, 038h, 006h, 000h, 000h, 000h, 000h
142   86F1 0000000000007FFF1E1E380600000000
143   8701                 db 000h, 000h, 000h, 000h, 000h, 000h, 0FFh, 0FEh, 01Eh, 01Eh, 03Ch, 007h, 000h, 000h, 000h, 000h
143   8701 000000000000FFFE1E1E3C0700000000
144   8711                 db 000h, 000h, 000h, 000h, 000h, 000h, 0FFh, 0FEh, 03Eh, 01Eh, 01Ch, 007h, 000h, 000h, 000h, 000h
144   8711 000000000000FFFE3E1E1C0700000000
145   8721                 db 000h, 000h, 000h, 000h, 000h, 000h, 0FFh, 0FEh, 03Eh, 01Eh, 01Ch, 007h, 000h, 000h, 000h, 000h
145   8721 000000000000FFFE3E1E1C0700000000
146   8731                 db 000h, 000h, 000h, 000h, 000h, 000h, 0FFh, 0FEh, 03Ch, 01Eh, 01Ch, 003h, 080h, 000h, 000h, 000h
146   8731 000000000000FFFE3C1E1C0380000000
147   8741                 db 000h, 000h, 000h, 000h, 000h, 001h, 0FFh, 0FEh, 07Ch, 01Eh, 01Eh, 003h, 080h, 000h, 000h, 000h
147   8741 000000000001FFFE7C1E1E0380000000
148   8751                 db 000h, 000h, 000h, 000h, 000h, 001h, 0FFh, 0FCh, 07Ch, 03Fh, 01Eh, 003h, 0C0h, 000h, 000h, 000h
148   8751 000000000001FFFC7C3F1E03C0000000
149   8761                 db 000h, 000h, 000h, 000h, 000h, 001h, 000h, 0FCh, 07Ch, 03Fh, 00Eh, 001h, 0C0h, 000h, 000h, 000h ; 18
149   8761 00000000000100FC7C3F0E01C0000000
150   8771                 db 000h, 000h, 000h, 000h, 000h, 001h, 000h, 0FCh, 0F8h, 03Fh, 00Eh, 001h, 0C0h, 000h, 000h, 000h
150   8771 00000000000100FCF83F0E01C0000000
151   8781                 db 000h, 000h, 000h, 000h, 000h, 003h, 000h, 0F8h, 0F8h, 03Fh, 00Fh, 001h, 0E0h, 000h, 000h, 000h
151   8781 00000000000300F8F83F0F01E0000000
152   8791                 db 000h, 000h, 000h, 000h, 000h, 003h, 000h, 0F0h, 0F8h, 03Fh, 00Fh, 001h, 0E0h, 000h, 000h, 000h
152   8791 00000000000300F0F83F0F01E0000000
153   87A1                 db 000h, 000h, 000h, 000h, 000h, 003h, 000h, 0F1h, 0F0h, 03Fh, 00Fh, 000h, 0E0h, 000h, 000h, 000h
153   87A1 00000000000300F1F03F0F00E0000000
154   87B1                 db 000h, 000h, 000h, 000h, 000h, 007h, 000h, 0F3h, 0F0h, 07Fh, 007h, 000h, 0F0h, 000h, 000h, 000h
154   87B1 00000000000700F3F07F0700F0000000
155   87C1                 db 000h, 000h, 000h, 000h, 000h, 007h, 000h, 0E3h, 0F0h, 07Fh, 007h, 080h, 0F0h, 000h, 000h, 000h
155   87C1 00000000000700E3F07F0780F0000000
156   87D1                 db 000h, 000h, 000h, 000h, 000h, 007h, 000h, 0EFh, 0F0h, 07Fh, 007h, 080h, 0F0h, 000h, 000h, 000h
156   87D1 00000000000700EFF07F0780F0000000
157   87E1                 db 000h, 000h, 000h, 000h, 000h, 00Fh, 000h, 000h, 0E0h, 07Fh, 087h, 080h, 078h, 000h, 000h, 000h ; 19
157   87E1 00000000000F0000E07F878078000000
158   87F1                 db 000h, 000h, 000h, 000h, 000h, 00Fh, 000h, 000h, 0E0h, 0FFh, 087h, 080h, 078h, 000h, 000h, 000h
158   87F1 00000000000F0000E0FF878078000000
159   8801                 db 000h, 000h, 000h, 000h, 000h, 00Fh, 000h, 000h, 0E0h, 0FFh, 083h, 0C0h, 078h, 000h, 000h, 000h
159   8801 00000000000F0000E0FF83C078000000
160   8811                 db 000h, 000h, 000h, 000h, 000h, 00Fh, 000h, 000h, 0C0h, 0FFh, 083h, 0C0h, 03Ch, 000h, 000h, 000h
160   8811 00000000000F0000C0FF83C03C000000
161   8821                 db 000h, 000h, 000h, 000h, 000h, 01Fh, 000h, 000h, 0C0h, 0FFh, 083h, 0C0h, 03Ch, 000h, 000h, 000h
161   8821 00000000001F0000C0FF83C03C000000
162   8831                 db 000h, 000h, 000h, 000h, 000h, 01Fh, 000h, 000h, 080h, 0FFh, 083h, 0C0h, 03Ch, 000h, 000h, 000h
162   8831 00000000001F000080FF83C03C000000
163   8841                 db 000h, 000h, 000h, 000h, 000h, 01Fh, 000h, 000h, 080h, 0FFh, 083h, 0E0h, 03Eh, 000h, 000h, 000h
163   8841 00000000001F000080FF83E03E000000
164   8851                 db 000h, 000h, 000h, 000h, 000h, 03Fh, 000h, 000h, 080h, 0FFh, 081h, 0E0h, 01Eh, 000h, 000h, 000h
164   8851 00000000003F000080FF81E01E000000
165   8861                 db 000h, 000h, 000h, 000h, 000h, 03Fh, 000h, 0FFh, 001h, 000h, 0C1h, 0E0h, 01Fh, 000h, 000h, 000h ; 20
165   8861 00000000003F00FF0100C1E01F000000
166   8871                 db 000h, 000h, 000h, 000h, 000h, 03Fh, 000h, 0FEh, 001h, 000h, 0C1h, 0E0h, 01Fh, 000h, 000h, 000h
166   8871 00000000003F00FE0100C1E01F000000
167   8881                 db 000h, 000h, 000h, 000h, 000h, 07Fh, 000h, 0FEh, 001h, 000h, 0C1h, 0F0h, 00Fh, 080h, 000h, 000h
167   8881 00000000007F00FE0100C1F00F800000
168   8891                 db 000h, 000h, 000h, 000h, 000h, 07Fh, 000h, 0FCh, 001h, 000h, 0C1h, 0F0h, 00Fh, 080h, 000h, 000h
168   8891 00000000007F00FC0100C1F00F800000
169   88A1                 db 000h, 000h, 000h, 000h, 000h, 07Fh, 000h, 0FCh, 001h, 000h, 0C0h, 0F0h, 007h, 080h, 000h, 000h
169   88A1 00000000007F00FC0100C0F007800000
170   88B1                 db 000h, 000h, 000h, 000h, 000h, 07Fh, 000h, 0F8h, 001h, 000h, 0C0h, 0F0h, 007h, 0C0h, 000h, 000h
170   88B1 00000000007F00F80100C0F007C00000
171   88C1                 db 000h, 000h, 000h, 000h, 000h, 0FFh, 000h, 0F0h, 001h, 000h, 0C0h, 0F8h, 007h, 0C0h, 000h, 000h
171   88C1 0000000000FF00F00100C0F807C00000
172   88D1                 db 000h, 000h, 000h, 000h, 000h, 0FFh, 000h, 0F0h, 001h, 000h, 0E0h, 0F8h, 003h, 0E0h, 000h, 000h
172   88D1 0000000000FF00F00100E0F803E00000
173   88E1                 db 000h, 000h, 000h, 000h, 000h, 000h, 0FFh, 0E0h, 001h, 000h, 0E0h, 078h, 003h, 0E0h, 000h, 000h ; 21
173   88E1 000000000000FFE00100E07803E00000
174   88F1                 db 000h, 000h, 000h, 000h, 001h, 000h, 0FFh, 0C0h, 001h, 000h, 0E0h, 078h, 001h, 0F0h, 000h, 000h
174   88F1 000000000100FFC00100E07801F00000
175   8901                 db 000h, 000h, 000h, 000h, 001h, 000h, 0FFh, 0C0h, 001h, 000h, 0E0h, 07Ch, 001h, 0F0h, 000h, 000h
175   8901 000000000100FFC00100E07C01F00000
176   8911                 db 000h, 000h, 000h, 000h, 003h, 000h, 0FFh, 080h, 001h, 000h, 0E0h, 03Ch, 001h, 0F8h, 000h, 000h
176   8911 000000000300FF800100E03C01F80000
177   8921                 db 000h, 000h, 000h, 000h, 003h, 000h, 0FFh, 000h, 000h, 000h, 0E0h, 03Ch, 000h, 0FCh, 000h, 000h
177   8921 000000000300FF000000E03C00FC0000
178   8931                 db 000h, 000h, 000h, 000h, 003h, 000h, 0FFh, 000h, 000h, 000h, 0F0h, 03Ch, 000h, 0FEh, 000h, 000h
178   8931 000000000300FF000000F03C00FE0000
179   8941                 db 000h, 000h, 000h, 000h, 007h, 000h, 0FEh, 000h, 000h, 000h, 0F0h, 01Ch, 000h, 07Fh, 000h, 000h
179   8941 000000000700FE000000F01C007F0000
180   8951                 db 000h, 000h, 000h, 000h, 007h, 000h, 0FCh, 000h, 000h, 000h, 0F0h, 01Eh, 000h, 07Fh, 080h, 000h
180   8951 000000000700FC000000F01E007F8000
181   8961                 db 000h, 000h, 000h, 000h, 00Fh, 000h, 0FCh, 000h, 000h, 07Fh, 0F0h, 00Eh, 000h, 07Fh, 0C0h, 000h ; 22
181   8961 000000000F00FC00007FF00E007FC000
182   8971                 db 000h, 000h, 000h, 000h, 00Fh, 000h, 0F8h, 000h, 000h, 03Fh, 0F0h, 00Eh, 000h, 03Fh, 0E0h, 000h
182   8971 000000000F00F800003FF00E003FE000
183   8981                 db 000h, 000h, 000h, 000h, 01Fh, 000h, 0F0h, 000h, 000h, 01Fh, 0F8h, 006h, 000h, 01Fh, 0F8h, 000h
183   8981 000000001F00F000001FF806001FF800
184   8991                 db 000h, 000h, 000h, 000h, 01Fh, 000h, 0E0h, 000h, 000h, 01Fh, 0F8h, 000h, 000h, 00Fh, 0FCh, 000h
184   8991 000000001F00E000001FF800000FFC00
185   89A1                 db 000h, 000h, 000h, 000h, 03Fh, 000h, 0C0h, 000h, 000h, 00Fh, 0F8h, 000h, 000h, 007h, 0FEh, 000h
185   89A1 000000003F00C000000FF8000007FE00
186   89B1                 db 000h, 000h, 000h, 000h, 03Fh, 000h, 080h, 000h, 000h, 007h, 0F8h, 000h, 000h, 001h, 0FFh, 000h
186   89B1 000000003F0080000007F8000001FF00
187   89C1                 db 000h, 000h, 000h, 000h, 07Fh, 000h, 080h, 000h, 000h, 001h, 0F0h, 000h, 000h, 001h, 0FFh, 080h
187   89C1 000000007F0080000001F0000001FF80
188   89D1                 db 000h, 000h, 000h, 000h, 07Fh, 000h, 000h, 000h, 000h, 000h, 0F0h, 000h, 000h, 000h, 03Fh, 080h
188   89D1 000000007F0000000000F00000003F80
189   89E1                 db 000h, 000h, 000h, 000h, 07Fh, 0FFh, 000h, 000h, 000h, 000h, 030h, 000h, 000h, 000h, 00Fh, 0C0h ; 23
189   89E1 000000007FFF00000000300000000FC0
190   89F1                 db 000h, 000h, 000h, 000h, 03Fh, 0FFh, 0E0h, 000h, 000h, 000h, 000h, 000h, 000h, 000h, 003h, 0E0h
190   89F1 000000003FFFE00000000000000003E0
191   8A01                 db 000h, 000h, 000h, 000h, 007h, 0FFh, 0F8h, 000h, 000h, 000h, 000h, 000h, 000h, 000h, 000h, 0F0h
191   8A01 0000000007FFF80000000000000000F0
192   8A11                 db 000h, 000h, 000h, 000h, 001h, 0FFh, 0FFh, 0F0h, 000h, 000h, 000h, 000h, 000h, 000h, 000h, 078h
192   8A11 0000000001FFFFF00000000000000078
193   8A21                 db 000h, 000h, 000h, 000h, 000h, 0FFh, 0FFh, 0FEh, 000h, 000h, 000h, 000h, 000h, 000h, 000h, 01Ch
193   8A21 0000000000FFFFFE000000000000001C
194   8A31                 db 000h, 000h, 000h, 000h, 000h, 03Fh, 0FFh, 0FFh, 0F8h, 000h, 000h, 000h, 000h, 000h, 000h, 00Ch
194   8A31 00000000003FFFFFF80000000000000C
195   8A41                 db 000h, 000h, 000h, 000h, 000h, 003h, 0FFh, 0FFh, 0FFh, 000h, 01Fh, 0FFh, 0FCh, 000h, 000h, 006h
195   8A41 000000000003FFFFFF001FFFFC000006
196   8A51                 db 000h, 000h, 000h, 000h, 000h, 000h, 03Fh, 0F0h, 000h, 0FFh, 0E0h, 000h, 003h, 0FFh, 0FFh, 0FFh
196   8A51 0000000000003FF000FFE00003FFFFFF
197   8A61                 ; Color attributes
198   8A61                 db 045h, 045h, 045h, 045h, 045h, 045h, 045h, 045h, 045h, 045h, 045h, 042h, 045h, 045h, 045h, 045h ; 0
198   8A61 45454545454545454545454245454545
199   8A71                 db 045h, 045h, 045h, 045h, 045h, 045h, 042h, 042h, 042h, 042h, 042h, 042h, 042h, 042h, 045h, 045h ; 1
199   8A71 45454545454542424242424242424545
200   8A81                 db 045h, 045h, 045h, 045h, 045h, 045h, 042h, 056h, 056h, 056h, 056h, 056h, 042h, 042h, 045h, 045h ; 2
200   8A81 45454545454542565656565642424545
201   8A91                 db 045h, 045h, 045h, 045h, 045h, 045h, 042h, 057h, 056h, 056h, 056h, 056h, 042h, 042h, 045h, 045h ; 3
201   8A91 45454545454542575656565642424545
202   8AA1                 db 045h, 045h, 045h, 045h, 045h, 045h, 047h, 057h, 057h, 042h, 042h, 042h, 045h, 045h, 045h, 045h ; 4
202   8AA1 45454545454547575742424245454545
203   8AB1                 db 045h, 042h, 042h, 045h, 045h, 045h, 045h, 047h, 047h, 047h, 047h, 047h, 045h, 045h, 045h, 045h ; 5
203   8AB1 45424245454545474747474745454545
204   8AC1                 db 045h, 042h, 042h, 042h, 045h, 045h, 047h, 047h, 047h, 047h, 047h, 047h, 045h, 045h, 045h, 045h ; 6
204   8AC1 45424242454547474747474745454545
205   8AD1                 db 045h, 045h, 042h, 042h, 042h, 042h, 057h, 057h, 057h, 057h, 047h, 047h, 045h, 045h, 045h, 045h ; 7
205   8AD1 45454242424257575757474745454545
206   8AE1                 db 045h, 045h, 045h, 045h, 042h, 042h, 042h, 057h, 057h, 057h, 042h, 042h, 042h, 045h, 045h, 045h ; 8
206   8AE1 45454545424242575757424242454545
207   8AF1                 db 045h, 045h, 045h, 045h, 045h, 045h, 042h, 057h, 057h, 057h, 042h, 042h, 042h, 042h, 045h, 045h ; 9
207   8AF1 45454545454542575757424242424545
208   8B01                 db 045h, 045h, 045h, 045h, 045h, 045h, 042h, 042h, 057h, 042h, 042h, 045h, 042h, 042h, 045h, 045h ; 10
208   8B01 45454545454542425742424542424545
209   8B11                 db 045h, 045h, 045h, 045h, 045h, 045h, 042h, 042h, 042h, 045h, 042h, 045h, 045h, 042h, 042h, 045h ; 11
209   8B11 45454545454542424245424545424245
210   8B21                 db 045h, 045h, 045h, 045h, 045h, 045h, 042h, 045h, 042h, 042h, 042h, 045h, 045h, 042h, 042h, 042h ; 12
210   8B21 45454545454542454242424545424242
211   8B31                 db 045h, 045h, 045h, 045h, 045h, 045h, 042h, 045h, 042h, 042h, 042h, 045h, 045h, 045h, 042h, 042h ; 13
211   8B31 45454545454542454242424545454242
212   8B41                 db 045h, 045h, 045h, 045h, 045h, 045h, 042h, 042h, 042h, 042h, 042h, 042h, 045h, 045h, 045h, 045h ; 14
212   8B41 45454545454542424242424245454545
213   8B51                 db 045h, 045h, 045h, 045h, 045h, 045h, 042h, 052h, 042h, 042h, 042h, 042h, 045h, 045h, 045h, 045h ; 15
213   8B51 45454545454542524242424245454545
214   8B61                 db 045h, 045h, 045h, 045h, 045h, 045h, 042h, 052h, 042h, 042h, 042h, 042h, 045h, 045h, 045h, 045h ; 16
214   8B61 45454545454542524242424245454545
215   8B71                 db 045h, 045h, 045h, 045h, 045h, 042h, 042h, 042h, 042h, 042h, 042h, 042h, 042h, 045h, 045h, 045h ; 17
215   8B71 45454545454242424242424242454545
216   8B81                 db 045h, 045h, 045h, 045h, 045h, 042h, 052h, 042h, 042h, 042h, 042h, 042h, 042h, 045h, 045h, 045h ; 18
216   8B81 45454545454252424242424242454545
217   8B91                 db 045h, 045h, 045h, 045h, 045h, 042h, 052h, 052h, 042h, 042h, 042h, 042h, 042h, 045h, 045h, 045h ; 19
217   8B91 45454545454252524242424242454545
218   8BA1                 db 045h, 045h, 045h, 045h, 045h, 042h, 052h, 042h, 042h, 052h, 042h, 042h, 042h, 042h, 045h, 045h ; 20
218   8BA1 45454545454252424252424242424545
219   8BB1                 db 045h, 045h, 045h, 045h, 042h, 052h, 042h, 042h, 042h, 052h, 042h, 042h, 042h, 042h, 042h, 045h ; 21
219   8BB1 45454545425242424252424242424245
220   8BC1                 db 045h, 045h, 045h, 045h, 042h, 052h, 042h, 045h, 045h, 042h, 042h, 042h, 045h, 042h, 042h, 042h ; 22
220   8BC1 45454545425242454542424245424242
221   8BD1                 db 045h, 045h, 045h, 045h, 042h, 042h, 042h, 042h, 042h, 042h, 042h, 042h, 042h, 042h, 042h, 042h ; 23
221   8BD1 45454545424242424242424242424242
222   8BE1             
001   8BE1             image_rast: 
002   8BE1                 ; Width, height
003   8BE1 0C 18           db 12, 24
004   8BE3                 ; Black & white
005   8BE3                 db 000h, 000h, 000h, 000h, 000h, 000h, 000h, 000h, 000h, 000h, 000h, 000h ; 0
005   8BE3 000000000000000000000000
006   8BEF                 db 000h, 000h, 000h, 000h, 000h, 000h, 000h, 000h, 000h, 000h, 000h, 000h
006   8BEF 000000000000000000000000
007   8BFB                 db 000h, 000h, 000h, 000h, 000h, 000h, 000h, 000h, 000h, 000h, 000h, 000h
007   8BFB 000000000000000000000000
008   8C07                 db 000h, 000h, 000h, 000h, 000h, 000h, 000h, 000h, 000h, 000h, 000h, 000h
008   8C07 000000000000000000000000
009   8C13                 db 000h, 000h, 000h, 000h, 000h, 000h, 000h, 000h, 000h, 000h, 000h, 000h
009   8C13 000000000000000000000000
010   8C1F                 db 000h, 000h, 000h, 000h, 03Fh, 0C0h, 000h, 000h, 000h, 000h, 000h, 000h
010   8C1F 000000003FC0000000000000
011   8C2B                 db 000h, 000h, 000h, 000h, 0FFh, 0E0h, 000h, 000h, 000h, 000h, 000h, 000h
011   8C2B 00000000FFE0000000000000
012   8C37                 db 000h, 000h, 000h, 003h, 0C7h, 078h, 000h, 000h, 000h, 000h, 000h, 000h
012   8C37 00000003C778000000000000
013   8C43                 db 000h, 000h, 000h, 00Fh, 03Fh, 098h, 000h, 000h, 000h, 000h, 000h, 000h ; 1
013   8C43 0000000F3F98000000000000
014   8C4F                 db 000h, 000h, 000h, 01Ch, 0EFh, 0ECh, 000h, 000h, 000h, 000h, 000h, 000h
014   8C4F 0000001CEFEC000000000000
015   8C5B                 db 000h, 000h, 000h, 01Bh, 0DFh, 036h, 000h, 000h, 000h, 000h, 000h, 000h
015   8C5B 0000001BDF36000000000000
016   8C67                 db 000h, 000h, 000h, 037h, 0BBh, 0DBh, 000h, 000h, 000h, 000h, 000h, 000h
016   8C67 00000037BBDB000000000000
017   8C73                 db 000h, 000h, 000h, 036h, 077h, 06Fh, 0C0h, 000h, 000h, 000h, 000h, 000h
017   8C73 00000036776FC00000000000
018   8C7F                 db 000h, 000h, 000h, 06Dh, 0EDh, 03Fh, 0E0h, 000h, 000h, 000h, 000h, 000h
018   8C7F 0000006DED3FE00000000000
019   8C8B                 db 000h, 000h, 000h, 06Bh, 09Dh, 003h, 0E0h, 000h, 000h, 000h, 000h, 000h
019   8C8B 0000006B9D03E00000000000
020   8C97                 db 000h, 000h, 000h, 05Bh, 072h, 001h, 060h, 000h, 000h, 000h, 018h, 000h
020   8C97 0000005B7201600000001800
021   8CA3                 db 000h, 000h, 000h, 0D7h, 06Eh, 0F0h, 0A0h, 000h, 000h, 000h, 07Eh, 000h ; 2
021   8CA3 000000D76EF0A00000007E00
022   8CAF                 db 000h, 000h, 001h, 0B6h, 0DEh, 0F8h, 0B0h, 000h, 000h, 000h, 0DFh, 000h
022   8CAF 000001B6DEF8B0000000DF00
023   8CBB                 db 000h, 000h, 003h, 06Dh, 0D6h, 0FCh, 0B0h, 000h, 000h, 000h, 09Fh, 000h
023   8CBB 0000036DD6FCB00000009F00
024   8CC7                 db 000h, 000h, 003h, 06Fh, 0B6h, 0FCh, 0B0h, 000h, 000h, 000h, 0BFh, 000h
024   8CC7 0000036FB6FCB0000000BF00
025   8CD3                 db 000h, 000h, 006h, 0CFh, 06Ch, 0FCh, 0D8h, 000h, 000h, 000h, 0B3h, 000h
025   8CD3 000006CF6CFCD8000000B300
026   8CDF                 db 000h, 000h, 006h, 0DEh, 0CCh, 0FCh, 0DEh, 000h, 000h, 002h, 0FFh, 000h
026   8CDF 000006DECCFCDE000002FF00
027   8CEB                 db 000h, 000h, 006h, 0DFh, 098h, 0FEh, 0EFh, 0C0h, 000h, 002h, 07Eh, 000h
027   8CEB 000006DF98FEEFC000027E00
028   8CF7                 db 000h, 000h, 006h, 0DFh, 000h, 082h, 077h, 0E0h, 000h, 003h, 03Ch, 000h
028   8CF7 000006DF008277E000033C00
029   8D03                 db 000h, 000h, 006h, 0DEh, 010h, 013h, 038h, 070h, 000h, 003h, 000h, 000h ; 3
029   8D03 000006DE1013387000030000
030   8D0F                 db 000h, 000h, 006h, 0DCh, 046h, 0C7h, 04Fh, 0B0h, 000h, 003h, 03Ch, 000h
030   8D0F 000006DC46C74FB000033C00
031   8D1B                 db 000h, 000h, 006h, 0F8h, 0FEh, 0FFh, 071h, 0D8h, 000h, 007h, 078h, 000h
031   8D1B 000006F8FEFF71D800077800
032   8D27                 db 000h, 000h, 006h, 0F0h, 0FEh, 0FEh, 07Eh, 0E0h, 000h, 006h, 0F0h, 000h
032   8D27 000006F0FEFE7EE00006F000
033   8D33                 db 000h, 000h, 006h, 0F0h, 0FCh, 0FEh, 007h, 030h, 000h, 006h, 0E0h, 000h
033   8D33 000006F0FCFE07300006E000
034   8D3F                 db 000h, 000h, 01Dh, 0F0h, 0FCh, 0FEh, 0F1h, 0D8h, 000h, 007h, 0C0h, 000h
034   8D3F 00001DF0FCFEF1D80007C000
035   8D4B                 db 000h, 000h, 01Dh, 0D8h, 0F9h, 0FCh, 0FCh, 0ECh, 000h, 00Fh, 080h, 000h
035   8D4B 00001DD8F9FCFCEC000F8000
036   8D57                 db 000h, 000h, 03Bh, 0DCh, 07Ch, 03Ch, 00Eh, 066h, 000h, 00Fh, 080h, 000h
036   8D57 00003BDC7C3C0E66000F8000
037   8D63                 db 000h, 000h, 037h, 05Eh, 03Fh, 0FCh, 0E7h, 073h, 000h, 01Fh, 000h, 000h ; 4
037   8D63 0000375E3FFCE773001F0000
038   8D6F                 db 000h, 000h, 06Eh, 0DFh, 038h, 01Ch, 073h, 039h, 000h, 01Fh, 000h, 000h
038   8D6F 00006EDF381C7339001F0000
039   8D7B                 db 000h, 000h, 06Dh, 08Fh, 033h, 0C8h, 099h, 098h, 080h, 01Eh, 000h, 000h
039   8D7B 00006D8F33C89998801E0000
040   8D87                 db 000h, 000h, 06Dh, 08Fh, 01Ch, 018h, 0CCh, 0CCh, 040h, 03Eh, 000h, 000h
040   8D87 00006D8F1C18CCCC403E0000
041   8D93                 db 000h, 000h, 064h, 0CFh, 019h, 0F0h, 0E4h, 0C6h, 020h, 03Ch, 000h, 000h
041   8D93 000064CF19F0E4C6203C0000
042   8D9F                 db 000h, 000h, 024h, 04Eh, 01Ch, 070h, 076h, 062h, 000h, 07Ch, 000h, 000h
042   8D9F 0000244E1C707662007C0000
043   8DAB                 db 000h, 000h, 020h, 05Ch, 00Fh, 0E0h, 032h, 033h, 000h, 078h, 000h, 000h
043   8DAB 0000205C0FE0323300780000
044   8DB7                 db 000h, 000h, 000h, 05Ch, 003h, 0C0h, 099h, 011h, 000h, 0F8h, 000h, 000h
044   8DB7 0000005C03C0991100F80000
045   8DC3                 db 000h, 000h, 010h, 05Fh, 0C0h, 000h, 08Ch, 008h, 000h, 0F0h, 000h, 000h ; 5
045   8DC3 0000105FC0008C0800F00000
046   8DCF                 db 000h, 000h, 030h, 02Fh, 0C0h, 000h, 0C4h, 004h, 000h, 0F0h, 000h, 000h
046   8DCF 0000302FC000C40400F00000
047   8DDB                 db 000h, 000h, 0E0h, 020h, 0F0h, 000h, 062h, 002h, 001h, 0E0h, 000h, 000h
047   8DDB 0000E020F000620201E00000
048   8DE7                 db 000h, 001h, 080h, 000h, 070h, 000h, 031h, 000h, 001h, 0E0h, 000h, 000h
048   8DE7 000180007000310001E00000
049   8DF3                 db 000h, 001h, 080h, 000h, 070h, 000h, 018h, 000h, 003h, 0C0h, 000h, 000h
049   8DF3 000180007000180003C00000
050   8DFF                 db 000h, 003h, 000h, 000h, 0E0h, 000h, 007h, 000h, 003h, 0C0h, 000h, 000h
050   8DFF 00030000E000070003C00000
051   8E0B                 db 000h, 007h, 000h, 000h, 0E0h, 000h, 000h, 000h, 007h, 080h, 000h, 000h
051   8E0B 00070000E000000007800000
052   8E17                 db 000h, 00Eh, 000h, 000h, 040h, 000h, 000h, 000h, 007h, 080h, 000h, 000h
052   8E17 000E00004000000007800000
053   8E23                 db 000h, 00Eh, 000h, 000h, 000h, 001h, 000h, 000h, 00Fh, 000h, 002h, 000h ; 6
053   8E23 000E0000000100000F000200
054   8E2F                 db 000h, 01Fh, 000h, 000h, 000h, 001h, 080h, 000h, 00Fh, 000h, 006h, 000h
054   8E2F 001F0000000180000F000600
055   8E3B                 db 000h, 01Fh, 080h, 000h, 000h, 001h, 080h, 000h, 00Eh, 000h, 006h, 030h
055   8E3B 001F8000000180000E000630
056   8E47                 db 000h, 03Fh, 0F0h, 000h, 08Eh, 001h, 080h, 000h, 01Eh, 000h, 00Ch, 070h
056   8E47 003FF0008E0180001E000C70
057   8E53                 db 000h, 03Fh, 0FFh, 000h, 006h, 007h, 020h, 000h, 01Ch, 000h, 00Ch, 0E0h
057   8E53 003FFF00060720001C000CE0
058   8E5F                 db 000h, 03Fh, 0E0h, 0D0h, 04Ah, 007h, 020h, 000h, 03Ch, 000h, 0D9h, 0C0h
058   8E5F 003FE0D04A0720003C00D9C0
059   8E6B                 db 000h, 03Fh, 0C0h, 038h, 08Bh, 007h, 020h, 000h, 038h, 000h, 0DBh, 080h
059   8E6B 003FC0388B0720003800DB80
060   8E77                 db 000h, 03Eh, 000h, 02Ch, 0C3h, 007h, 030h, 000h, 078h, 000h, 0F7h, 018h
060   8E77 003E002CC30730007800F718
061   8E83                 db 000h, 018h, 000h, 014h, 053h, 0C7h, 030h, 000h, 070h, 000h, 0F6h, 078h ; 7
061   8E83 0018001453C730007000F678
062   8E8F                 db 000h, 004h, 000h, 008h, 061h, 04Fh, 030h, 000h, 0F0h, 000h, 07Ch, 0E0h
062   8E8F 00040008614F3000F0007CE0
063   8E9B                 db 000h, 01Ch, 000h, 00Eh, 021h, 03Bh, 0B0h, 000h, 0E0h, 000h, 07Dh, 0C0h
063   8E9B 001C000E213BB000E0007DC0
064   8EA7                 db 000h, 018h, 000h, 007h, 031h, 0D8h, 030h, 000h, 0E0h, 000h, 07Fh, 098h
064   8EA7 0018000731D83000E0007F98
065   8EB3                 db 000h, 018h, 000h, 001h, 018h, 00Bh, 0F8h, 00Eh, 040h, 000h, 07Fh, 078h
065   8EB3 00180001180BF80E40007F78
066   8EBF                 db 000h, 038h, 000h, 001h, 080h, 072h, 038h, 01Fh, 040h, 000h, 07Fh, 0E0h
066   8EBF 003800018072381F40007FE0
067   8ECB                 db 000h, 030h, 000h, 001h, 0C0h, 023h, 038h, 001h, 040h, 000h, 07Fh, 0C0h
067   8ECB 00300001C023380140007FC0
068   8ED7                 db 000h, 030h, 000h, 001h, 0F0h, 017h, 038h, 03Ch, 040h, 000h, 0FFh, 080h
068   8ED7 00300001F017383C4000FF80
069   8EE3                 db 000h, 030h, 000h, 003h, 038h, 0C7h, 030h, 01Eh, 000h, 001h, 0FFh, 080h ; 8
069   8EE3 0030000338C7301E0001FF80
070   8EEF                 db 000h, 030h, 000h, 006h, 00Ch, 0E1h, 070h, 063h, 000h, 007h, 0FFh, 000h
070   8EEF 003000060CE170630007FF00
071   8EFB                 db 000h, 030h, 000h, 006h, 00Ch, 06Ch, 070h, 0FDh, 000h, 01Fh, 0FFh, 000h
071   8EFB 003000060C6C70FD001FFF00
072   8F07                 db 000h, 020h, 000h, 004h, 004h, 038h, 0F0h, 00Eh, 000h, 07Dh, 0FEh, 000h
072   8F07 002000040438F00E007DFE00
073   8F13                 db 000h, 020h, 000h, 004h, 037h, 09Bh, 0F0h, 0F2h, 001h, 0EDh, 0FCh, 000h
073   8F13 00200004379BF0F201EDFC00
074   8F1F                 db 000h, 020h, 000h, 00Fh, 0FDh, 0C3h, 0E0h, 07Bh, 007h, 069h, 0F8h, 000h
074   8F1F 0020000FFDC3E07B0769F800
075   8F2B                 db 000h, 020h, 000h, 007h, 01Ch, 078h, 020h, 01Bh, 01Fh, 041h, 0E0h, 000h
075   8F2B 002000071C78201B1F41E000
076   8F37                 db 000h, 020h, 000h, 000h, 039h, 0CFh, 080h, 000h, 0FFh, 001h, 0C0h, 000h
076   8F37 0020000039CF8000FF01C000
077   8F43                 db 000h, 020h, 000h, 000h, 03Fh, 0CCh, 070h, 033h, 0BFh, 001h, 080h, 000h ; 9
077   8F43 002000003FCC7033BF018000
078   8F4F                 db 000h, 020h, 000h, 000h, 078h, 085h, 08Ch, 0FFh, 07Fh, 001h, 000h, 000h
078   8F4F 0020000078858CFF7F010000
079   8F5B                 db 000h, 020h, 000h, 001h, 081h, 08Ch, 0DFh, 07Eh, 01Fh, 001h, 000h, 000h
079   8F5B 00200001818CDF7E1F010000
080   8F67                 db 000h, 020h, 000h, 006h, 001h, 039h, 098h, 06Ch, 05Fh, 001h, 000h, 000h
080   8F67 002000060139986C5F010000
081   8F73                 db 000h, 020h, 000h, 000h, 003h, 031h, 098h, 068h, 0CEh, 002h, 000h, 000h
081   8F73 0020000003319868CE020000
082   8F7F                 db 000h, 020h, 000h, 000h, 000h, 033h, 098h, 0F2h, 0DAh, 002h, 000h, 000h
082   8F7F 00200000003398F2DA020000
083   8F8B                 db 000h, 020h, 000h, 000h, 000h, 0F3h, 031h, 0E1h, 0DAh, 002h, 000h, 000h
083   8F8B 0020000000F331E1DA020000
084   8F97                 db 000h, 020h, 000h, 000h, 000h, 0C3h, 033h, 087h, 09Ah, 004h, 000h, 000h
084   8F97 0020000000C333879A040000
085   8FA3                 db 000h, 030h, 000h, 000h, 001h, 0C2h, 023h, 00Fh, 092h, 004h, 000h, 000h ; 10
085   8FA3 0030000001C2230F92040000
086   8FAF                 db 000h, 030h, 040h, 000h, 001h, 002h, 044h, 083h, 0B4h, 004h, 000h, 000h
086   8FAF 0030400001024483B4040000
087   8FBB                 db 000h, 010h, 030h, 000h, 000h, 004h, 047h, 083h, 014h, 008h, 000h, 000h
087   8FBB 001030000004478314080000
088   8FC7                 db 000h, 010h, 008h, 000h, 000h, 004h, 007h, 087h, 008h, 008h, 000h, 000h
088   8FC7 001008000004078708080000
089   8FD3                 db 000h, 010h, 004h, 000h, 000h, 000h, 006h, 006h, 008h, 008h, 000h, 000h
089   8FD3 001004000000060608080000
090   8FDF                 db 000h, 008h, 003h, 000h, 000h, 000h, 00Eh, 004h, 008h, 010h, 000h, 000h
090   8FDF 0008030000000E0408100000
091   8FEB                 db 000h, 008h, 000h, 0C0h, 000h, 000h, 00Ch, 008h, 010h, 020h, 000h, 000h
091   8FEB 000800C000000C0810200000
092   8FF7                 db 000h, 008h, 000h, 030h, 000h, 000h, 000h, 008h, 010h, 040h, 000h, 000h
092   8FF7 000800300000000810400000
093   9003                 db 000h, 008h, 000h, 00Ch, 000h, 000h, 000h, 000h, 021h, 080h, 000h, 000h ; 11
093   9003 0008000C0000000021800000
094   900F                 db 000h, 008h, 000h, 003h, 080h, 000h, 000h, 000h, 022h, 000h, 000h, 000h
094   900F 000800038000000022000000
095   901B                 db 000h, 008h, 000h, 000h, 070h, 000h, 000h, 000h, 02Ch, 000h, 000h, 000h
095   901B 00080000700000002C000000
096   9027                 db 000h, 008h, 000h, 000h, 00Eh, 000h, 000h, 000h, 070h, 000h, 000h, 000h
096   9027 000800000E00000070000000
097   9033                 db 000h, 008h, 000h, 000h, 001h, 0F8h, 000h, 007h, 080h, 000h, 000h, 000h
097   9033 0008000001F8000780000000
098   903F                 db 000h, 008h, 000h, 000h, 001h, 0FFh, 0FFh, 0F8h, 000h, 000h, 000h, 000h
098   903F 0008000001FFFFF800000000
099   904B                 db 000h, 008h, 000h, 000h, 003h, 033h, 087h, 0C0h, 000h, 000h, 000h, 000h
099   904B 00080000033387C000000000
100   9057                 db 000h, 008h, 000h, 000h, 003h, 06Bh, 087h, 0C0h, 000h, 000h, 000h, 000h
100   9057 00080000036B87C000000000
101   9063                 db 000h, 01Fh, 000h, 000h, 007h, 068h, 087h, 080h, 000h, 000h, 000h, 000h ; 12
101   9063 001F00000768878000000000
102   906F                 db 000h, 060h, 080h, 000h, 006h, 063h, 007h, 080h, 000h, 000h, 000h, 000h
102   906F 006080000663078000000000
103   907B                 db 000h, 080h, 09Fh, 0FCh, 006h, 0E5h, 00Fh, 080h, 000h, 000h, 000h, 000h
103   907B 00809FFC06E50F8000000000
104   9087                 db 000h, 0C7h, 060h, 002h, 00Ch, 0C5h, 00Fh, 000h, 000h, 000h, 000h, 000h
104   9087 00C760020CC50F0000000000
105   9093                 db 001h, 028h, 080h, 007h, 000h, 0D1h, 01Fh, 000h, 000h, 000h, 000h, 000h
105   9093 0128800700D11F0000000000
106   909F                 db 001h, 029h, 0E0h, 03Fh, 007h, 013h, 03Eh, 000h, 000h, 000h, 000h, 000h
106   909F 0129E03F07133E0000000000
107   90AB                 db 001h, 011h, 012h, 047h, 00Ch, 07Fh, 03Eh, 000h, 000h, 000h, 000h, 000h
107   90AB 011112470C7F3E0000000000
108   90B7                 db 001h, 001h, 010h, 047h, 0FFh, 0F1h, 07Ch, 000h, 000h, 000h, 000h, 000h
108   90B7 01011047FFF17C0000000000
109   90C3                 db 001h, 001h, 00Fh, 087h, 000h, 001h, 0FCh, 000h, 000h, 000h, 000h, 000h ; 13
109   90C3 01010F870001FC0000000000
110   90CF                 db 001h, 001h, 000h, 007h, 000h, 001h, 0F8h, 000h, 000h, 000h, 000h, 000h
110   90CF 010100070001F80000000000
111   90DB                 db 001h, 001h, 000h, 007h, 000h, 00Fh, 0E0h, 000h, 000h, 000h, 000h, 000h
111   90DB 01010007000FE00000000000
112   90E7                 db 001h, 001h, 000h, 007h, 0FFh, 0FFh, 000h, 000h, 000h, 000h, 000h, 000h
112   90E7 01010007FFFF000000000000
113   90F3                 db 001h, 001h, 000h, 007h, 001h, 0FDh, 000h, 000h, 000h, 000h, 000h, 000h
113   90F3 0101000701FD000000000000
114   90FF                 db 000h, 087h, 000h, 007h, 003h, 0EDh, 000h, 000h, 000h, 000h, 000h, 000h
114   90FF 0087000703ED000000000000
115   910B                 db 000h, 04Eh, 080h, 007h, 006h, 0E9h, 000h, 000h, 000h, 000h, 000h, 000h
115   910B 004E800706E9000000000000
116   9117                 db 000h, 03Ch, 080h, 007h, 00Dh, 0D5h, 080h, 000h, 000h, 000h, 000h, 000h
116   9117 003C80070DD5800000000000
117   9123                 db 000h, 020h, 060h, 00Eh, 039h, 0B7h, 080h, 000h, 000h, 000h, 000h, 000h ; 14
117   9123 0020600E39B7800000000000
118   912F                 db 000h, 060h, 01Fh, 0FCh, 07Bh, 0FFh, 080h, 000h, 000h, 000h, 000h, 000h
118   912F 00601FFC7BFF800000000000
119   913B                 db 000h, 060h, 000h, 000h, 073h, 04Fh, 0C0h, 000h, 000h, 000h, 000h, 000h
119   913B 00600000734FC00000000000
120   9147                 db 000h, 060h, 000h, 000h, 066h, 0DFh, 0C0h, 000h, 000h, 000h, 000h, 000h
120   9147 0060000066DFC00000000000
121   9153                 db 000h, 060h, 000h, 000h, 0DCh, 09Bh, 0C0h, 000h, 000h, 000h, 000h, 000h
121   9153 00600000DC9BC00000000000
122   915F                 db 000h, 060h, 000h, 000h, 0D9h, 0BBh, 040h, 000h, 000h, 000h, 000h, 000h
122   915F 00600000D9BB400000000000
123   916B                 db 000h, 0C0h, 000h, 000h, 0F3h, 039h, 060h, 000h, 000h, 000h, 000h, 000h
123   916B 00C00000F339600000000000
124   9177                 db 000h, 0C0h, 000h, 000h, 0E7h, 079h, 020h, 000h, 000h, 000h, 000h, 000h
124   9177 00C00000E779200000000000
125   9183                 db 000h, 0C0h, 000h, 001h, 0CEh, 079h, 0A0h, 000h, 000h, 000h, 000h, 000h ; 15
125   9183 00C00001CE79A00000000000
126   918F                 db 000h, 0C0h, 000h, 003h, 08Ch, 0D9h, 090h, 000h, 000h, 000h, 000h, 000h
126   918F 00C000038CD9900000000000
127   919B                 db 000h, 0C0h, 000h, 003h, 099h, 0D9h, 088h, 000h, 000h, 000h, 000h, 000h
127   919B 00C0000399D9880000000000
128   91A7                 db 000h, 0C0h, 000h, 002h, 00Bh, 039h, 088h, 000h, 000h, 000h, 000h, 000h
128   91A7 00C000020B39880000000000
129   91B3                 db 000h, 0C0h, 000h, 000h, 00Fh, 079h, 084h, 000h, 000h, 000h, 000h, 000h
129   91B3 00C000000F79840000000000
130   91BF                 db 000h, 080h, 000h, 000h, 01Eh, 069h, 084h, 000h, 000h, 000h, 000h, 000h
130   91BF 008000001E69840000000000
131   91CB                 db 000h, 080h, 000h, 000h, 01Ch, 0D9h, 084h, 000h, 000h, 000h, 000h, 000h
131   91CB 008000001CD9840000000000
132   91D7                 db 000h, 080h, 000h, 000h, 03Ch, 0D9h, 082h, 000h, 000h, 000h, 000h, 000h
132   91D7 008000003CD9820000000000
133   91E3                 db 000h, 080h, 000h, 000h, 039h, 093h, 002h, 000h, 000h, 000h, 000h, 000h ; 16
133   91E3 008000003993020000000000
134   91EF                 db 001h, 080h, 000h, 000h, 071h, 093h, 001h, 000h, 000h, 000h, 000h, 000h
134   91EF 018000007193010000000000
135   91FB                 db 001h, 080h, 000h, 000h, 0E3h, 093h, 000h, 080h, 000h, 000h, 000h, 000h
135   91FB 01800000E393008000000000
136   9207                 db 001h, 080h, 000h, 000h, 0E3h, 033h, 000h, 080h, 000h, 000h, 000h, 000h
136   9207 01800000E333008000000000
137   9213                 db 001h, 000h, 000h, 001h, 0C7h, 037h, 000h, 040h, 000h, 000h, 000h, 000h
137   9213 01000001C737004000000000
138   921F                 db 001h, 000h, 000h, 001h, 086h, 037h, 008h, 040h, 000h, 000h, 000h, 000h
138   921F 010000018637084000000000
139   922B                 db 001h, 000h, 000h, 001h, 00Eh, 037h, 01Ch, 040h, 000h, 000h, 000h, 000h
139   922B 010000010E371C4000000000
140   9237                 db 001h, 000h, 000h, 000h, 00Ch, 037h, 01Eh, 020h, 000h, 000h, 000h, 000h
140   9237 010000000C371E2000000000
141   9243                 db 001h, 000h, 000h, 000h, 01Ch, 077h, 01Fh, 020h, 000h, 000h, 000h, 000h ; 17
141   9243 010000001C771F2000000000
142   924F                 db 003h, 000h, 000h, 000h, 038h, 067h, 01Fh, 090h, 000h, 000h, 000h, 000h
142   924F 0300000038671F9000000000
143   925B                 db 003h, 000h, 000h, 000h, 078h, 067h, 01Fh, 090h, 000h, 000h, 000h, 000h
143   925B 0300000078671F9000000000
144   9267                 db 002h, 000h, 000h, 000h, 070h, 0E7h, 01Fh, 0C8h, 000h, 000h, 000h, 000h
144   9267 0200000070E71FC800000000
145   9273                 db 002h, 000h, 000h, 000h, 0E0h, 0E7h, 01Fh, 0C8h, 000h, 000h, 000h, 000h
145   9273 02000000E0E71FC800000000
146   927F                 db 002h, 000h, 000h, 001h, 0E0h, 0E7h, 01Fh, 0E4h, 000h, 000h, 000h, 000h
146   927F 02000001E0E71FE400000000
147   928B                 db 002h, 000h, 000h, 001h, 0C0h, 0E7h, 01Fh, 0F4h, 000h, 000h, 000h, 000h
147   928B 02000001C0E71FF400000000
148   9297                 db 002h, 000h, 000h, 003h, 081h, 0E7h, 01Fh, 0FCh, 000h, 000h, 000h, 000h
148   9297 0200000381E71FFC00000000
149   92A3                 db 002h, 000h, 000h, 003h, 081h, 0CEh, 00Fh, 0FAh, 000h, 000h, 000h, 000h ; 18
149   92A3 0200000381CE0FFA00000000
150   92AF                 db 002h, 000h, 000h, 007h, 001h, 08Eh, 00Fh, 0FEh, 000h, 000h, 000h, 000h
150   92AF 02000007018E0FFE00000000
151   92BB                 db 002h, 000h, 000h, 007h, 003h, 08Eh, 007h, 0FFh, 000h, 000h, 000h, 000h
151   92BB 02000007038E07FF00000000
152   92C7                 db 002h, 000h, 000h, 00Eh, 003h, 08Eh, 003h, 0FFh, 000h, 000h, 000h, 000h
152   92C7 0200000E038E03FF00000000
153   92D3                 db 002h, 000h, 000h, 00Ch, 003h, 00Eh, 001h, 0FFh, 080h, 000h, 000h, 000h
153   92D3 0200000C030E01FF80000000
154   92DF                 db 004h, 000h, 000h, 00Ch, 007h, 00Eh, 001h, 0FFh, 080h, 000h, 000h, 000h
154   92DF 0400000C070E01FF80000000
155   92EB                 db 004h, 000h, 000h, 000h, 00Eh, 00Eh, 000h, 0FFh, 080h, 000h, 000h, 000h
155   92EB 040000000E0E00FF80000000
156   92F7                 db 004h, 000h, 000h, 000h, 00Eh, 00Eh, 000h, 0FFh, 0C0h, 000h, 000h, 000h
156   92F7 040000000E0E00FFC0000000
157   9303                 db 004h, 000h, 000h, 000h, 00Ch, 00Eh, 000h, 07Fh, 0C0h, 000h, 000h, 000h ; 19
157   9303 040000000C0E007FC0000000
158   930F                 db 004h, 000h, 000h, 000h, 018h, 00Eh, 000h, 03Fh, 0E0h, 000h, 000h, 000h
158   930F 04000000180E003FE0000000
159   931B                 db 004h, 000h, 000h, 000h, 018h, 00Eh, 000h, 01Fh, 0E0h, 000h, 000h, 000h
159   931B 04000000180E001FE0000000
160   9327                 db 004h, 000h, 000h, 000h, 030h, 00Eh, 000h, 007h, 0F0h, 000h, 000h, 000h
160   9327 04000000300E0007F0000000
161   9333                 db 004h, 000h, 000h, 000h, 020h, 00Eh, 000h, 003h, 0F0h, 000h, 000h, 000h
161   9333 04000000200E0003F0000000
162   933F                 db 004h, 000h, 000h, 000h, 000h, 00Eh, 000h, 003h, 0F8h, 000h, 000h, 000h
162   933F 04000000000E0003F8000000
163   934B                 db 004h, 000h, 000h, 000h, 000h, 00Eh, 000h, 00Fh, 0FCh, 000h, 000h, 000h
163   934B 04000000000E000FFC000000
164   9357                 db 004h, 000h, 000h, 000h, 000h, 00Eh, 080h, 00Fh, 0FCh, 000h, 000h, 000h
164   9357 04000000000E800FFC000000
165   9363                 db 004h, 000h, 000h, 000h, 000h, 00Eh, 040h, 007h, 0FCh, 000h, 000h, 000h ; 20
165   9363 04000000000E4007FC000000
166   936F                 db 004h, 000h, 000h, 000h, 000h, 00Eh, 040h, 003h, 0FEh, 000h, 000h, 000h
166   936F 04000000000E4003FE000000
167   937B                 db 004h, 000h, 000h, 000h, 000h, 01Eh, 020h, 003h, 0FEh, 000h, 000h, 000h
167   937B 04000000001E2003FE000000
168   9387                 db 004h, 000h, 000h, 000h, 000h, 01Eh, 010h, 001h, 0FEh, 000h, 000h, 000h
168   9387 04000000001E1001FE000000
169   9393                 db 004h, 000h, 000h, 000h, 000h, 01Eh, 010h, 000h, 0FFh, 000h, 000h, 000h
169   9393 04000000001E1000FF000000
170   939F                 db 004h, 000h, 000h, 000h, 000h, 01Eh, 008h, 000h, 07Fh, 000h, 000h, 000h
170   939F 04000000001E08007F000000
171   93AB                 db 004h, 000h, 000h, 000h, 000h, 01Eh, 004h, 000h, 00Fh, 000h, 000h, 000h
171   93AB 04000000001E04000F000000
172   93B7                 db 004h, 000h, 000h, 000h, 000h, 01Eh, 004h, 000h, 003h, 000h, 000h, 000h
172   93B7 04000000001E040003000000
173   93C3                 db 004h, 000h, 000h, 000h, 000h, 01Eh, 002h, 000h, 001h, 000h, 000h, 000h ; 21
173   93C3 04000000001E020001000000
174   93CF                 db 004h, 000h, 000h, 000h, 000h, 01Eh, 001h, 000h, 001h, 000h, 000h, 000h
174   93CF 04000000001E010001000000
175   93DB                 db 004h, 000h, 000h, 000h, 000h, 03Eh, 001h, 000h, 001h, 000h, 000h, 000h
175   93DB 04000000003E010001000000
176   93E7                 db 004h, 000h, 000h, 000h, 000h, 03Eh, 000h, 080h, 001h, 000h, 000h, 000h
176   93E7 04000000003E008001000000
177   93F3                 db 008h, 000h, 000h, 000h, 000h, 03Eh, 001h, 000h, 003h, 000h, 000h, 000h
177   93F3 08000000003E010003000000
178   93FF                 db 008h, 000h, 000h, 000h, 000h, 03Eh, 001h, 000h, 032h, 000h, 000h, 000h
178   93FF 08000000003E010032000000
179   940B                 db 008h, 000h, 000h, 000h, 000h, 03Eh, 002h, 000h, 033h, 000h, 000h, 000h
179   940B 08000000003E020033000000
180   9417                 db 008h, 000h, 000h, 000h, 000h, 03Eh, 004h, 000h, 032h, 000h, 000h, 000h
180   9417 08000000003E040032000000
181   9423                 db 008h, 000h, 000h, 000h, 000h, 03Eh, 004h, 000h, 024h, 000h, 000h, 000h ; 22
181   9423 08000000003E040024000000
182   942F                 db 008h, 000h, 000h, 000h, 000h, 07Eh, 008h, 000h, 004h, 000h, 000h, 000h
182   942F 08000000007E080004000000
183   943B                 db 008h, 000h, 000h, 000h, 000h, 07Eh, 008h, 000h, 008h, 000h, 000h, 000h
183   943B 08000000007E080008000000
184   9447                 db 008h, 000h, 000h, 000h, 000h, 07Eh, 010h, 000h, 008h, 000h, 000h, 000h
184   9447 08000000007E100008000000
185   9453                 db 008h, 000h, 000h, 000h, 000h, 07Eh, 020h, 0F0h, 010h, 000h, 000h, 000h
185   9453 08000000007E20F010000000
186   945F                 db 008h, 000h, 000h, 000h, 000h, 07Ch, 020h, 078h, 010h, 000h, 000h, 000h
186   945F 08000000007C207810000000
187   946B                 db 008h, 000h, 000h, 000h, 000h, 07Ch, 040h, 0B0h, 020h, 000h, 000h, 000h
187   946B 08000000007C40B020000000
188   9477                 db 008h, 000h, 000h, 000h, 000h, 0FCh, 081h, 0B8h, 020h, 000h, 000h, 000h
188   9477 0800000000FC81B820000000
189   9483                 db 008h, 000h, 000h, 000h, 000h, 0FCh, 080h, 0D4h, 040h, 000h, 000h, 000h ; 23
189   9483 0800000000FC80D440000000
190   948F                 db 008h, 000h, 000h, 000h, 000h, 0F9h, 001h, 0D0h, 040h, 000h, 000h, 000h
190   948F 0800000000F901D040000000
191   949B                 db 008h, 000h, 000h, 000h, 000h, 0FAh, 007h, 038h, 080h, 000h, 000h, 000h
191   949B 0800000000FA073880000000
192   94A7                 db 008h, 000h, 000h, 000h, 001h, 0F2h, 003h, 021h, 000h, 000h, 000h, 000h
192   94A7 0800000001F2032100000000
193   94B3                 db 00Eh, 000h, 000h, 000h, 001h, 0C4h, 001h, 081h, 000h, 000h, 000h, 000h
193   94B3 0E00000001C4018100000000
194   94BF                 db 001h, 0C0h, 000h, 000h, 006h, 004h, 000h, 002h, 000h, 000h, 000h, 000h
194   94BF 01C000000604000200000000
195   94CB                 db 000h, 03Eh, 000h, 000h, 038h, 008h, 000h, 004h, 000h, 000h, 000h, 000h
195   94CB 003E00003808000400000000
196   94D7                 db 000h, 001h, 0FFh, 0FFh, 0C0h, 010h, 000h, 008h, 000h, 000h, 000h, 000h
196   94D7 0001FFFFC010000800000000
197   94E3                 ; Color attributes
198   94E3                 db 045h, 045h, 045h, 007h, 007h, 007h, 045h, 045h, 045h, 045h, 045h, 045h ; 0
198   94E3 454545070707454545454545
199   94EF                 db 045h, 045h, 045h, 007h, 007h, 007h, 007h, 045h, 045h, 045h, 001h, 045h ; 1
199   94EF 454545070707074545450145
200   94FB                 db 045h, 045h, 007h, 007h, 007h, 046h, 007h, 007h, 045h, 006h, 001h, 045h ; 2
200   94FB 454507070746070745060145
201   9507                 db 045h, 045h, 007h, 007h, 046h, 046h, 007h, 007h, 045h, 006h, 006h, 045h ; 3
201   9507 454507074646070745060645
202   9513                 db 045h, 045h, 007h, 007h, 046h, 046h, 007h, 007h, 007h, 006h, 045h, 045h ; 4
202   9513 454507074646070707064545
203   951F                 db 045h, 042h, 042h, 007h, 007h, 045h, 007h, 007h, 006h, 006h, 045h, 045h ; 5
203   951F 454242070745070706064545
204   952B                 db 045h, 042h, 042h, 042h, 042h, 042h, 042h, 045h, 006h, 045h, 046h, 046h ; 6
204   952B 454242424242424506454646
205   9537                 db 045h, 042h, 045h, 042h, 042h, 042h, 042h, 046h, 006h, 045h, 046h, 046h ; 7
205   9537 454245424242424606454646
206   9543                 db 045h, 042h, 045h, 042h, 042h, 042h, 042h, 046h, 042h, 042h, 046h, 046h ; 8
206   9543 454245424242424642424646
207   954F                 db 045h, 042h, 045h, 042h, 042h, 042h, 042h, 042h, 042h, 042h, 046h, 045h ; 9
207   954F 454245424242424242424645
208   955B                 db 045h, 042h, 042h, 042h, 042h, 042h, 042h, 042h, 042h, 042h, 045h, 045h ; 10
208   955B 454242424242424242424545
209   9567                 db 045h, 042h, 045h, 042h, 042h, 042h, 042h, 042h, 042h, 042h, 045h, 045h ; 11
209   9567 454245424242424242424545
210   9573                 db 042h, 042h, 042h, 042h, 042h, 042h, 042h, 042h, 045h, 045h, 045h, 045h ; 12
210   9573 424242424242424245454545
211   957F                 db 042h, 042h, 042h, 042h, 042h, 042h, 042h, 045h, 045h, 045h, 045h, 045h ; 13
211   957F 424242424242424545454545
212   958B                 db 045h, 042h, 042h, 042h, 042h, 042h, 042h, 045h, 045h, 045h, 045h, 045h ; 14
212   958B 454242424242424545454545
213   9597                 db 045h, 042h, 045h, 042h, 042h, 042h, 042h, 045h, 045h, 045h, 045h, 045h ; 15
213   9597 454245424242424545454545
214   95A3                 db 042h, 042h, 045h, 042h, 042h, 042h, 042h, 042h, 045h, 045h, 045h, 045h ; 16
214   95A3 424245424242424245454545
215   95AF                 db 042h, 045h, 045h, 042h, 042h, 042h, 042h, 042h, 045h, 045h, 045h, 045h ; 17
215   95AF 424545424242424245454545
216   95BB                 db 042h, 045h, 045h, 042h, 042h, 042h, 042h, 042h, 042h, 045h, 045h, 045h ; 18
216   95BB 424545424242424242454545
217   95C7                 db 042h, 045h, 045h, 045h, 042h, 042h, 042h, 042h, 042h, 045h, 045h, 045h ; 19
217   95C7 424545454242424242454545
218   95D3                 db 042h, 045h, 045h, 045h, 045h, 042h, 042h, 042h, 042h, 045h, 045h, 045h ; 20
218   95D3 424545454542424242454545
219   95DF                 db 042h, 045h, 045h, 045h, 045h, 042h, 042h, 042h, 042h, 045h, 045h, 045h ; 21
219   95DF 424545454542424242454545
220   95EB                 db 042h, 045h, 045h, 045h, 045h, 042h, 042h, 042h, 042h, 045h, 045h, 045h ; 22
220   95EB 424545454542424242454545
221   95F7                 db 042h, 042h, 042h, 042h, 042h, 042h, 042h, 042h, 042h, 045h, 045h, 045h ; 23
221   95F7 424242424242424242454545
222   9603             
001   9603             ; ZX Spectrum test (c) 30-10-2019 Alemorf aleksey.f.morozov@gmail.com
002   9603             
003   9603             ; Структура описывающая искру
004   9603             
005   9603             SPARK_TBL_X     = 0
006   9603             SPARK_TBL_Y     = 2
007   9603             SPARK_TBL_DX    = 4
008   9603             SPARK_TBL_DY    = 6
009   9603             SPARK_TBL_L     = 8
010   9603             SPARK_TBL_ADDR  = 9
011   9603             SPARK_TBL_MASK  = 11
012   9603             SPARK_TBL_SIZE  = 12 ; Размер одного элемента
013   9603             SPARK_TBL_COUNT = 128 ; Кол-во элментов
014   9603             SPARK_TBL       = 0FE00h - SPARK_TBL_SIZE * SPARK_TBL_COUNT
015   9603             SPARK_INIT_X    = SPARK_TBL - 1
016   9603             SPARK_INIT_Y    = SPARK_TBL - 2
017   9603             
018   9603             ;-------------------------------------------------------------------------------
019   9603             ; Рассчитать псевдослучайное число
020   9603             
021   9603 ED 5F       rand:    LD    A, R
022   9605 C6 00       rand_1:  ADD   0
023   9607 5F                  LD    E, A
024   9608 87                  ADD   A
025   9609 87                  ADD   A
026   960A 83                  ADD   E
027   960B 3C                  INC   A
028   960C 32 06 96            LD    (rand_1 + 1), A
029   960F C9                  RET
030   9610             
031   9610             ;-------------------------------------------------------------------------------
032   9610             ; Выключить все искры. Необходимо вызхвать после очистки экрана.
033   9610             ; Сохраняет: BC', DE', HL', IX, IY
034   9610             
035   9610             sparkReset: 
036   9610 21 08 F8            LD    HL, SPARK_TBL + SPARK_TBL_L
037   9613 11 0C 00            LD    DE, SPARK_TBL_SIZE
038   9616 06 80               LD    B,  SPARK_TBL_COUNT
039   9618 AF                  XOR   A
040   9619             sparkInit_1: 
041   9619 77                  LD    (HL), A
042   961A 19                  ADD   HL, DE
043   961B 10 FC               DJNZ  sparkInit_1
044   961D C9                  RET
045   961E             
046   961E             ;-------------------------------------------------------------------------------
047   961E             ; Обработать все искры
048   961E             ; Не сохраняет регистры
049   961E             
050   961E             sparkDo: 
051   961E 06 80               LD    B,  SPARK_TBL_COUNT
052   9620 DD 21 00 F8         LD    IX, SPARK_TBL
053   9624             sparkDo_1: 
054   9624 C5                  PUSH  BC
055   9625 CD 39 96            CALL  sparkOne
056   9628 01 0C 00            LD    BC, SPARK_TBL_SIZE
057   962B DD 09               ADD   IX, BC
058   962D C1                  POP   BC
059   962E 10 F4               DJNZ  sparkDo_1
060   9630 C9                  RET
061   9631             
062   9631             ;-------------------------------------------------------------------------------
063   9631             ; Обработать одну искру
064   9631             ; Вход/выход: IX - адрес объекта искры
065   9631             
066   9631             pixelMaskTbl db 80h, 40h, 20h, 10h, 8, 4, 2, 1
066   9631 8040201008040201
067   9639             
068   9639             sparkOne: 
069   9639                     ; Если искра не создана, то создаём
070   9639 DD 7E 08            LD    A, (IX + SPARK_TBL_L)
071   963C B7                  OR    A
072   963D CA B1 96            JP    Z, sparkCreate
073   9640             
074   9640                     ; Стираем искру с экрана
075   9640                     LD    HL, (IX + SPARK_TBL_ADDR)
075   9640 DD6E09DD660A
076   9646 DD 7E 0B            LD    A, (IX + SPARK_TBL_MASK)
077   9649 AE                  XOR   (HL)
078   964A 77                  LD    (HL), A
079   964B             
080   964B                     ; Закончилось время слуществования искры
081   964B DD 35 08            DEC   (IX + SPARK_TBL_L)
082   964E CA B1 96            JP    Z, sparkCreate
083   9651             
084   9651                     ; Ускорение по Y
085   9651 01 14 00            LD    BC, 20
086   9654                     LD    HL, (IX + SPARK_TBL_DY)
086   9654 DD6E06DD6607
087   965A 09                  ADD   HL, BC ; dy
088   965B EB                  EX    HL, DE
089   965C             
090   965C                     ; Перемещение по Y
091   965C                     LD    HL, (IX + SPARK_TBL_Y)
091   965C DD6E02DD6603
092   9662 19                  ADD   HL, DE ; y
093   9663             
094   9663                     ; За пределами экрана по Y
095   9663 7C                  LD    A, H
096   9664 FE C0               CP    192
097   9666 D2 D9 96            JP    NC, sparkDisable
098   9669             
099   9669                     ; Перемещение по X
100   9669 D9                  EXX
101   966A                     LD    HL, (IX + SPARK_TBL_X)
101   966A DD6E00DD6601
102   9670                     LD    DE, (IX + SPARK_TBL_DX)
102   9670 DD5E04DD5605
103   9676 19                  ADD   HL, DE ; x
104   9677 D9                  EXX
105   9678             
106   9678                     ; За пределами экрана по X
107   9678 DA D9 96            JP    C, sparkDisable
108   967B             
109   967B             sparkCreated: 
110   967B                     ; Сохранение координат
111   967B                     LD    (IX + SPARK_TBL_Y), HL
111   967B DD7502DD7403
112   9681                     LD    (IX + SPARK_TBL_DY), DE
112   9681 DD7306DD7207
113   9687 D9                  EXX
114   9688                     LD    (IX + SPARK_TBL_X), HL
114   9688 DD7500DD7401
115   968E                     LD    (IX + SPARK_TBL_DX), DE
115   968E DD7304DD7205
116   9694 D9                  EXX
117   9695             
118   9695                     ; Вычисление экранных координат
119   9695 D9                  EXX
120   9696 7C                  LD    A, H ; X
121   9697 D9                  EXX
122   9698 6F                  LD    L, A
123   9699 CD 75 60            CALL  gCalcCoords
124   969C             
125   969C                     ; Вычисление маски (a = 80h >> c)
126   969C 3E 31               LD     A, pixelMaskTbl & 0xFF
127   969E 81                  ADD    C
128   969F 5F                  LD     E, A
129   96A0 CE 96               ADC    pixelMaskTbl >> 8
130   96A2 93                  SUB    E
131   96A3 57                  LD     D, A
132   96A4 1A                  LD     A, (DE)
133   96A5             
134   96A5                     ; Сохряняем вычисленные значения для стирания искры
135   96A5                     LD    (IX + SPARK_TBL_ADDR), HL
135   96A5 DD7509DD740A
136   96AB DD 77 0B            LD    (IX + SPARK_TBL_MASK), A
137   96AE             
138   96AE                     ; Рисование искры
139   96AE AE                  XOR   (HL)
140   96AF 77                  LD    (HL), A
141   96B0 C9                  RET
142   96B1             
143   96B1             ;-------------------------------------------------------------------------------
144   96B1             ; Создать новую искру
145   96B1             
146   96B1             sparkCreate: 
147   96B1                     ; dy
148   96B1 CD 03 96            CALL  rand
149   96B4 5F                  LD    E, A
150   96B5 16 00               LD    D, 0
151   96B7             
152   96B7                     ; y
153   96B7 3A FE F7            LD    A, (SPARK_INIT_Y)
154   96BA 67                  LD    H, A
155   96BB 2E 00               LD    L, 0
156   96BD             
157   96BD                     ; dx
158   96BD D9                  EXX
159   96BE CD 03 96            CALL  rand
160   96C1 5F                  LD    E, A
161   96C2 16 02               LD    D, 2
162   96C4             
163   96C4                     ; x
164   96C4 3A FF F7            LD    A, (SPARK_INIT_X)
165   96C7 B7                  OR    A
166   96C8 C8                  RET   Z
167   96C9 67                  LD    H, A
168   96CA 2E 00               LD    L, 0
169   96CC D9                  EXX
170   96CD             
171   96CD                     ; l
172   96CD CD 03 96            CALL  rand
173   96D0 E6 1F               AND   31
174   96D2 3C                  INC   A
175   96D3 DD 77 08            LD    (IX + SPARK_TBL_L), A
176   96D6             
177   96D6 C3 7B 96            JP    sparkCreated
178   96D9             
179   96D9             ;-------------------------------------------------------------------------------
180   96D9             
181   96D9             sparkDisable: 
182   96D9 DD 36 08 00         LD    (IX + SPARK_TBL_L), 0
183   96DD C9                  RET
184   96DE             
001   96DE                 ; menu/menu2.c:2 // (c) Морозов Алексей
002   96DE                 ; menu/menu2.c:3 // Главное меню.
003   96DE                 ; menu/menu2.c:4 
004   96DE                 ; menu/menu2.c:5 #include "common.h"
005   96DE                 ; menu/menu2.c:6 
006   96DE                 ; common.h:2 const int itemsCount = 8;
007   96DE                 ; common.h:3 
008   96DE                 ; common.h:4 // Размер глобального строкового буфера
009   96DE                 ; common.h:5 const int gStringBufferSize = 32;
010   96DE                 ; common.h:6 
011   96DE                 ; common.h:7 // Флаги для переменных gPanelChangedA, gPanelChangedB
012   96DE                 ; common.h:8 const int gPanelChangedMoney = 0x01;
013   96DE                 ; common.h:9 const int gPanelChangedPlace = 0x02;
014   96DE                 ; common.h:10 //const int gPanelChangedImages = 0x04;
015   96DE                 ; common.h:11 const int gPanelChanedSecondWeaponCount = 0x08;
016   96DE                 ; common.h:12 const int gPanelChanedArmorCount = 0x10;
017   96DE                 ; common.h:13 
018   96DE                 ; common.h:14 // Максимальное кол-во символов (не учитывая терминатор строки), которое возращает функция numberToString16
019   96DE                 ; common.h:15 const int numberToString16max = 5;
020   96DE                 ; common.h:16 
021   96DE                 ; common.h:17 // Максимальное кол-во предметов у игрока
022   96DE                 ; common.h:18 const int playerItemsMax = 5;
023   96DE                 ; common.h:19 
024   96DE                 ; common.h:20 // Максимальное кол-во типов лута у игрока (кол-во отображаемых строк в инвентаре)
025   96DE                 ; common.h:21 const int playerLutMax = 12;
026   96DE                 ; common.h:22 
027   96DE                 ; common.h:23 // Максимальное кол-во лута у игрока (сумма)
028   96DE                 ; common.h:24 const int playerLutMaxCountInLine = 99;
029   96DE                 ; common.h:25 
030   96DE                 ; common.h:26 const int secondWeaponMax = 9;
031   96DE                 ; common.h:27 
032   96DE                 ; common.h:28 // Флаги клавиш для переменные gKeyPressed, gKeyTrigger
033   96DE                 ; common.h:29 const int KEY_UP = 1;
034   96DE                 ; common.h:30 const int KEY_DOWN = 2;
035   96DE                 ; common.h:31 const int KEY_LEFT = 4;
036   96DE                 ; common.h:32 const int KEY_RIGHT = 8;
037   96DE                 ; common.h:33 const int KEY_FIRE = 16;
038   96DE                 ; common.h:34 const int KEY_MENU = 32;
039   96DE                 ; common.h:35 
040   96DE                 ; common.h:36 // Стандартные адреса ZX Spectrum
041   96DE                 ; common.h:37 const int screenBw0 = 0x4000;
042   96DE                 ; common.h:38 const int screenAttr0 = 0x5800;
043   96DE                 ; common.h:39 
044   96DE                 ; common.h:40 // Размеры экрана
045   96DE                 ; common.h:41 const int screenWidthTails = 32;
046   96DE                 ; common.h:42 const int panelHeightTails = 4;
047   96DE                 ; common.h:43 const int tailHeight = 8;
048   96DE                 ; common.h:44 const int tailWidth = 8;
049   96DE                 ; common.h:45 const int playfieldHeightTails = 20;
050   96DE                 ; common.h:46 
051   96DE                 ; common.h:47 // Используется при упаковке координат X, Y в регистровую пару
052   96DE                 ; common.h:48 const int bpl = 256;
053   96DE                 ; common.h:49 
054   96DE                 ; common.h:50 // Точки входа
055   96DE                 ; common.h:51 const int gPanelRedrawImagesPage = 6;
056   96DE                 ; common.h:52 const int gPanelRedrawImages = 0xC006;
057   96DE                 ; common.h:53 const int gInventPage = 6;
058   96DE                 ; common.h:54 const int gInvent = 0xC000;
059   96DE                 ; common.h:55 
060   96DE                 ; common.h:56 // Параметр для drawText
061   96DE                 ; common.h:57 const int smallFontFlag = 0x80;
062   96DE                 ; common.h:58 
063   96DE                 ; menu/menu2.c:7 const int menuLogoX      = 1;
064   96DE                 ; menu/menu2.c:8 const int menuLogoY      = 1;
065   96DE                 ; menu/menu2.c:9 const int menuItemH      = 10;
066   96DE                 ; menu/menu2.c:10 const int menuItemsY     = 100;
067   96DE                 ; menu/menu2.c:11 const int menuItemsX     = 80;
068   96DE                 ; menu/menu2.c:12 const int menuItemsSX    = 72;
069   96DE                 ; menu/menu2.c:13 const int menuItemsCount = 3;
070   96DE                 ; menu/menu2.c:14 const int menuItemsM     = menuItemsCount * menuItemH;
071   96DE                 ; menu/menu2.c:15 
072   96DE                 ; menu/menu2.c:16 uint8_t menuX = 0;
073   96DE 00          menuX db 0
074   96DF                 ; menu/menu2.c:17 uint8_t menuX1 = 0;
075   96DF 00          menuX1 db 0
076   96E0                 ; menu/menu2.c:18 
077   96E0                 ; menu/menu2.c:19 uint16_t test;
078   96E0 00 00       test dw 0
079   96E2                 ; menu/menu2.c:20 
080   96E2                 ; menu/menu2.c:21 void menuDrawCursor()
081   96E2             menuDrawCursor: 
082   96E2                 ; menu/menu2.c:22 {
083   96E2                 ; menu/menu2.c:23 gDrawTextEx(h = ((a = menuX1) += menuItemsY), l = menuItemsSX, de = "@", a = 0x44);
084   96E2 3A DF 96        ld   a, (menuX1)
085   96E5 C6 64           add  100
086   96E7 67              ld   h, a
087   96E8 2E 48           ld   l, 72
088   96EA 11 AE 97        ld   de, s0
089   96ED 3E 44           ld   a, 68
090   96EF CD 69 60        call gDrawTextEx
091   96F2                 ; menu/menu2.c:24 }
092   96F2 C9              ret
093   96F3                 ; menu/menu2.c:25 
094   96F3                 ; menu/menu2.c:26 void wait()
095   96F3             wait: 
096   96F3                 ; menu/menu2.c:27 {
097   96F3                 ; menu/menu2.c:28 hl = &gFrame;
098   96F3 21 B9 60        ld   hl, gFrame
099   96F6                 ; menu/menu2.c:29 a ^= a;
100   96F6 AF              xor  a
101   96F7                 ; menu/menu2.c:30 do { a |= *hl; } while(flag_z);
102   96F7             l0: 
103   96F7 B6              or   (hl)
104   96F8 CA F7 96        jp   z, l0
105   96FB             l1: 
106   96FB                 ; menu/menu2.c:31 *hl = 0;
107   96FB 36 00           ld   (hl), 0
108   96FD                 ; menu/menu2.c:32 }
109   96FD C9              ret
110   96FE                 ; menu/menu2.c:33 
111   96FE                 ; menu/menu2.c:34 void main()
112   96FE             main: 
113   96FE                 ; menu/menu2.c:35 {
114   96FE                 ; menu/menu2.c:36 gClearScreen(a = 0x45);
115   96FE 3E 45           ld   a, 69
116   9700 CD 6C 60        call gClearScreen
117   9703                 ; menu/menu2.c:37 gDrawImage(de = [0x5800 + menuLogoX + (menuLogoY << 5)], hl = &image_logo);
118   9703 11 21 58        ld   de, 22561
119   9706 21 FB 76        ld   hl, image_logo
120   9709 CD 6F 60        call gDrawImage
121   970C                 ; menu/menu2.c:38 gDrawTextEx(a = 0x45, hl = [(menuItemsY + menuItemH * 0) * 256 + menuItemsX], de = "Начать новую игру");
122   970C 3E 45           ld   a, 69
123   970E 21 50 64        ld   hl, 25680
124   9711 11 3C 98        ld   de, s1
125   9714 CD 69 60        call gDrawTextEx
126   9717                 ; menu/menu2.c:39 gDrawTextEx(a = 0x45, hl = [(menuItemsY + menuItemH * 1) * 256 + menuItemsX], de = "Настроить управление");
127   9717 3E 45           ld   a, 69
128   9719 21 50 6E        ld   hl, 28240
129   971C 11 27 98        ld   de, s2
130   971F CD 69 60        call gDrawTextEx
131   9722                 ; menu/menu2.c:40 gDrawTextEx(a = 0x45, hl = [(menuItemsY + menuItemH * 2) * 256 + menuItemsX], de = "Ввести пароль");
132   9722 3E 45           ld   a, 69
133   9724 21 50 78        ld   hl, 30800
134   9727 11 B5 97        ld   de, s3
135   972A CD 69 60        call gDrawTextEx
136   972D                 ; menu/menu2.c:41 
137   972D                 ; menu/menu2.c:42 gDrawTextCenter(a = 0x43, h = [192 - 8 - menuItemH * 2], de = "Игра | 2019 Алексей {Alemorf} Морозов");
138   972D 3E 43           ld   a, 67
139   972F 26 A4           ld   h, 164
140   9731 11 DA 97        ld   de, s4
141   9734 CD 66 60        call gDrawTextCenter
142   9737                 ; menu/menu2.c:43 gDrawTextCenter(a = 0x43, h = [192 - 8 - menuItemH * 1], de = "Мюзикл | 1998 Антон {Саруман} Круглов,");
143   9737 3E 43           ld   a, 67
144   9739 26 AE           ld   h, 174
145   973B 11 00 98        ld   de, s5
146   973E CD 66 60        call gDrawTextCenter
147   9741                 ; menu/menu2.c:44 gDrawTextCenter(a = 0x43, h = [192 - 8 - menuItemH * 0], de = "Елена {Мириам} Ханпира");
148   9741 3E 43           ld   a, 67
149   9743 26 B8           ld   h, 184
150   9745 11 C3 97        ld   de, s6
151   9748 CD 66 60        call gDrawTextCenter
152   974B                 ; menu/menu2.c:45 
153   974B                 ; menu/menu2.c:46 menuX = a ^= a;
154   974B AF              xor  a
155   974C 32 DE 96        ld   (menuX), a
156   974F                 ; menu/menu2.c:47 menuX1 = (++a);
157   974F 3C              inc  a
158   9750 32 DF 96        ld   (menuX1), a
159   9753                 ; menu/menu2.c:48 
160   9753                 ; menu/menu2.c:49 menuDrawCursor();
161   9753 CD E2 96        call menuDrawCursor
162   9756                 ; menu/menu2.c:50 
163   9756                 ; menu/menu2.c:51 while()
164   9756             l2: 
165   9756                 ; menu/menu2.c:52 {
166   9756                 ; menu/menu2.c:53 wait();
167   9756 CD F3 96        call wait
168   9759                 ; menu/menu2.c:54 menuTick();
169   9759 CD 61 97        call menuTick
170   975C                 ; menu/menu2.c:55 }
171   975C C3 56 97        jp   l2
172   975F             l3: 
173   975F                 ; menu/menu2.c:56 return;
174   975F C9              ret
175   9760                 ; menu/menu2.c:57 }
176   9760 C9              ret
177   9761                 ; menu/menu2.c:58 
178   9761                 ; menu/menu2.c:59 void menuTick()
179   9761             menuTick: 
180   9761                 ; menu/menu2.c:60 {
181   9761                 ; menu/menu2.c:61 // Получить нажатую клавишу
182   9761                 ; menu/menu2.c:62 hl = &gKeyTrigger;
183   9761 21 BC 60        ld   hl, gKeyTrigger
184   9764                 ; menu/menu2.c:63 b = *hl;
185   9764 46              ld   b, (hl)
186   9765                 ; menu/menu2.c:64 *hl = 0;
187   9765 36 00           ld   (hl), 0
188   9767                 ; menu/menu2.c:65 
189   9767                 ; menu/menu2.c:66 // Нажат выстрел
190   9767                 ; menu/menu2.c:67 a = menuX;
191   9767 3A DE 96        ld   a, (menuX)
192   976A                 ; menu/menu2.c:68 if (b & KEY_FIRE)
193   976A CB 60           bit  4, b
194   976C                 ; menu/menu2.c:69 {
195   976C CA 7C 97        jp   z, l4
196   976F                 ; menu/menu2.c:70 if (a == [0 * menuItemH]) return gExec(hl = "city");
197   976F B7              or   a
198   9770 21 B0 97        ld   hl, s7
199   9773 CA 7B 60        jp   z, gExec
200   9776                 ; menu/menu2.c:71 if (a == [1 * menuItemH]) return intro();
201   9776 FE 0A           cp   10
202   9778 CA 03 70        jp   z, intro
203   977B                 ; menu/menu2.c:72 //if (a == [2 * menuItemH]) return loadGame();
204   977B                 ; menu/menu2.c:73 //return saveGame();
205   977B                 ; menu/menu2.c:74 return;
206   977B C9              ret
207   977C                 ; menu/menu2.c:75 }
208   977C                 ; menu/menu2.c:76 
209   977C                 ; menu/menu2.c:77 // Перемещение курсора
210   977C                 ; menu/menu2.c:78 if (b & KEY_UP)
211   977C             l4: 
212   977C CB 40           bit  0, b
213   977E                 ; menu/menu2.c:79 {
214   977E CA 87 97        jp   z, l5
215   9781                 ; menu/menu2.c:80 a -= menuItemH;
216   9781 D6 0A           sub  10
217   9783                 ; menu/menu2.c:81 if (flag_c) return;
218   9783 D8              ret  c
219   9784                 ; menu/menu2.c:82 }
220   9784                 ; menu/menu2.c:83 else if (b & KEY_DOWN)
221   9784 C3 91 97        jp   l6
222   9787             l5: 
223   9787 CB 48           bit  1, b
224   9789                 ; menu/menu2.c:84 {
225   9789 CA 91 97        jp   z, l7
226   978C                 ; menu/menu2.c:85 a += menuItemH;
227   978C C6 0A           add  10
228   978E                 ; menu/menu2.c:86 if (a >= menuItemsM) return;
229   978E FE 1E           cp   30
230   9790 D0              ret  nc
231   9791                 ; menu/menu2.c:87 }
232   9791                 ; menu/menu2.c:88 menuX = a;
233   9791             l7: 
234   9791             l6: 
235   9791 32 DE 96        ld   (menuX), a
236   9794                 ; menu/menu2.c:89 
237   9794                 ; menu/menu2.c:90 // Плавное перемещение курсора
238   9794                 ; menu/menu2.c:91 hl = &menuX1;
239   9794 21 DF 96        ld   hl, menuX1
240   9797                 ; menu/menu2.c:92 b = *hl;
241   9797 46              ld   b, (hl)
242   9798                 ; menu/menu2.c:93 if (a == b) return; // Оставит флаг CF при выполнении menuX1 - menuX
243   9798 B8              cp   b
244   9799 C8              ret  z
245   979A                 ; menu/menu2.c:94 b++; // Не изменяет CF
246   979A 04              inc  b
247   979B                 ; menu/menu2.c:95 if (flag_c) ----b;
248   979B D2 A0 97        jp   nc, l8
249   979E 05              dec  b
250   979F 05              dec  b
251   97A0                 ; menu/menu2.c:96 
252   97A0                 ; menu/menu2.c:97 push(bc);
253   97A0             l8: 
254   97A0 C5              push bc
255   97A1                 ; menu/menu2.c:98 menuDrawCursor();
256   97A1 CD E2 96        call menuDrawCursor
257   97A4                 ; menu/menu2.c:99 pop(bc);
258   97A4 C1              pop  bc
259   97A5                 ; menu/menu2.c:100 
260   97A5                 ; menu/menu2.c:101 *(hl = &menuX1) = b;
261   97A5 21 DF 96        ld   hl, menuX1
262   97A8 70              ld   (hl), b
263   97A9                 ; menu/menu2.c:102 
264   97A9                 ; menu/menu2.c:103 menuDrawCursor();
265   97A9 CD E2 96        call menuDrawCursor
266   97AC                 ; menu/menu2.c:104 
267   97AC                 ; menu/menu2.c:105 return;
268   97AC C9              ret
269   97AD                 ; menu/menu2.c:106 }
270   97AD C9              ret
271   97AE                 ; menu/menu2.c:107 
272   97AE                 ; strings
273   97AE 40 00       s0 db "@",0
274   97B0 6369747900  s7 db "city",0
275   97B5             s3 db " ",0
275   97B5 C2E2E5F1F2E820EFE0F0EEEBFC00
276   97C3             s6 db " {} ",0
276   97C3 C5EBE5EDE0207BCCE8F0E8E0EC7D20D5E0EDEFE8F0E000
277   97DA             s4 db " | 2019  {Alemorf} ",0
277   97DA C8E3F0E0207C203230313920C0EBE5EAF1E5E9207B416C656D6F72667D20CCEE
277   97FA F0EEE7EEE200
278   9800             s5 db " | 1998  {} ,",0
278   9800 CCFEE7E8EAEB207C203139393820C0EDF2EEED207BD1E0F0F3ECE0ED7D20CAF0
278   9820 F3E3EBEEE22C00
279   9827             s2 db " ",0
279   9827 CDE0F1F2F0EEE8F2FC20F3EFF0E0E2EBE5EDE8E500
280   983C             s1 db "  ",0
280   983C CDE0F7E0F2FC20EDEEE2F3FE20E8E3F0F300
281   984E             
001   984E                 savebin "menu/menu.C", begin, $ - begin ; menu/menu.asm menu/intro.asm menu/logo.asm menu/takh.asm menu/rast.asm menu/spark.asm menu/menu2.asm
002   984E             
